
Dhrystone.elf:     file format elf32-littleriscv
Dhrystone.elf
architecture: riscv:rv32, flags 0x00000112:
EXEC_P, HAS_SYMS, D_PAGED
start address 0x80000000

Program Header:
    LOAD off    0x00001000 vaddr 0x80000000 paddr 0x80000000 align 2**12
         filesz 0x000072a0 memsz 0x0000aad0 flags rwx

Sections:
Idx Name           Size      VMA       LMA       File off  Algn  Flags
  0 .text          00006de0  80000000  80000000  00001000  2**4  CONTENTS, ALLOC, LOAD, READONLY, CODE
  1 .sdata         00000010  80006de0  80006de0  00007de0  2**4  CONTENTS, ALLOC, LOAD, DATA
  2 .data          000004b0  80006df0  80006df0  00007df0  2**4  CONTENTS, ALLOC, LOAD, DATA
  3 .sbss          00000040  800072a0  800072a0  000082a0  2**4  ALLOC
  4 .bss           000027f0  800072e0  800072e0  000082a0  2**4  ALLOC
  5 .heap          00000800  80009ad0  80009ad0  000082a0  2**4  ALLOC
  6 .stack         00000800  8000a2d0  8000a2d0  000082a0  2**4  ALLOC
  7 .debug_info    00006d1b  00000000  00000000  000082a0  2**0  CONTENTS, READONLY, DEBUGGING
  8 .debug_abbrev  000015f4  00000000  00000000  0000efbb  2**0  CONTENTS, READONLY, DEBUGGING
  9 .debug_aranges 000001a0  00000000  00000000  000105b0  2**3  CONTENTS, READONLY, DEBUGGING
 10 .debug_line    00002f91  00000000  00000000  00010750  2**0  CONTENTS, READONLY, DEBUGGING
 11 .debug_str     00001b2f  00000000  00000000  000136e1  2**0  CONTENTS, READONLY, DEBUGGING
 12 .comment       00000058  00000000  00000000  00015210  2**0  CONTENTS, READONLY
 13 .debug_frame   000014f4  00000000  00000000  00015268  2**2  CONTENTS, READONLY, DEBUGGING
 14 .debug_loc     00001412  00000000  00000000  0001675c  2**0  CONTENTS, READONLY, DEBUGGING
 15 .debug_ranges  00000048  00000000  00000000  00017b6e  2**0  CONTENTS, READONLY, DEBUGGING
SYMBOL TABLE:
80000000 l    d  .text	00000000 .text
80006de0 l    d  .sdata	00000000 .sdata
80006df0 l    d  .data	00000000 .data
800072a0 l    d  .sbss	00000000 .sbss
800072e0 l    d  .bss	00000000 .bss
80009ad0 l    d  .heap	00000000 .heap
8000a2d0 l    d  .stack	00000000 .stack
00000000 l    d  .debug_info	00000000 .debug_info
00000000 l    d  .debug_abbrev	00000000 .debug_abbrev
00000000 l    d  .debug_aranges	00000000 .debug_aranges
00000000 l    d  .debug_line	00000000 .debug_line
00000000 l    d  .debug_str	00000000 .debug_str
00000000 l    d  .comment	00000000 .comment
00000000 l    d  .debug_frame	00000000 .debug_frame
00000000 l    d  .debug_loc	00000000 .debug_loc
00000000 l    d  .debug_ranges	00000000 .debug_ranges
00000000 l    df *ABS*	00000000 ./riscv_hal/entry.o
8000000c l       .text	00000000 handle_reset
80000004 l       .text	00000000 nmi_vector
80000008 l       .text	00000000 trap_vector
80000034 l       .text	00000000 trap_entry
00000000 l    df *ABS*	00000000 init.c
80000160 l     F .text	00000060 copy_section
800001c0 l     F .text	00000050 zero_section
00000000 l    df *ABS*	00000000 dhry_1.c
00000000 l    df *ABS*	00000000 dhry_2.c
00000000 l    df *ABS*	00000000 dhry_stubs.c
00000000 l    df *ABS*	00000000 dhry_printf.c
80001474 l     F .text	00000054 sprintf_putch
800014c8 l     F .text	000000a8 getuint
80001570 l     F .text	000000b0 getint
80001620 l     F .text	000001c0 printnum
800017e0 l     F .text	000001b0 print_double
80001990 l     F .text	0000043c vprintfmt
00000000 l    df *ABS*	00000000 hw_reg_access.c
00000000 l    df *ABS*	00000000 core_gpio.c
00000000 l    df *ABS*	00000000 core_uart_apb.c
00000000 l    df *ABS*	00000000 core_timer.c
00000000 l    df *ABS*	00000000 syscall.c
80009ab8 l     O .bss	00000008 g_stdio_uart
80009ac0 l     O .bss	00000004 g_stdio_uart_init_done
80006de4 l     O .sdata	00000004 curbrk.3506
80002e50 l     F .text	0000002c stub
00000000 l    df *ABS*	00000000 riscv_hal.c
80003418 l     F .text	000000b8 PLIC_DisableIRQ
800034d0 l     F .text	00000044 PLIC_ClaimIRQ
80003514 l     F .text	0000004c PLIC_CompleteIRQ
80009ac8 l     O .bss	00000008 g_systick_increment
800036a8 l     F .text	000000ac handle_m_timer_interrupt
80003754 l     F .text	00000070 handle_m_ext_interrupt
800037c4 l     F .text	00000030 handle_m_soft_interrupt
00000000 l    df *ABS*	00000000 riscv_hal_stubs.c
00000000 l    df *ABS*	00000000 memcpy.c
00000000 l    df *ABS*	00000000 strlen.c
00000000 l    df *ABS*	00000000 strnlen.c
00000000 l    df *ABS*	00000000 sysisatty.c
00000000 l    df *ABS*	00000000 syssbrk.c
00000000 l    df *ABS*	00000000 syswrite.c
00000000 l    df *ABS*	00000000 writer.c
00000000 l    df *ABS*	00000000 impure.c
80006e70 l     O .data	00000428 impure_data
00000000 l    df *ABS*	00000000 sbrkr.c
00000000 l    df *ABS*	00000000 libgcc2.c
00000000 l    df *ABS*	00000000 libgcc2.c
00000000 l    df *ABS*	00000000 divdf3.c
00000000 l    df *ABS*	00000000 ledf2.c
00000000 l    df *ABS*	00000000 muldf3.c
00000000 l    df *ABS*	00000000 fixunsdfdi.c
00000000 l    df *ABS*	00000000 divsf3.c
00000000 l    df *ABS*	00000000 floatsisf.c
00000000 l    df *ABS*	00000000 extendsfdf2.c
00000000 l    df *ABS*	00000000 truncdfsf2.c
00000000 l    df *ABS*	00000000 libgcc2.c
00000000 l    df *ABS*	00000000 libgcc2.c
800072c4 g     O .sbss	00000004 Microseconds
80001420 g     F .text	00000054 putchar
80002ff4 g     F .text	00000020 _getpid
800072c8 g     O .sbss	00000004 Dhrystones_Per_Second
80002760 g     F .text	000000b0 GPIO_clear_all_irq_sources
00000800 g       *ABS*	00000000 STACK_SIZE
80003560 g     F .text	00000030 __disable_irq
80003a84  w    F .text	00000020 External_11_IRQHandler
80001dcc g     F .text	00000070 printf
800075e0 g       .sdata	00000000 __global_pointer$
80002a00 g     F .text	000000d0 UART_get_rx
80006df0 g       *ABS*	00000000 __data_load
80005ad4 g     F .text	00000408 .hidden __divsf3
80000e24 g     F .text	00000060 Proc_3
80003908  w    F .text	00000018 SysTick_Handler
800039c4  w    F .text	00000020 External_5_IRQHandler
800072c0 g     O .sbss	00000004 User_Time
80001f98 g     F .text	00000014 HW_get_8bit_reg_field
800072b8 g     O .sbss	00000004 Begin_Time
80002c74 g     F .text	0000002c TMR_stop
80000fd4 g     F .text	0000004c Proc_7
800072a0 g       .sbss	00000000 __sbss_start
800072cc g     O .sbss	00000004 errno
80001ecc g     F .text	00000008 HW_set_32bit_reg
80003ba4  w    F .text	00000020 External_20_IRQHandler
80003590 g     F .text	00000024 __enable_irq
80003d24 g     F .text	0000011c memcpy
80002590 g     F .text	00000048 GPIO_disable_irq
80005280 g     F .text	00000104 .hidden __ltdf2
80006de0 g       .sdata	00000000 __sdata_start
80001f74 g     F .text	00000024 HW_set_8bit_reg_field
800013b0 g     F .text	00000050 malloc
80003c64  w    F .text	00000020 External_26_IRQHandler
80004080 g     F .text	00000004 isatty
80002f98 g     F .text	0000005c _fstat
800037f4 g     F .text	000000fc handle_trap
00010000 g       *ABS*	00000000 RAM_SIZE
80003a64  w    F .text	00000020 External_10_IRQHandler
80000e84 g     F .text	0000004c Proc_4
80002ca0 g     F .text	0000002c TMR_enable_int
80004114 g     F .text	00000054 _sbrk_r
800073a8 g     O .bss	00002710 Arr_2_Glob
80006038 g     F .text	00000138 .hidden __extendsfdf2
80003ce4  w    F .text	00000020 External_30_IRQHandler
80003b44  w    F .text	00000020 External_17_IRQHandler
8000a2d0 g       .heap	00000000 _heap_end
80004610 g     F .text	00000460 .hidden __umoddi3
80002e04 g     F .text	0000004c _isatty
80006de8 g     O .sdata	00000004 _global_impure_ptr
80009ad0 g       .bss	00000000 __bss_end
80004168 g     F .text	000004a8 .hidden __udivdi3
80002e7c g     F .text	0000003c _open
80002d78 g     F .text	0000008c _sbrk
80000210 g     F .text	00000094 _init
800072bc g     O .sbss	00000004 End_Time
80001f60 g     F .text	0000000c HW_set_8bit_reg
800072a4 g     O .sbss	00000004 Next_Ptr_Glob
80001f6c g     F .text	00000008 HW_get_8bit_reg
80004048 g     F .text	00000038 strnlen
80001020 g     F .text	0000018c Proc_8
800031a8 g     F .text	00000034 _times
80002544 g     F .text	0000004c GPIO_enable_irq
800072e0 g       .sbss	00000000 __sbss_end
80001edc g     F .text	0000001c HW_set_32bit_reg_field
80004098 g     F .text	0000001c write
80006de0 g     O .sdata	00000004 environ
80005280 g     F .text	00000104 .hidden __ledf2
80003c44  w    F .text	00000020 External_25_IRQHandler
80003170 g     F .text	00000038 _stat
8000aad0 g       .stack	00000000 __stack_top
80003cc4  w    F .text	00000020 External_29_IRQHandler
80002b78 g     F .text	000000d0 TMR_init
800011ac g     F .text	00000060 Func_1
80002ad0 g     F .text	00000084 UART_polled_tx_string
80003340 g     F .text	000000d8 write_hex
80003ac4  w    F .text	00000020 External_13_IRQHandler
80003964  w    F .text	00000020 External_2_IRQHandler
00000800 g       *ABS*	00000000 HEAP_SIZE
80006334 g     F .text	00000094 .hidden __clzsi2
80003aa4  w    F .text	00000020 External_12_IRQHandler
800072b4 g     O .sbss	00000004 Reg
800028c4 g     F .text	00000088 UART_send
800020d8 g     F .text	000000c4 GPIO_set_outputs
80000000 g       .text	00000000 _start
80003210 g     F .text	00000034 _wait
80003084 g     F .text	00000054 _lseek
800072a8 g     O .sbss	00000004 Int_Glob
80005edc g     F .text	0000015c .hidden __floatsisf
80002d10 g     F .text	0000001c TMR_reload
80006de0 g       *ABS*	00000000 __sdata_load
800072a0 g       .data	00000000 __data_end
800072b0 g     O .sbss	00000001 Ch_1_Glob
80001308 g     F .text	00000040 Func_3
80000c08 g     F .text	000001b0 Proc_1
800072b1 g     O .sbss	00000001 Ch_2_Glob
80003b64  w    F .text	00000020 External_18_IRQHandler
80001ef8 g     F .text	00000010 HW_get_32bit_reg_field
80002694 g     F .text	000000cc GPIO_get_irq_sources
800072a0 g     O .sbss	00000004 Ptr_Glob
80001fac g     F .text	000000f8 GPIO_init
80004a70 g     F .text	00000810 .hidden __divdf3
80003be4  w    F .text	00000020 External_22_IRQHandler
80005384 g     F .text	0000068c .hidden __muldf3
800072d0 g     O .sbss	00000004 __env
80003b04  w    F .text	00000020 External_15_IRQHandler
80004084 g     F .text	00000014 sbrk
80000000 g       *ABS*	00000000 RAM_START_ADDRESS
80002268 g     F .text	000000cc GPIO_get_outputs
800072e0 g       .bss	00000000 __bss_start
80003b24  w    F .text	00000020 External_16_IRQHandler
800002c0 g     F .text	00000948 main
8000304c g     F .text	00000038 _link
80003ca4  w    F .text	00000020 External_28_IRQHandler
8000219c g     F .text	000000cc GPIO_get_inputs
80006170 g     F .text	000001c4 .hidden __truncdfsf2
80001348 g     F .text	00000034 time
80001f18 g     F .text	00000008 HW_get_16bit_reg
80006df0 g       .sdata	00000000 __sdata_end
80003e40 g     F .text	0000017c strcmp
8000a2d0 g       .heap	00000000 __heap_end
80003ae4  w    F .text	00000020 External_14_IRQHandler
80002eb8 g     F .text	00000040 _openat
80005a10 g     F .text	000000c4 .hidden __fixunsdfdi
800002a4 g     F .text	0000001c _fini
80002f2c g     F .text	0000003c _execve
800025d8 g     F .text	000000bc GPIO_clear_irq
80001e3c g     F .text	00000090 sprintf
80006c88 g     O .text	00000100 .hidden __clz_tab
80006df0 g     O .data	00000080 ext_irq_handler_table
800040b4 g     F .text	00000060 _write_r
80001f20 g     F .text	00000028 HW_set_16bit_reg_field
8000137c g     F .text	00000034 scanf
80006dec g     O .sdata	00000004 _impure_ptr
80000db8 g     F .text	0000006c Proc_2
8000a2d0 g       .stack	00000000 __stack_bottom
800038f0  w    F .text	00000018 Software_IRQHandler
80002b54 g     F .text	00000024 UART_get_rx_status
80003c84  w    F .text	00000020 External_27_IRQHandler
80003a24  w    F .text	00000020 External_8_IRQHandler
80003a44  w    F .text	00000020 External_9_IRQHandler
80002c48 g     F .text	0000002c TMR_start
8000120c g     F .text	000000fc Func_2
800031dc g     F .text	00000034 _unlink
80009ad0 g       .heap	00000000 __heap_start
80003924  w    F .text	00000020 Invalid_IRQHandler
80002f68 g     F .text	00000030 _fork
80003984  w    F .text	00000020 External_3_IRQHandler
800020a4 g     F .text	00000034 GPIO_config
80000efc g     F .text	000000d8 Proc_6
80002cf0 g     F .text	00000020 TMR_current_value
80003b84  w    F .text	00000020 External_19_IRQHandler
80003244 g     F .text	000000fc _write
80009ad0 g       .bss	00000000 _end
800072e0 g     O .bss	000000c8 Arr_1_Glob
80003014 g     F .text	00000038 _kill
80002810 g     F .text	000000b4 UART_init
80000ed0 g     F .text	0000002c Proc_5
80001ed4 g     F .text	00000008 HW_get_32bit_reg
800030d8 g     F .text	00000098 _read
80002d2c g     F .text	0000004c _exit
80001f08 g     F .text	00000010 HW_set_16bit_reg
80003fbc g     F .text	0000008c strlen
80003944  w    F .text	00000020 External_1_IRQHandler
800039e4  w    F .text	00000020 External_6_IRQHandler
800072ac g     O .sbss	00000004 Bool_Glob
80002480 g     F .text	000000c4 GPIO_drive_inout
80003d04  w    F .text	00000020 External_31_IRQHandler
80006df0 g       .data	00000000 __data_start
80003bc4  w    F .text	00000020 External_21_IRQHandler
80001f48 g     F .text	00000018 HW_get_16bit_reg_field
80003c04  w    F .text	00000020 External_23_IRQHandler
80003c24  w    F .text	00000020 External_24_IRQHandler
80002334 g     F .text	0000014c GPIO_set_output
800039a4  w    F .text	00000020 External_4_IRQHandler
800035b4 g     F .text	000000f4 SysTick_Config
8000294c g     F .text	000000b4 UART_fill_tx_fifo
80002ef8 g     F .text	00000034 _close
80001400 g     F .text	00000020 free
80003a04  w    F .text	00000020 External_7_IRQHandler
80002ccc g     F .text	00000024 TMR_clear_int



Disassembly of section .text:

80000000 <_start>:
_start():
C:\Microsemi\SoftConsole_v5.3.0.30-20180629-171539\extras\workspace.examples\Dhrystone_RISCV/riscv_hal/entry.S:30

  .section      .text.entry
  .globl _start

_start:
  j handle_reset
80000000:	00c0006f          	j	8000000c <handle_reset>

80000004 <nmi_vector>:
nmi_vector():
C:\Microsemi\SoftConsole_v5.3.0.30-20180629-171539\extras\workspace.examples\Dhrystone_RISCV/riscv_hal/entry.S:33

nmi_vector:
  j nmi_vector
80000004:	0000006f          	j	80000004 <nmi_vector>

80000008 <trap_vector>:
trap_vector():
C:\Microsemi\SoftConsole_v5.3.0.30-20180629-171539\extras\workspace.examples\Dhrystone_RISCV/riscv_hal/entry.S:36

trap_vector:
  j trap_entry
80000008:	02c0006f          	j	80000034 <trap_entry>

8000000c <handle_reset>:
handle_reset():
C:\Microsemi\SoftConsole_v5.3.0.30-20180629-171539\extras\workspace.examples\Dhrystone_RISCV/riscv_hal/entry.S:39

handle_reset:
  la t0, trap_entry
8000000c:	00000297          	auipc	t0,0x0
80000010:	02828293          	addi	t0,t0,40 # 80000034 <trap_entry>
C:\Microsemi\SoftConsole_v5.3.0.30-20180629-171539\extras\workspace.examples\Dhrystone_RISCV/riscv_hal/entry.S:40
  csrw mtvec, t0
80000014:	30529073          	csrw	mtvec,t0
C:\Microsemi\SoftConsole_v5.3.0.30-20180629-171539\extras\workspace.examples\Dhrystone_RISCV/riscv_hal/entry.S:41
  csrwi mstatus, 0
80000018:	30005073          	csrwi	mstatus,0
C:\Microsemi\SoftConsole_v5.3.0.30-20180629-171539\extras\workspace.examples\Dhrystone_RISCV/riscv_hal/entry.S:42
  csrwi mie, 0
8000001c:	30405073          	csrwi	mie,0
C:\Microsemi\SoftConsole_v5.3.0.30-20180629-171539\extras\workspace.examples\Dhrystone_RISCV/riscv_hal/entry.S:64

# Ensure the instruction is not optimized, since gp is not yet set

.option norelax
  # initialize global pointer
  la gp, __global_pointer$
80000020:	00007197          	auipc	gp,0x7
80000024:	5c018193          	addi	gp,gp,1472 # 800075e0 <__global_pointer$>
C:\Microsemi\SoftConsole_v5.3.0.30-20180629-171539\extras\workspace.examples\Dhrystone_RISCV/riscv_hal/entry.S:69

.option pop

  # initialize stack pointer
  la sp, __stack_top
80000028:	0000b117          	auipc	sp,0xb
8000002c:	aa810113          	addi	sp,sp,-1368 # 8000aad0 <__stack_top>
C:\Microsemi\SoftConsole_v5.3.0.30-20180629-171539\extras\workspace.examples\Dhrystone_RISCV/riscv_hal/entry.S:72

  # perform the rest of initialization in C
  j _init
80000030:	1e00006f          	j	80000210 <_init>

80000034 <trap_entry>:
trap_entry():
C:\Microsemi\SoftConsole_v5.3.0.30-20180629-171539\extras\workspace.examples\Dhrystone_RISCV/riscv_hal/entry.S:76


trap_entry:
  addi sp, sp, -32*REGBYTES
80000034:	f8010113          	addi	sp,sp,-128
C:\Microsemi\SoftConsole_v5.3.0.30-20180629-171539\extras\workspace.examples\Dhrystone_RISCV/riscv_hal/entry.S:78

  SREG x1, 0 * REGBYTES(sp)
80000038:	00112023          	sw	ra,0(sp)
C:\Microsemi\SoftConsole_v5.3.0.30-20180629-171539\extras\workspace.examples\Dhrystone_RISCV/riscv_hal/entry.S:79
  SREG x2, 1 * REGBYTES(sp)
8000003c:	00212223          	sw	sp,4(sp)
C:\Microsemi\SoftConsole_v5.3.0.30-20180629-171539\extras\workspace.examples\Dhrystone_RISCV/riscv_hal/entry.S:80
  SREG x3, 2 * REGBYTES(sp)
80000040:	00312423          	sw	gp,8(sp)
C:\Microsemi\SoftConsole_v5.3.0.30-20180629-171539\extras\workspace.examples\Dhrystone_RISCV/riscv_hal/entry.S:81
  SREG x4, 3 * REGBYTES(sp)
80000044:	00412623          	sw	tp,12(sp)
C:\Microsemi\SoftConsole_v5.3.0.30-20180629-171539\extras\workspace.examples\Dhrystone_RISCV/riscv_hal/entry.S:82
  SREG x5, 4 * REGBYTES(sp)
80000048:	00512823          	sw	t0,16(sp)
C:\Microsemi\SoftConsole_v5.3.0.30-20180629-171539\extras\workspace.examples\Dhrystone_RISCV/riscv_hal/entry.S:83
  SREG x6, 5 * REGBYTES(sp)
8000004c:	00612a23          	sw	t1,20(sp)
C:\Microsemi\SoftConsole_v5.3.0.30-20180629-171539\extras\workspace.examples\Dhrystone_RISCV/riscv_hal/entry.S:84
  SREG x7, 6 * REGBYTES(sp)
80000050:	00712c23          	sw	t2,24(sp)
C:\Microsemi\SoftConsole_v5.3.0.30-20180629-171539\extras\workspace.examples\Dhrystone_RISCV/riscv_hal/entry.S:85
  SREG x8, 7 * REGBYTES(sp)
80000054:	00812e23          	sw	s0,28(sp)
C:\Microsemi\SoftConsole_v5.3.0.30-20180629-171539\extras\workspace.examples\Dhrystone_RISCV/riscv_hal/entry.S:86
  SREG x9, 8 * REGBYTES(sp)
80000058:	02912023          	sw	s1,32(sp)
C:\Microsemi\SoftConsole_v5.3.0.30-20180629-171539\extras\workspace.examples\Dhrystone_RISCV/riscv_hal/entry.S:87
  SREG x10, 9 * REGBYTES(sp)
8000005c:	02a12223          	sw	a0,36(sp)
C:\Microsemi\SoftConsole_v5.3.0.30-20180629-171539\extras\workspace.examples\Dhrystone_RISCV/riscv_hal/entry.S:88
  SREG x11, 10 * REGBYTES(sp)
80000060:	02b12423          	sw	a1,40(sp)
C:\Microsemi\SoftConsole_v5.3.0.30-20180629-171539\extras\workspace.examples\Dhrystone_RISCV/riscv_hal/entry.S:89
  SREG x12, 11 * REGBYTES(sp)
80000064:	02c12623          	sw	a2,44(sp)
C:\Microsemi\SoftConsole_v5.3.0.30-20180629-171539\extras\workspace.examples\Dhrystone_RISCV/riscv_hal/entry.S:90
  SREG x13, 12 * REGBYTES(sp)
80000068:	02d12823          	sw	a3,48(sp)
C:\Microsemi\SoftConsole_v5.3.0.30-20180629-171539\extras\workspace.examples\Dhrystone_RISCV/riscv_hal/entry.S:91
  SREG x14, 13 * REGBYTES(sp)
8000006c:	02e12a23          	sw	a4,52(sp)
C:\Microsemi\SoftConsole_v5.3.0.30-20180629-171539\extras\workspace.examples\Dhrystone_RISCV/riscv_hal/entry.S:92
  SREG x15, 14 * REGBYTES(sp)
80000070:	02f12c23          	sw	a5,56(sp)
C:\Microsemi\SoftConsole_v5.3.0.30-20180629-171539\extras\workspace.examples\Dhrystone_RISCV/riscv_hal/entry.S:93
  SREG x16, 15 * REGBYTES(sp)
80000074:	03012e23          	sw	a6,60(sp)
C:\Microsemi\SoftConsole_v5.3.0.30-20180629-171539\extras\workspace.examples\Dhrystone_RISCV/riscv_hal/entry.S:94
  SREG x17, 16 * REGBYTES(sp)
80000078:	05112023          	sw	a7,64(sp)
C:\Microsemi\SoftConsole_v5.3.0.30-20180629-171539\extras\workspace.examples\Dhrystone_RISCV/riscv_hal/entry.S:95
  SREG x18, 17 * REGBYTES(sp)
8000007c:	05212223          	sw	s2,68(sp)
C:\Microsemi\SoftConsole_v5.3.0.30-20180629-171539\extras\workspace.examples\Dhrystone_RISCV/riscv_hal/entry.S:96
  SREG x19, 18 * REGBYTES(sp)
80000080:	05312423          	sw	s3,72(sp)
C:\Microsemi\SoftConsole_v5.3.0.30-20180629-171539\extras\workspace.examples\Dhrystone_RISCV/riscv_hal/entry.S:97
  SREG x20, 19 * REGBYTES(sp)
80000084:	05412623          	sw	s4,76(sp)
C:\Microsemi\SoftConsole_v5.3.0.30-20180629-171539\extras\workspace.examples\Dhrystone_RISCV/riscv_hal/entry.S:98
  SREG x21, 20 * REGBYTES(sp)
80000088:	05512823          	sw	s5,80(sp)
C:\Microsemi\SoftConsole_v5.3.0.30-20180629-171539\extras\workspace.examples\Dhrystone_RISCV/riscv_hal/entry.S:99
  SREG x22, 21 * REGBYTES(sp)
8000008c:	05612a23          	sw	s6,84(sp)
C:\Microsemi\SoftConsole_v5.3.0.30-20180629-171539\extras\workspace.examples\Dhrystone_RISCV/riscv_hal/entry.S:100
  SREG x23, 22 * REGBYTES(sp)
80000090:	05712c23          	sw	s7,88(sp)
C:\Microsemi\SoftConsole_v5.3.0.30-20180629-171539\extras\workspace.examples\Dhrystone_RISCV/riscv_hal/entry.S:101
  SREG x24, 23 * REGBYTES(sp)
80000094:	05812e23          	sw	s8,92(sp)
C:\Microsemi\SoftConsole_v5.3.0.30-20180629-171539\extras\workspace.examples\Dhrystone_RISCV/riscv_hal/entry.S:102
  SREG x25, 24 * REGBYTES(sp)
80000098:	07912023          	sw	s9,96(sp)
C:\Microsemi\SoftConsole_v5.3.0.30-20180629-171539\extras\workspace.examples\Dhrystone_RISCV/riscv_hal/entry.S:103
  SREG x26, 25 * REGBYTES(sp)
8000009c:	07a12223          	sw	s10,100(sp)
C:\Microsemi\SoftConsole_v5.3.0.30-20180629-171539\extras\workspace.examples\Dhrystone_RISCV/riscv_hal/entry.S:104
  SREG x27, 26 * REGBYTES(sp)
800000a0:	07b12423          	sw	s11,104(sp)
C:\Microsemi\SoftConsole_v5.3.0.30-20180629-171539\extras\workspace.examples\Dhrystone_RISCV/riscv_hal/entry.S:105
  SREG x28, 27 * REGBYTES(sp)
800000a4:	07c12623          	sw	t3,108(sp)
C:\Microsemi\SoftConsole_v5.3.0.30-20180629-171539\extras\workspace.examples\Dhrystone_RISCV/riscv_hal/entry.S:106
  SREG x29, 28 * REGBYTES(sp)
800000a8:	07d12823          	sw	t4,112(sp)
C:\Microsemi\SoftConsole_v5.3.0.30-20180629-171539\extras\workspace.examples\Dhrystone_RISCV/riscv_hal/entry.S:107
  SREG x30, 29 * REGBYTES(sp)
800000ac:	07e12a23          	sw	t5,116(sp)
C:\Microsemi\SoftConsole_v5.3.0.30-20180629-171539\extras\workspace.examples\Dhrystone_RISCV/riscv_hal/entry.S:108
  SREG x31, 30 * REGBYTES(sp)
800000b0:	07f12c23          	sw	t6,120(sp)
C:\Microsemi\SoftConsole_v5.3.0.30-20180629-171539\extras\workspace.examples\Dhrystone_RISCV/riscv_hal/entry.S:111


  csrr t0, mepc
800000b4:	341022f3          	csrr	t0,mepc
C:\Microsemi\SoftConsole_v5.3.0.30-20180629-171539\extras\workspace.examples\Dhrystone_RISCV/riscv_hal/entry.S:112
  SREG t0, 31 * REGBYTES(sp)
800000b8:	06512e23          	sw	t0,124(sp)
C:\Microsemi\SoftConsole_v5.3.0.30-20180629-171539\extras\workspace.examples\Dhrystone_RISCV/riscv_hal/entry.S:114

  csrr a0, mcause
800000bc:	34202573          	csrr	a0,mcause
C:\Microsemi\SoftConsole_v5.3.0.30-20180629-171539\extras\workspace.examples\Dhrystone_RISCV/riscv_hal/entry.S:115
  csrr a1, mepc
800000c0:	341025f3          	csrr	a1,mepc
C:\Microsemi\SoftConsole_v5.3.0.30-20180629-171539\extras\workspace.examples\Dhrystone_RISCV/riscv_hal/entry.S:116
  mv a2, sp
800000c4:	00010613          	mv	a2,sp
C:\Microsemi\SoftConsole_v5.3.0.30-20180629-171539\extras\workspace.examples\Dhrystone_RISCV/riscv_hal/entry.S:117
  jal handle_trap
800000c8:	72c030ef          	jal	ra,800037f4 <handle_trap>
C:\Microsemi\SoftConsole_v5.3.0.30-20180629-171539\extras\workspace.examples\Dhrystone_RISCV/riscv_hal/entry.S:118
  csrw mepc, a0
800000cc:	34151073          	csrw	mepc,a0
C:\Microsemi\SoftConsole_v5.3.0.30-20180629-171539\extras\workspace.examples\Dhrystone_RISCV/riscv_hal/entry.S:121

  # Remain in M-mode after mret
  li t0, MSTATUS_MPP
800000d0:	000022b7          	lui	t0,0x2
800000d4:	80028293          	addi	t0,t0,-2048 # 1800 <HEAP_SIZE+0x1000>
C:\Microsemi\SoftConsole_v5.3.0.30-20180629-171539\extras\workspace.examples\Dhrystone_RISCV/riscv_hal/entry.S:122
  csrs mstatus, t0
800000d8:	3002a073          	csrs	mstatus,t0
C:\Microsemi\SoftConsole_v5.3.0.30-20180629-171539\extras\workspace.examples\Dhrystone_RISCV/riscv_hal/entry.S:124

  LREG x1, 0 * REGBYTES(sp)
800000dc:	00012083          	lw	ra,0(sp)
C:\Microsemi\SoftConsole_v5.3.0.30-20180629-171539\extras\workspace.examples\Dhrystone_RISCV/riscv_hal/entry.S:125
  LREG x2, 1 * REGBYTES(sp)
800000e0:	00412103          	lw	sp,4(sp)
C:\Microsemi\SoftConsole_v5.3.0.30-20180629-171539\extras\workspace.examples\Dhrystone_RISCV/riscv_hal/entry.S:126
  LREG x3, 2 * REGBYTES(sp)
800000e4:	00812183          	lw	gp,8(sp)
C:\Microsemi\SoftConsole_v5.3.0.30-20180629-171539\extras\workspace.examples\Dhrystone_RISCV/riscv_hal/entry.S:127
  LREG x4, 3 * REGBYTES(sp)
800000e8:	00c12203          	lw	tp,12(sp)
C:\Microsemi\SoftConsole_v5.3.0.30-20180629-171539\extras\workspace.examples\Dhrystone_RISCV/riscv_hal/entry.S:128
  LREG x5, 4 * REGBYTES(sp)
800000ec:	01012283          	lw	t0,16(sp)
C:\Microsemi\SoftConsole_v5.3.0.30-20180629-171539\extras\workspace.examples\Dhrystone_RISCV/riscv_hal/entry.S:129
  LREG x6, 5 * REGBYTES(sp)
800000f0:	01412303          	lw	t1,20(sp)
C:\Microsemi\SoftConsole_v5.3.0.30-20180629-171539\extras\workspace.examples\Dhrystone_RISCV/riscv_hal/entry.S:130
  LREG x7, 6 * REGBYTES(sp)
800000f4:	01812383          	lw	t2,24(sp)
C:\Microsemi\SoftConsole_v5.3.0.30-20180629-171539\extras\workspace.examples\Dhrystone_RISCV/riscv_hal/entry.S:131
  LREG x8, 7 * REGBYTES(sp)
800000f8:	01c12403          	lw	s0,28(sp)
C:\Microsemi\SoftConsole_v5.3.0.30-20180629-171539\extras\workspace.examples\Dhrystone_RISCV/riscv_hal/entry.S:132
  LREG x9, 8 * REGBYTES(sp)
800000fc:	02012483          	lw	s1,32(sp)
C:\Microsemi\SoftConsole_v5.3.0.30-20180629-171539\extras\workspace.examples\Dhrystone_RISCV/riscv_hal/entry.S:133
  LREG x10, 9 * REGBYTES(sp)
80000100:	02412503          	lw	a0,36(sp)
C:\Microsemi\SoftConsole_v5.3.0.30-20180629-171539\extras\workspace.examples\Dhrystone_RISCV/riscv_hal/entry.S:134
  LREG x11, 10 * REGBYTES(sp)
80000104:	02812583          	lw	a1,40(sp)
C:\Microsemi\SoftConsole_v5.3.0.30-20180629-171539\extras\workspace.examples\Dhrystone_RISCV/riscv_hal/entry.S:135
  LREG x12, 11 * REGBYTES(sp)
80000108:	02c12603          	lw	a2,44(sp)
C:\Microsemi\SoftConsole_v5.3.0.30-20180629-171539\extras\workspace.examples\Dhrystone_RISCV/riscv_hal/entry.S:136
  LREG x13, 12 * REGBYTES(sp)
8000010c:	03012683          	lw	a3,48(sp)
C:\Microsemi\SoftConsole_v5.3.0.30-20180629-171539\extras\workspace.examples\Dhrystone_RISCV/riscv_hal/entry.S:137
  LREG x14, 13 * REGBYTES(sp)
80000110:	03412703          	lw	a4,52(sp)
C:\Microsemi\SoftConsole_v5.3.0.30-20180629-171539\extras\workspace.examples\Dhrystone_RISCV/riscv_hal/entry.S:138
  LREG x15, 14 * REGBYTES(sp)
80000114:	03812783          	lw	a5,56(sp)
C:\Microsemi\SoftConsole_v5.3.0.30-20180629-171539\extras\workspace.examples\Dhrystone_RISCV/riscv_hal/entry.S:139
  LREG x16, 15 * REGBYTES(sp)
80000118:	03c12803          	lw	a6,60(sp)
C:\Microsemi\SoftConsole_v5.3.0.30-20180629-171539\extras\workspace.examples\Dhrystone_RISCV/riscv_hal/entry.S:140
  LREG x17, 16 * REGBYTES(sp)
8000011c:	04012883          	lw	a7,64(sp)
C:\Microsemi\SoftConsole_v5.3.0.30-20180629-171539\extras\workspace.examples\Dhrystone_RISCV/riscv_hal/entry.S:141
  LREG x18, 17 * REGBYTES(sp)
80000120:	04412903          	lw	s2,68(sp)
C:\Microsemi\SoftConsole_v5.3.0.30-20180629-171539\extras\workspace.examples\Dhrystone_RISCV/riscv_hal/entry.S:142
  LREG x19, 18 * REGBYTES(sp)
80000124:	04812983          	lw	s3,72(sp)
C:\Microsemi\SoftConsole_v5.3.0.30-20180629-171539\extras\workspace.examples\Dhrystone_RISCV/riscv_hal/entry.S:143
  LREG x20, 19 * REGBYTES(sp)
80000128:	04c12a03          	lw	s4,76(sp)
C:\Microsemi\SoftConsole_v5.3.0.30-20180629-171539\extras\workspace.examples\Dhrystone_RISCV/riscv_hal/entry.S:144
  LREG x21, 20 * REGBYTES(sp)
8000012c:	05012a83          	lw	s5,80(sp)
C:\Microsemi\SoftConsole_v5.3.0.30-20180629-171539\extras\workspace.examples\Dhrystone_RISCV/riscv_hal/entry.S:145
  LREG x22, 21 * REGBYTES(sp)
80000130:	05412b03          	lw	s6,84(sp)
C:\Microsemi\SoftConsole_v5.3.0.30-20180629-171539\extras\workspace.examples\Dhrystone_RISCV/riscv_hal/entry.S:146
  LREG x23, 22 * REGBYTES(sp)
80000134:	05812b83          	lw	s7,88(sp)
C:\Microsemi\SoftConsole_v5.3.0.30-20180629-171539\extras\workspace.examples\Dhrystone_RISCV/riscv_hal/entry.S:147
  LREG x24, 23 * REGBYTES(sp)
80000138:	05c12c03          	lw	s8,92(sp)
C:\Microsemi\SoftConsole_v5.3.0.30-20180629-171539\extras\workspace.examples\Dhrystone_RISCV/riscv_hal/entry.S:148
  LREG x25, 24 * REGBYTES(sp)
8000013c:	06012c83          	lw	s9,96(sp)
C:\Microsemi\SoftConsole_v5.3.0.30-20180629-171539\extras\workspace.examples\Dhrystone_RISCV/riscv_hal/entry.S:149
  LREG x26, 25 * REGBYTES(sp)
80000140:	06412d03          	lw	s10,100(sp)
C:\Microsemi\SoftConsole_v5.3.0.30-20180629-171539\extras\workspace.examples\Dhrystone_RISCV/riscv_hal/entry.S:150
  LREG x27, 26 * REGBYTES(sp)
80000144:	06812d83          	lw	s11,104(sp)
C:\Microsemi\SoftConsole_v5.3.0.30-20180629-171539\extras\workspace.examples\Dhrystone_RISCV/riscv_hal/entry.S:151
  LREG x28, 27 * REGBYTES(sp)
80000148:	06c12e03          	lw	t3,108(sp)
C:\Microsemi\SoftConsole_v5.3.0.30-20180629-171539\extras\workspace.examples\Dhrystone_RISCV/riscv_hal/entry.S:152
  LREG x29, 28 * REGBYTES(sp)
8000014c:	07012e83          	lw	t4,112(sp)
C:\Microsemi\SoftConsole_v5.3.0.30-20180629-171539\extras\workspace.examples\Dhrystone_RISCV/riscv_hal/entry.S:153
  LREG x30, 29 * REGBYTES(sp)
80000150:	07412f03          	lw	t5,116(sp)
C:\Microsemi\SoftConsole_v5.3.0.30-20180629-171539\extras\workspace.examples\Dhrystone_RISCV/riscv_hal/entry.S:154
  LREG x31, 30 * REGBYTES(sp)
80000154:	07812f83          	lw	t6,120(sp)
C:\Microsemi\SoftConsole_v5.3.0.30-20180629-171539\extras\workspace.examples\Dhrystone_RISCV/riscv_hal/entry.S:156

  addi sp, sp, 32*REGBYTES
80000158:	08010113          	addi	sp,sp,128
C:\Microsemi\SoftConsole_v5.3.0.30-20180629-171539\extras\workspace.examples\Dhrystone_RISCV/riscv_hal/entry.S:157
  mret
8000015c:	30200073          	mret

80000160 <copy_section>:
copy_section():
C:\Microsemi\SoftConsole_v5.3.0.30-20180629-171539\extras\workspace.examples\Dhrystone_RISCV/riscv_hal/init.c:37
extern uint32_t     __bss_start;
extern uint32_t     __bss_end;


static void copy_section(uint32_t * p_load, uint32_t * p_vma, uint32_t * p_vma_end)
{
80000160:	fe010113          	addi	sp,sp,-32
80000164:	00812e23          	sw	s0,28(sp)
80000168:	02010413          	addi	s0,sp,32
8000016c:	fea42623          	sw	a0,-20(s0)
80000170:	feb42423          	sw	a1,-24(s0)
80000174:	fec42223          	sw	a2,-28(s0)
C:\Microsemi\SoftConsole_v5.3.0.30-20180629-171539\extras\workspace.examples\Dhrystone_RISCV/riscv_hal/init.c:38
    while(p_vma <= p_vma_end)
80000178:	02c0006f          	j	800001a4 <copy_section+0x44>
C:\Microsemi\SoftConsole_v5.3.0.30-20180629-171539\extras\workspace.examples\Dhrystone_RISCV/riscv_hal/init.c:40
    {
        *p_vma = *p_load;
8000017c:	fec42783          	lw	a5,-20(s0)
80000180:	0007a703          	lw	a4,0(a5)
80000184:	fe842783          	lw	a5,-24(s0)
80000188:	00e7a023          	sw	a4,0(a5)
C:\Microsemi\SoftConsole_v5.3.0.30-20180629-171539\extras\workspace.examples\Dhrystone_RISCV/riscv_hal/init.c:41
        ++p_load;
8000018c:	fec42783          	lw	a5,-20(s0)
80000190:	00478793          	addi	a5,a5,4
80000194:	fef42623          	sw	a5,-20(s0)
C:\Microsemi\SoftConsole_v5.3.0.30-20180629-171539\extras\workspace.examples\Dhrystone_RISCV/riscv_hal/init.c:42
        ++p_vma;
80000198:	fe842783          	lw	a5,-24(s0)
8000019c:	00478793          	addi	a5,a5,4
800001a0:	fef42423          	sw	a5,-24(s0)
C:\Microsemi\SoftConsole_v5.3.0.30-20180629-171539\extras\workspace.examples\Dhrystone_RISCV/riscv_hal/init.c:38
    while(p_vma <= p_vma_end)
800001a4:	fe842703          	lw	a4,-24(s0)
800001a8:	fe442783          	lw	a5,-28(s0)
800001ac:	fce7f8e3          	bleu	a4,a5,8000017c <copy_section+0x1c>
C:\Microsemi\SoftConsole_v5.3.0.30-20180629-171539\extras\workspace.examples\Dhrystone_RISCV/riscv_hal/init.c:44
    }
}
800001b0:	00000013          	nop
800001b4:	01c12403          	lw	s0,28(sp)
800001b8:	02010113          	addi	sp,sp,32
800001bc:	00008067          	ret

800001c0 <zero_section>:
zero_section():
C:\Microsemi\SoftConsole_v5.3.0.30-20180629-171539\extras\workspace.examples\Dhrystone_RISCV/riscv_hal/init.c:47

static void zero_section(uint32_t * start, uint32_t * end)
{
800001c0:	fd010113          	addi	sp,sp,-48
800001c4:	02812623          	sw	s0,44(sp)
800001c8:	03010413          	addi	s0,sp,48
800001cc:	fca42e23          	sw	a0,-36(s0)
800001d0:	fcb42c23          	sw	a1,-40(s0)
C:\Microsemi\SoftConsole_v5.3.0.30-20180629-171539\extras\workspace.examples\Dhrystone_RISCV/riscv_hal/init.c:48
    uint32_t * p_zero = start;
800001d4:	fdc42783          	lw	a5,-36(s0)
800001d8:	fef42623          	sw	a5,-20(s0)
C:\Microsemi\SoftConsole_v5.3.0.30-20180629-171539\extras\workspace.examples\Dhrystone_RISCV/riscv_hal/init.c:50
    
    while(p_zero <= end)
800001dc:	0180006f          	j	800001f4 <zero_section+0x34>
C:\Microsemi\SoftConsole_v5.3.0.30-20180629-171539\extras\workspace.examples\Dhrystone_RISCV/riscv_hal/init.c:52
    {
        *p_zero = 0;
800001e0:	fec42783          	lw	a5,-20(s0)
800001e4:	0007a023          	sw	zero,0(a5)
C:\Microsemi\SoftConsole_v5.3.0.30-20180629-171539\extras\workspace.examples\Dhrystone_RISCV/riscv_hal/init.c:53
        ++p_zero;
800001e8:	fec42783          	lw	a5,-20(s0)
800001ec:	00478793          	addi	a5,a5,4
800001f0:	fef42623          	sw	a5,-20(s0)
C:\Microsemi\SoftConsole_v5.3.0.30-20180629-171539\extras\workspace.examples\Dhrystone_RISCV/riscv_hal/init.c:50
    while(p_zero <= end)
800001f4:	fec42703          	lw	a4,-20(s0)
800001f8:	fd842783          	lw	a5,-40(s0)
800001fc:	fee7f2e3          	bleu	a4,a5,800001e0 <zero_section+0x20>
C:\Microsemi\SoftConsole_v5.3.0.30-20180629-171539\extras\workspace.examples\Dhrystone_RISCV/riscv_hal/init.c:55
    }
}
80000200:	00000013          	nop
80000204:	02c12403          	lw	s0,44(sp)
80000208:	03010113          	addi	sp,sp,48
8000020c:	00008067          	ret

80000210 <_init>:
_init():
C:\Microsemi\SoftConsole_v5.3.0.30-20180629-171539\extras\workspace.examples\Dhrystone_RISCV/riscv_hal/init.c:58

void _init(void)
{
80000210:	fe010113          	addi	sp,sp,-32
80000214:	00112e23          	sw	ra,28(sp)
80000218:	00812c23          	sw	s0,24(sp)
8000021c:	02010413          	addi	s0,sp,32
C:\Microsemi\SoftConsole_v5.3.0.30-20180629-171539\extras\workspace.examples\Dhrystone_RISCV/riscv_hal/init.c:60
    extern int main(int, char**);
    const char *argv0 = "hello";
80000220:	800067b7          	lui	a5,0x80006
80000224:	3d078793          	addi	a5,a5,976 # 800063d0 <__stack_top+0xffffb900>
80000228:	fef42623          	sw	a5,-20(s0)
C:\Microsemi\SoftConsole_v5.3.0.30-20180629-171539\extras\workspace.examples\Dhrystone_RISCV/riscv_hal/init.c:61
    char *argv[] = {(char *)argv0, NULL, NULL};
8000022c:	fec42783          	lw	a5,-20(s0)
80000230:	fef42023          	sw	a5,-32(s0)
80000234:	fe042223          	sw	zero,-28(s0)
80000238:	fe042423          	sw	zero,-24(s0)
C:\Microsemi\SoftConsole_v5.3.0.30-20180629-171539\extras\workspace.examples\Dhrystone_RISCV/riscv_hal/init.c:63

    copy_section(&__sdata_load, &__sdata_start, &__sdata_end);
8000023c:	81018613          	addi	a2,gp,-2032 # 80006df0 <__data_load>
80000240:	800077b7          	lui	a5,0x80007
80000244:	de078593          	addi	a1,a5,-544 # 80006de0 <__stack_top+0xffffc310>
80000248:	800077b7          	lui	a5,0x80007
8000024c:	de078513          	addi	a0,a5,-544 # 80006de0 <__stack_top+0xffffc310>
80000250:	f11ff0ef          	jal	ra,80000160 <copy_section>
C:\Microsemi\SoftConsole_v5.3.0.30-20180629-171539\extras\workspace.examples\Dhrystone_RISCV/riscv_hal/init.c:64
    copy_section(&__data_load, &__data_start, &__data_end);
80000254:	cc018613          	addi	a2,gp,-832 # 800072a0 <__data_end>
80000258:	81018593          	addi	a1,gp,-2032 # 80006df0 <__data_load>
8000025c:	81018513          	addi	a0,gp,-2032 # 80006df0 <__data_load>
80000260:	f01ff0ef          	jal	ra,80000160 <copy_section>
C:\Microsemi\SoftConsole_v5.3.0.30-20180629-171539\extras\workspace.examples\Dhrystone_RISCV/riscv_hal/init.c:65
    zero_section(&__sbss_start, &__sbss_end);
80000264:	d0018593          	addi	a1,gp,-768 # 800072e0 <__sbss_end>
80000268:	cc018513          	addi	a0,gp,-832 # 800072a0 <__data_end>
8000026c:	f55ff0ef          	jal	ra,800001c0 <zero_section>
C:\Microsemi\SoftConsole_v5.3.0.30-20180629-171539\extras\workspace.examples\Dhrystone_RISCV/riscv_hal/init.c:66
    zero_section(&__bss_start, &__bss_end);
80000270:	8000a7b7          	lui	a5,0x8000a
80000274:	ad078593          	addi	a1,a5,-1328 # 80009ad0 <__stack_top+0xfffff000>
80000278:	d0018513          	addi	a0,gp,-768 # 800072e0 <__sbss_end>
8000027c:	f45ff0ef          	jal	ra,800001c0 <zero_section>
C:\Microsemi\SoftConsole_v5.3.0.30-20180629-171539\extras\workspace.examples\Dhrystone_RISCV/riscv_hal/init.c:68
    
    main(1, argv);
80000280:	fe040793          	addi	a5,s0,-32
80000284:	00078593          	mv	a1,a5
80000288:	00100513          	li	a0,1
8000028c:	034000ef          	jal	ra,800002c0 <main>
C:\Microsemi\SoftConsole_v5.3.0.30-20180629-171539\extras\workspace.examples\Dhrystone_RISCV/riscv_hal/init.c:69
}
80000290:	00000013          	nop
80000294:	01c12083          	lw	ra,28(sp)
80000298:	01812403          	lw	s0,24(sp)
8000029c:	02010113          	addi	sp,sp,32
800002a0:	00008067          	ret

800002a4 <_fini>:
_fini():
C:\Microsemi\SoftConsole_v5.3.0.30-20180629-171539\extras\workspace.examples\Dhrystone_RISCV/riscv_hal/init.c:74

/* Function called after main() finishes */
void
_fini()
{
800002a4:	ff010113          	addi	sp,sp,-16
800002a8:	00812623          	sw	s0,12(sp)
800002ac:	01010413          	addi	s0,sp,16
C:\Microsemi\SoftConsole_v5.3.0.30-20180629-171539\extras\workspace.examples\Dhrystone_RISCV/riscv_hal/init.c:75
}
800002b0:	00000013          	nop
800002b4:	00c12403          	lw	s0,12(sp)
800002b8:	01010113          	addi	sp,sp,16
800002bc:	00008067          	ret

800002c0 <main>:
main():
C:\Microsemi\SoftConsole_v5.3.0.30-20180629-171539\extras\workspace.examples\Dhrystone_RISCV/dhry_1.c:74
main ()
/*****/

  /* main program, corresponds to procedures        */
  /* Main and Proc_0 in the Ada version             */
{
800002c0:	f8010113          	addi	sp,sp,-128
800002c4:	06112e23          	sw	ra,124(sp)
800002c8:	06812c23          	sw	s0,120(sp)
800002cc:	06912a23          	sw	s1,116(sp)
800002d0:	07212823          	sw	s2,112(sp)
800002d4:	07312623          	sw	s3,108(sp)
800002d8:	08010413          	addi	s0,sp,128
C:\Microsemi\SoftConsole_v5.3.0.30-20180629-171539\extras\workspace.examples\Dhrystone_RISCV/dhry_1.c:87
  REG   int             Run_Index;
  REG   int             Number_Of_Runs;

  /* Initializations */

  Next_Ptr_Glob = (Rec_Pointer) malloc (sizeof (Rec_Type));
800002dc:	03000513          	li	a0,48
800002e0:	0d0010ef          	jal	ra,800013b0 <malloc>
800002e4:	00050713          	mv	a4,a0
800002e8:	cce1a223          	sw	a4,-828(gp) # 800072a4 <Next_Ptr_Glob>
C:\Microsemi\SoftConsole_v5.3.0.30-20180629-171539\extras\workspace.examples\Dhrystone_RISCV/dhry_1.c:88
  Ptr_Glob = (Rec_Pointer) malloc (sizeof (Rec_Type));
800002ec:	03000513          	li	a0,48
800002f0:	0c0010ef          	jal	ra,800013b0 <malloc>
800002f4:	00050713          	mv	a4,a0
800002f8:	cce1a023          	sw	a4,-832(gp) # 800072a0 <__data_end>
C:\Microsemi\SoftConsole_v5.3.0.30-20180629-171539\extras\workspace.examples\Dhrystone_RISCV/dhry_1.c:90

  Ptr_Glob->Ptr_Comp                    = Next_Ptr_Glob;
800002fc:	cc01a783          	lw	a5,-832(gp) # 800072a0 <__data_end>
80000300:	cc41a703          	lw	a4,-828(gp) # 800072a4 <Next_Ptr_Glob>
80000304:	00e7a023          	sw	a4,0(a5)
C:\Microsemi\SoftConsole_v5.3.0.30-20180629-171539\extras\workspace.examples\Dhrystone_RISCV/dhry_1.c:91
  Ptr_Glob->Discr                       = Ident_1;
80000308:	cc01a783          	lw	a5,-832(gp) # 800072a0 <__data_end>
8000030c:	0007a223          	sw	zero,4(a5)
C:\Microsemi\SoftConsole_v5.3.0.30-20180629-171539\extras\workspace.examples\Dhrystone_RISCV/dhry_1.c:92
  Ptr_Glob->variant.var_1.Enum_Comp     = Ident_3;
80000310:	cc01a783          	lw	a5,-832(gp) # 800072a0 <__data_end>
80000314:	00200713          	li	a4,2
80000318:	00e7a423          	sw	a4,8(a5)
C:\Microsemi\SoftConsole_v5.3.0.30-20180629-171539\extras\workspace.examples\Dhrystone_RISCV/dhry_1.c:93
  Ptr_Glob->variant.var_1.Int_Comp      = 40;
8000031c:	cc01a783          	lw	a5,-832(gp) # 800072a0 <__data_end>
80000320:	02800713          	li	a4,40
80000324:	00e7a623          	sw	a4,12(a5)
C:\Microsemi\SoftConsole_v5.3.0.30-20180629-171539\extras\workspace.examples\Dhrystone_RISCV/dhry_1.c:94
  strcpy (Ptr_Glob->variant.var_1.Str_Comp, 
80000328:	cc01a783          	lw	a5,-832(gp) # 800072a0 <__data_end>
8000032c:	01078713          	addi	a4,a5,16
80000330:	800067b7          	lui	a5,0x80006
80000334:	00070693          	mv	a3,a4
80000338:	3d878793          	addi	a5,a5,984 # 800063d8 <__stack_top+0xffffb908>
8000033c:	01f00713          	li	a4,31
80000340:	00070613          	mv	a2,a4
80000344:	00078593          	mv	a1,a5
80000348:	00068513          	mv	a0,a3
8000034c:	1d9030ef          	jal	ra,80003d24 <memcpy>
C:\Microsemi\SoftConsole_v5.3.0.30-20180629-171539\extras\workspace.examples\Dhrystone_RISCV/dhry_1.c:96
          "DHRYSTONE PROGRAM, SOME STRING");
  strcpy (Str_1_Loc, "DHRYSTONE PROGRAM, 1'ST STRING");
80000350:	800067b7          	lui	a5,0x80006
80000354:	3f87a883          	lw	a7,1016(a5) # 800063f8 <__stack_top+0xffffb928>
80000358:	3f878713          	addi	a4,a5,1016
8000035c:	00472803          	lw	a6,4(a4)
80000360:	3f878713          	addi	a4,a5,1016
80000364:	00872503          	lw	a0,8(a4)
80000368:	3f878713          	addi	a4,a5,1016
8000036c:	00c72583          	lw	a1,12(a4)
80000370:	3f878713          	addi	a4,a5,1016
80000374:	01072603          	lw	a2,16(a4)
80000378:	3f878713          	addi	a4,a5,1016
8000037c:	01472683          	lw	a3,20(a4)
80000380:	3f878713          	addi	a4,a5,1016
80000384:	01872703          	lw	a4,24(a4)
80000388:	fb142223          	sw	a7,-92(s0)
8000038c:	fb042423          	sw	a6,-88(s0)
80000390:	faa42623          	sw	a0,-84(s0)
80000394:	fab42823          	sw	a1,-80(s0)
80000398:	fac42a23          	sw	a2,-76(s0)
8000039c:	fad42c23          	sw	a3,-72(s0)
800003a0:	fae42e23          	sw	a4,-68(s0)
800003a4:	3f878793          	addi	a5,a5,1016
800003a8:	01c7d703          	lhu	a4,28(a5)
800003ac:	fce41023          	sh	a4,-64(s0)
800003b0:	01e7c783          	lbu	a5,30(a5)
800003b4:	fcf40123          	sb	a5,-62(s0)
C:\Microsemi\SoftConsole_v5.3.0.30-20180629-171539\extras\workspace.examples\Dhrystone_RISCV/dhry_1.c:98

  Arr_2_Glob [8][7] = 10;
800003b8:	800077b7          	lui	a5,0x80007
800003bc:	3a878793          	addi	a5,a5,936 # 800073a8 <__stack_top+0xffffc8d8>
800003c0:	00a00713          	li	a4,10
800003c4:	64e7ae23          	sw	a4,1628(a5)
C:\Microsemi\SoftConsole_v5.3.0.30-20180629-171539\extras\workspace.examples\Dhrystone_RISCV/dhry_1.c:104
        /* Was missing in published program. Without this statement,    */
        /* Arr_2_Glob [8][7] would have an undefined value.             */
        /* Warning: With 16-Bit processors and Number_Of_Runs > 32000,  */
        /* overflow may occur for this array element.                   */

  printf ("\n");
800003c8:	800067b7          	lui	a5,0x80006
800003cc:	41878513          	addi	a0,a5,1048 # 80006418 <__stack_top+0xffffb948>
800003d0:	1fd010ef          	jal	ra,80001dcc <printf>
C:\Microsemi\SoftConsole_v5.3.0.30-20180629-171539\extras\workspace.examples\Dhrystone_RISCV/dhry_1.c:105
  printf ("Dhrystone Benchmark, Version 2.1 (Language: C)\n");
800003d4:	800067b7          	lui	a5,0x80006
800003d8:	41c78513          	addi	a0,a5,1052 # 8000641c <__stack_top+0xffffb94c>
800003dc:	1f1010ef          	jal	ra,80001dcc <printf>
C:\Microsemi\SoftConsole_v5.3.0.30-20180629-171539\extras\workspace.examples\Dhrystone_RISCV/dhry_1.c:106
  printf ("\n");
800003e0:	800067b7          	lui	a5,0x80006
800003e4:	41878513          	addi	a0,a5,1048 # 80006418 <__stack_top+0xffffb948>
800003e8:	1e5010ef          	jal	ra,80001dcc <printf>
C:\Microsemi\SoftConsole_v5.3.0.30-20180629-171539\extras\workspace.examples\Dhrystone_RISCV/dhry_1.c:107
  if (Reg)
800003ec:	cd41a783          	lw	a5,-812(gp) # 800072b4 <Reg>
800003f0:	02078063          	beqz	a5,80000410 <main+0x150>
C:\Microsemi\SoftConsole_v5.3.0.30-20180629-171539\extras\workspace.examples\Dhrystone_RISCV/dhry_1.c:109
  {
    printf ("Program compiled with 'register' attribute\n");
800003f4:	800067b7          	lui	a5,0x80006
800003f8:	44c78513          	addi	a0,a5,1100 # 8000644c <__stack_top+0xffffb97c>
800003fc:	1d1010ef          	jal	ra,80001dcc <printf>
C:\Microsemi\SoftConsole_v5.3.0.30-20180629-171539\extras\workspace.examples\Dhrystone_RISCV/dhry_1.c:110
    printf ("\n");
80000400:	800067b7          	lui	a5,0x80006
80000404:	41878513          	addi	a0,a5,1048 # 80006418 <__stack_top+0xffffb948>
80000408:	1c5010ef          	jal	ra,80001dcc <printf>
8000040c:	01c0006f          	j	80000428 <main+0x168>
C:\Microsemi\SoftConsole_v5.3.0.30-20180629-171539\extras\workspace.examples\Dhrystone_RISCV/dhry_1.c:114
  }
  else
  {
    printf ("Program compiled without 'register' attribute\n");
80000410:	800067b7          	lui	a5,0x80006
80000414:	47878513          	addi	a0,a5,1144 # 80006478 <__stack_top+0xffffb9a8>
80000418:	1b5010ef          	jal	ra,80001dcc <printf>
C:\Microsemi\SoftConsole_v5.3.0.30-20180629-171539\extras\workspace.examples\Dhrystone_RISCV/dhry_1.c:115
    printf ("\n");
8000041c:	800067b7          	lui	a5,0x80006
80000420:	41878513          	addi	a0,a5,1048 # 80006418 <__stack_top+0xffffb948>
80000424:	1a9010ef          	jal	ra,80001dcc <printf>
C:\Microsemi\SoftConsole_v5.3.0.30-20180629-171539\extras\workspace.examples\Dhrystone_RISCV/dhry_1.c:117
  }
  printf ("Please give the number of runs through the benchmark: ");
80000428:	800067b7          	lui	a5,0x80006
8000042c:	4a878513          	addi	a0,a5,1192 # 800064a8 <__stack_top+0xffffb9d8>
80000430:	19d010ef          	jal	ra,80001dcc <printf>
C:\Microsemi\SoftConsole_v5.3.0.30-20180629-171539\extras\workspace.examples\Dhrystone_RISCV/dhry_1.c:120
  {
    int n;
    scanf ("%d", &n);
80000434:	f8040793          	addi	a5,s0,-128
80000438:	00078593          	mv	a1,a5
8000043c:	800067b7          	lui	a5,0x80006
80000440:	4e078513          	addi	a0,a5,1248 # 800064e0 <__stack_top+0xffffba10>
80000444:	739000ef          	jal	ra,8000137c <scanf>
C:\Microsemi\SoftConsole_v5.3.0.30-20180629-171539\extras\workspace.examples\Dhrystone_RISCV/dhry_1.c:121
    Number_Of_Runs = n;
80000448:	f8042783          	lw	a5,-128(s0)
8000044c:	fcf42823          	sw	a5,-48(s0)
C:\Microsemi\SoftConsole_v5.3.0.30-20180629-171539\extras\workspace.examples\Dhrystone_RISCV/dhry_1.c:123
  }
  printf ("\n");
80000450:	800067b7          	lui	a5,0x80006
80000454:	41878513          	addi	a0,a5,1048 # 80006418 <__stack_top+0xffffb948>
80000458:	175010ef          	jal	ra,80001dcc <printf>
C:\Microsemi\SoftConsole_v5.3.0.30-20180629-171539\extras\workspace.examples\Dhrystone_RISCV/dhry_1.c:125

  printf ("Execution starts, %d runs through Dhrystone\n", Number_Of_Runs);
8000045c:	fd042583          	lw	a1,-48(s0)
80000460:	800067b7          	lui	a5,0x80006
80000464:	4e478513          	addi	a0,a5,1252 # 800064e4 <__stack_top+0xffffba14>
80000468:	165010ef          	jal	ra,80001dcc <printf>
C:\Microsemi\SoftConsole_v5.3.0.30-20180629-171539\extras\workspace.examples\Dhrystone_RISCV/dhry_1.c:136
#ifdef TIMES
  times (&time_info);
  Begin_Time = (long) time_info.tms_utime;
#endif
#ifdef TIME
  Begin_Time = time ( (long *) 0);
8000046c:	00000513          	li	a0,0
80000470:	6d9000ef          	jal	ra,80001348 <time>
80000474:	00050713          	mv	a4,a0
80000478:	cce1ac23          	sw	a4,-808(gp) # 800072b8 <Begin_Time>
C:\Microsemi\SoftConsole_v5.3.0.30-20180629-171539\extras\workspace.examples\Dhrystone_RISCV/dhry_1.c:139
#endif

  for (Run_Index = 1; Run_Index <= Number_Of_Runs; ++Run_Index)
8000047c:	00100793          	li	a5,1
80000480:	fcf42a23          	sw	a5,-44(s0)
80000484:	2540006f          	j	800006d8 <main+0x418>
C:\Microsemi\SoftConsole_v5.3.0.30-20180629-171539\extras\workspace.examples\Dhrystone_RISCV/dhry_1.c:142
  {

    Proc_5();
80000488:	249000ef          	jal	ra,80000ed0 <Proc_5>
C:\Microsemi\SoftConsole_v5.3.0.30-20180629-171539\extras\workspace.examples\Dhrystone_RISCV/dhry_1.c:143
    Proc_4();
8000048c:	1f9000ef          	jal	ra,80000e84 <Proc_4>
C:\Microsemi\SoftConsole_v5.3.0.30-20180629-171539\extras\workspace.examples\Dhrystone_RISCV/dhry_1.c:145
      /* Ch_1_Glob == 'A', Ch_2_Glob == 'B', Bool_Glob == true */
    Int_1_Loc = 2;
80000490:	00200793          	li	a5,2
80000494:	fcf42623          	sw	a5,-52(s0)
C:\Microsemi\SoftConsole_v5.3.0.30-20180629-171539\extras\workspace.examples\Dhrystone_RISCV/dhry_1.c:146
    Int_2_Loc = 3;
80000498:	00300793          	li	a5,3
8000049c:	fcf42e23          	sw	a5,-36(s0)
C:\Microsemi\SoftConsole_v5.3.0.30-20180629-171539\extras\workspace.examples\Dhrystone_RISCV/dhry_1.c:147
    strcpy (Str_2_Loc, "DHRYSTONE PROGRAM, 2'ND STRING");
800004a0:	800067b7          	lui	a5,0x80006
800004a4:	5147a883          	lw	a7,1300(a5) # 80006514 <__stack_top+0xffffba44>
800004a8:	51478713          	addi	a4,a5,1300
800004ac:	00472803          	lw	a6,4(a4)
800004b0:	51478713          	addi	a4,a5,1300
800004b4:	00872503          	lw	a0,8(a4)
800004b8:	51478713          	addi	a4,a5,1300
800004bc:	00c72583          	lw	a1,12(a4)
800004c0:	51478713          	addi	a4,a5,1300
800004c4:	01072603          	lw	a2,16(a4)
800004c8:	51478713          	addi	a4,a5,1300
800004cc:	01472683          	lw	a3,20(a4)
800004d0:	51478713          	addi	a4,a5,1300
800004d4:	01872703          	lw	a4,24(a4)
800004d8:	f9142223          	sw	a7,-124(s0)
800004dc:	f9042423          	sw	a6,-120(s0)
800004e0:	f8a42623          	sw	a0,-116(s0)
800004e4:	f8b42823          	sw	a1,-112(s0)
800004e8:	f8c42a23          	sw	a2,-108(s0)
800004ec:	f8d42c23          	sw	a3,-104(s0)
800004f0:	f8e42e23          	sw	a4,-100(s0)
800004f4:	51478793          	addi	a5,a5,1300
800004f8:	01c7d703          	lhu	a4,28(a5)
800004fc:	fae41023          	sh	a4,-96(s0)
80000500:	01e7c783          	lbu	a5,30(a5)
80000504:	faf40123          	sb	a5,-94(s0)
C:\Microsemi\SoftConsole_v5.3.0.30-20180629-171539\extras\workspace.examples\Dhrystone_RISCV/dhry_1.c:148
    Enum_Loc = Ident_2;
80000508:	00100793          	li	a5,1
8000050c:	fcf42223          	sw	a5,-60(s0)
C:\Microsemi\SoftConsole_v5.3.0.30-20180629-171539\extras\workspace.examples\Dhrystone_RISCV/dhry_1.c:149
    Bool_Glob = ! Func_2 (Str_1_Loc, Str_2_Loc);
80000510:	f8440713          	addi	a4,s0,-124
80000514:	fa440793          	addi	a5,s0,-92
80000518:	00070593          	mv	a1,a4
8000051c:	00078513          	mv	a0,a5
80000520:	4ed000ef          	jal	ra,8000120c <Func_2>
80000524:	00050793          	mv	a5,a0
80000528:	0017b793          	seqz	a5,a5
8000052c:	0ff7f793          	andi	a5,a5,255
80000530:	00078713          	mv	a4,a5
80000534:	cce1a623          	sw	a4,-820(gp) # 800072ac <Bool_Glob>
C:\Microsemi\SoftConsole_v5.3.0.30-20180629-171539\extras\workspace.examples\Dhrystone_RISCV/dhry_1.c:151
      /* Bool_Glob == 1 */
    while (Int_1_Loc < Int_2_Loc)  /* loop body executed once */
80000538:	0440006f          	j	8000057c <main+0x2bc>
C:\Microsemi\SoftConsole_v5.3.0.30-20180629-171539\extras\workspace.examples\Dhrystone_RISCV/dhry_1.c:153
    {
      Int_3_Loc = 5 * Int_1_Loc - Int_2_Loc;
8000053c:	fcc42703          	lw	a4,-52(s0)
80000540:	00070793          	mv	a5,a4
80000544:	00279793          	slli	a5,a5,0x2
80000548:	00e78733          	add	a4,a5,a4
8000054c:	fdc42783          	lw	a5,-36(s0)
80000550:	40f707b3          	sub	a5,a4,a5
80000554:	fcf42423          	sw	a5,-56(s0)
C:\Microsemi\SoftConsole_v5.3.0.30-20180629-171539\extras\workspace.examples\Dhrystone_RISCV/dhry_1.c:155
        /* Int_3_Loc == 7 */
      Proc_7 (Int_1_Loc, Int_2_Loc, &Int_3_Loc);
80000558:	fcc42783          	lw	a5,-52(s0)
8000055c:	fc840713          	addi	a4,s0,-56
80000560:	00070613          	mv	a2,a4
80000564:	fdc42583          	lw	a1,-36(s0)
80000568:	00078513          	mv	a0,a5
8000056c:	269000ef          	jal	ra,80000fd4 <Proc_7>
C:\Microsemi\SoftConsole_v5.3.0.30-20180629-171539\extras\workspace.examples\Dhrystone_RISCV/dhry_1.c:157
        /* Int_3_Loc == 7 */
      Int_1_Loc += 1;
80000570:	fcc42783          	lw	a5,-52(s0)
80000574:	00178793          	addi	a5,a5,1
80000578:	fcf42623          	sw	a5,-52(s0)
C:\Microsemi\SoftConsole_v5.3.0.30-20180629-171539\extras\workspace.examples\Dhrystone_RISCV/dhry_1.c:151
    while (Int_1_Loc < Int_2_Loc)  /* loop body executed once */
8000057c:	fcc42783          	lw	a5,-52(s0)
80000580:	fdc42703          	lw	a4,-36(s0)
80000584:	fae7cce3          	blt	a5,a4,8000053c <main+0x27c>
C:\Microsemi\SoftConsole_v5.3.0.30-20180629-171539\extras\workspace.examples\Dhrystone_RISCV/dhry_1.c:160
    } /* while */
      /* Int_1_Loc == 3, Int_2_Loc == 3, Int_3_Loc == 7 */
    Proc_8 (Arr_1_Glob, Arr_2_Glob, Int_1_Loc, Int_3_Loc);
80000588:	fcc42783          	lw	a5,-52(s0)
8000058c:	fc842703          	lw	a4,-56(s0)
80000590:	00070693          	mv	a3,a4
80000594:	00078613          	mv	a2,a5
80000598:	800077b7          	lui	a5,0x80007
8000059c:	3a878593          	addi	a1,a5,936 # 800073a8 <__stack_top+0xffffc8d8>
800005a0:	d0018513          	addi	a0,gp,-768 # 800072e0 <__sbss_end>
800005a4:	27d000ef          	jal	ra,80001020 <Proc_8>
C:\Microsemi\SoftConsole_v5.3.0.30-20180629-171539\extras\workspace.examples\Dhrystone_RISCV/dhry_1.c:162
      /* Int_Glob == 5 */
    Proc_1 (Ptr_Glob);
800005a8:	cc01a783          	lw	a5,-832(gp) # 800072a0 <__data_end>
800005ac:	00078513          	mv	a0,a5
800005b0:	658000ef          	jal	ra,80000c08 <Proc_1>
C:\Microsemi\SoftConsole_v5.3.0.30-20180629-171539\extras\workspace.examples\Dhrystone_RISCV/dhry_1.c:163
    for (Ch_Index = 'A'; Ch_Index <= Ch_2_Glob; ++Ch_Index)
800005b4:	04100793          	li	a5,65
800005b8:	fcf40da3          	sb	a5,-37(s0)
800005bc:	0b40006f          	j	80000670 <main+0x3b0>
C:\Microsemi\SoftConsole_v5.3.0.30-20180629-171539\extras\workspace.examples\Dhrystone_RISCV/dhry_1.c:166
                             /* loop body executed twice */
    {
      if (Enum_Loc == Func_1 (Ch_Index, 'C'))
800005c0:	fdb44783          	lbu	a5,-37(s0)
800005c4:	04300593          	li	a1,67
800005c8:	00078513          	mv	a0,a5
800005cc:	3e1000ef          	jal	ra,800011ac <Func_1>
800005d0:	00050713          	mv	a4,a0
800005d4:	fc442783          	lw	a5,-60(s0)
800005d8:	08f71663          	bne	a4,a5,80000664 <main+0x3a4>
C:\Microsemi\SoftConsole_v5.3.0.30-20180629-171539\extras\workspace.examples\Dhrystone_RISCV/dhry_1.c:169
          /* then, not executed */
        {
        Proc_6 (Ident_1, &Enum_Loc);
800005dc:	fc440793          	addi	a5,s0,-60
800005e0:	00078593          	mv	a1,a5
800005e4:	00000513          	li	a0,0
800005e8:	115000ef          	jal	ra,80000efc <Proc_6>
C:\Microsemi\SoftConsole_v5.3.0.30-20180629-171539\extras\workspace.examples\Dhrystone_RISCV/dhry_1.c:170
        strcpy (Str_2_Loc, "DHRYSTONE PROGRAM, 3'RD STRING");
800005ec:	800067b7          	lui	a5,0x80006
800005f0:	5347a883          	lw	a7,1332(a5) # 80006534 <__stack_top+0xffffba64>
800005f4:	53478713          	addi	a4,a5,1332
800005f8:	00472803          	lw	a6,4(a4)
800005fc:	53478713          	addi	a4,a5,1332
80000600:	00872503          	lw	a0,8(a4)
80000604:	53478713          	addi	a4,a5,1332
80000608:	00c72583          	lw	a1,12(a4)
8000060c:	53478713          	addi	a4,a5,1332
80000610:	01072603          	lw	a2,16(a4)
80000614:	53478713          	addi	a4,a5,1332
80000618:	01472683          	lw	a3,20(a4)
8000061c:	53478713          	addi	a4,a5,1332
80000620:	01872703          	lw	a4,24(a4)
80000624:	f9142223          	sw	a7,-124(s0)
80000628:	f9042423          	sw	a6,-120(s0)
8000062c:	f8a42623          	sw	a0,-116(s0)
80000630:	f8b42823          	sw	a1,-112(s0)
80000634:	f8c42a23          	sw	a2,-108(s0)
80000638:	f8d42c23          	sw	a3,-104(s0)
8000063c:	f8e42e23          	sw	a4,-100(s0)
80000640:	53478793          	addi	a5,a5,1332
80000644:	01c7d703          	lhu	a4,28(a5)
80000648:	fae41023          	sh	a4,-96(s0)
8000064c:	01e7c783          	lbu	a5,30(a5)
80000650:	faf40123          	sb	a5,-94(s0)
C:\Microsemi\SoftConsole_v5.3.0.30-20180629-171539\extras\workspace.examples\Dhrystone_RISCV/dhry_1.c:171
        Int_2_Loc = Run_Index;
80000654:	fd442783          	lw	a5,-44(s0)
80000658:	fcf42e23          	sw	a5,-36(s0)
C:\Microsemi\SoftConsole_v5.3.0.30-20180629-171539\extras\workspace.examples\Dhrystone_RISCV/dhry_1.c:172
        Int_Glob = Run_Index;
8000065c:	fd442703          	lw	a4,-44(s0)
80000660:	cce1a423          	sw	a4,-824(gp) # 800072a8 <Int_Glob>
C:\Microsemi\SoftConsole_v5.3.0.30-20180629-171539\extras\workspace.examples\Dhrystone_RISCV/dhry_1.c:163 (discriminator 2)
    for (Ch_Index = 'A'; Ch_Index <= Ch_2_Glob; ++Ch_Index)
80000664:	fdb44783          	lbu	a5,-37(s0)
80000668:	00178793          	addi	a5,a5,1
8000066c:	fcf40da3          	sb	a5,-37(s0)
C:\Microsemi\SoftConsole_v5.3.0.30-20180629-171539\extras\workspace.examples\Dhrystone_RISCV/dhry_1.c:163 (discriminator 1)
80000670:	cd11c783          	lbu	a5,-815(gp) # 800072b1 <Ch_2_Glob>
80000674:	fdb44703          	lbu	a4,-37(s0)
80000678:	f4e7f4e3          	bleu	a4,a5,800005c0 <main+0x300>
C:\Microsemi\SoftConsole_v5.3.0.30-20180629-171539\extras\workspace.examples\Dhrystone_RISCV/dhry_1.c:176 (discriminator 2)
        }
    }
      /* Int_1_Loc == 3, Int_2_Loc == 3, Int_3_Loc == 7 */
    Int_2_Loc = Int_2_Loc * Int_1_Loc;
8000067c:	fcc42783          	lw	a5,-52(s0)
80000680:	fdc42703          	lw	a4,-36(s0)
80000684:	02f707b3          	mul	a5,a4,a5
80000688:	fcf42e23          	sw	a5,-36(s0)
C:\Microsemi\SoftConsole_v5.3.0.30-20180629-171539\extras\workspace.examples\Dhrystone_RISCV/dhry_1.c:177 (discriminator 2)
    Int_1_Loc = Int_2_Loc / Int_3_Loc;
8000068c:	fc842783          	lw	a5,-56(s0)
80000690:	fdc42703          	lw	a4,-36(s0)
80000694:	02f747b3          	div	a5,a4,a5
80000698:	fcf42623          	sw	a5,-52(s0)
C:\Microsemi\SoftConsole_v5.3.0.30-20180629-171539\extras\workspace.examples\Dhrystone_RISCV/dhry_1.c:178 (discriminator 2)
    Int_2_Loc = 7 * (Int_2_Loc - Int_3_Loc) - Int_1_Loc;
8000069c:	fc842783          	lw	a5,-56(s0)
800006a0:	fdc42703          	lw	a4,-36(s0)
800006a4:	40f70733          	sub	a4,a4,a5
800006a8:	00070793          	mv	a5,a4
800006ac:	00379793          	slli	a5,a5,0x3
800006b0:	40e78733          	sub	a4,a5,a4
800006b4:	fcc42783          	lw	a5,-52(s0)
800006b8:	40f707b3          	sub	a5,a4,a5
800006bc:	fcf42e23          	sw	a5,-36(s0)
C:\Microsemi\SoftConsole_v5.3.0.30-20180629-171539\extras\workspace.examples\Dhrystone_RISCV/dhry_1.c:180 (discriminator 2)
      /* Int_1_Loc == 1, Int_2_Loc == 13, Int_3_Loc == 7 */
    Proc_2 (&Int_1_Loc);
800006c0:	fcc40793          	addi	a5,s0,-52
800006c4:	00078513          	mv	a0,a5
800006c8:	6f0000ef          	jal	ra,80000db8 <Proc_2>
C:\Microsemi\SoftConsole_v5.3.0.30-20180629-171539\extras\workspace.examples\Dhrystone_RISCV/dhry_1.c:139 (discriminator 2)
  for (Run_Index = 1; Run_Index <= Number_Of_Runs; ++Run_Index)
800006cc:	fd442783          	lw	a5,-44(s0)
800006d0:	00178793          	addi	a5,a5,1
800006d4:	fcf42a23          	sw	a5,-44(s0)
C:\Microsemi\SoftConsole_v5.3.0.30-20180629-171539\extras\workspace.examples\Dhrystone_RISCV/dhry_1.c:139 (discriminator 1)
800006d8:	fd442703          	lw	a4,-44(s0)
800006dc:	fd042783          	lw	a5,-48(s0)
800006e0:	dae7d4e3          	ble	a4,a5,80000488 <main+0x1c8>
C:\Microsemi\SoftConsole_v5.3.0.30-20180629-171539\extras\workspace.examples\Dhrystone_RISCV/dhry_1.c:194
#ifdef TIMES
  times (&time_info);
  End_Time = (long) time_info.tms_utime;
#endif
#ifdef TIME
  End_Time = time ( (long *) 0);
800006e4:	00000513          	li	a0,0
800006e8:	461000ef          	jal	ra,80001348 <time>
800006ec:	00050713          	mv	a4,a0
800006f0:	cce1ae23          	sw	a4,-804(gp) # 800072bc <End_Time>
C:\Microsemi\SoftConsole_v5.3.0.30-20180629-171539\extras\workspace.examples\Dhrystone_RISCV/dhry_1.c:197
#endif

  printf ("Execution ends\n");
800006f4:	800067b7          	lui	a5,0x80006
800006f8:	55478513          	addi	a0,a5,1364 # 80006554 <__stack_top+0xffffba84>
800006fc:	6d0010ef          	jal	ra,80001dcc <printf>
C:\Microsemi\SoftConsole_v5.3.0.30-20180629-171539\extras\workspace.examples\Dhrystone_RISCV/dhry_1.c:198
  printf ("\n");
80000700:	800067b7          	lui	a5,0x80006
80000704:	41878513          	addi	a0,a5,1048 # 80006418 <__stack_top+0xffffb948>
80000708:	6c4010ef          	jal	ra,80001dcc <printf>
C:\Microsemi\SoftConsole_v5.3.0.30-20180629-171539\extras\workspace.examples\Dhrystone_RISCV/dhry_1.c:199
  printf ("Final values of the variables used in the benchmark:\n");
8000070c:	800067b7          	lui	a5,0x80006
80000710:	56478513          	addi	a0,a5,1380 # 80006564 <__stack_top+0xffffba94>
80000714:	6b8010ef          	jal	ra,80001dcc <printf>
C:\Microsemi\SoftConsole_v5.3.0.30-20180629-171539\extras\workspace.examples\Dhrystone_RISCV/dhry_1.c:200
  printf ("\n");
80000718:	800067b7          	lui	a5,0x80006
8000071c:	41878513          	addi	a0,a5,1048 # 80006418 <__stack_top+0xffffb948>
80000720:	6ac010ef          	jal	ra,80001dcc <printf>
C:\Microsemi\SoftConsole_v5.3.0.30-20180629-171539\extras\workspace.examples\Dhrystone_RISCV/dhry_1.c:201
  printf ("Int_Glob:            %d\n", Int_Glob);
80000724:	cc81a783          	lw	a5,-824(gp) # 800072a8 <Int_Glob>
80000728:	00078593          	mv	a1,a5
8000072c:	800067b7          	lui	a5,0x80006
80000730:	59c78513          	addi	a0,a5,1436 # 8000659c <__stack_top+0xffffbacc>
80000734:	698010ef          	jal	ra,80001dcc <printf>
C:\Microsemi\SoftConsole_v5.3.0.30-20180629-171539\extras\workspace.examples\Dhrystone_RISCV/dhry_1.c:202
  printf ("        should be:   %d\n", 5);
80000738:	00500593          	li	a1,5
8000073c:	800067b7          	lui	a5,0x80006
80000740:	5b878513          	addi	a0,a5,1464 # 800065b8 <__stack_top+0xffffbae8>
80000744:	688010ef          	jal	ra,80001dcc <printf>
C:\Microsemi\SoftConsole_v5.3.0.30-20180629-171539\extras\workspace.examples\Dhrystone_RISCV/dhry_1.c:203
  printf ("Bool_Glob:           %d\n", Bool_Glob);
80000748:	ccc1a783          	lw	a5,-820(gp) # 800072ac <Bool_Glob>
8000074c:	00078593          	mv	a1,a5
80000750:	800067b7          	lui	a5,0x80006
80000754:	5d478513          	addi	a0,a5,1492 # 800065d4 <__stack_top+0xffffbb04>
80000758:	674010ef          	jal	ra,80001dcc <printf>
C:\Microsemi\SoftConsole_v5.3.0.30-20180629-171539\extras\workspace.examples\Dhrystone_RISCV/dhry_1.c:204
  printf ("        should be:   %d\n", 1);
8000075c:	00100593          	li	a1,1
80000760:	800067b7          	lui	a5,0x80006
80000764:	5b878513          	addi	a0,a5,1464 # 800065b8 <__stack_top+0xffffbae8>
80000768:	664010ef          	jal	ra,80001dcc <printf>
C:\Microsemi\SoftConsole_v5.3.0.30-20180629-171539\extras\workspace.examples\Dhrystone_RISCV/dhry_1.c:205
  printf ("Ch_1_Glob:           %c\n", Ch_1_Glob);
8000076c:	cd01c783          	lbu	a5,-816(gp) # 800072b0 <Ch_1_Glob>
80000770:	00078593          	mv	a1,a5
80000774:	800067b7          	lui	a5,0x80006
80000778:	5f078513          	addi	a0,a5,1520 # 800065f0 <__stack_top+0xffffbb20>
8000077c:	650010ef          	jal	ra,80001dcc <printf>
C:\Microsemi\SoftConsole_v5.3.0.30-20180629-171539\extras\workspace.examples\Dhrystone_RISCV/dhry_1.c:206
  printf ("        should be:   %c\n", 'A');
80000780:	04100593          	li	a1,65
80000784:	800067b7          	lui	a5,0x80006
80000788:	60c78513          	addi	a0,a5,1548 # 8000660c <__stack_top+0xffffbb3c>
8000078c:	640010ef          	jal	ra,80001dcc <printf>
C:\Microsemi\SoftConsole_v5.3.0.30-20180629-171539\extras\workspace.examples\Dhrystone_RISCV/dhry_1.c:207
  printf ("Ch_2_Glob:           %c\n", Ch_2_Glob);
80000790:	cd11c783          	lbu	a5,-815(gp) # 800072b1 <Ch_2_Glob>
80000794:	00078593          	mv	a1,a5
80000798:	800067b7          	lui	a5,0x80006
8000079c:	62878513          	addi	a0,a5,1576 # 80006628 <__stack_top+0xffffbb58>
800007a0:	62c010ef          	jal	ra,80001dcc <printf>
C:\Microsemi\SoftConsole_v5.3.0.30-20180629-171539\extras\workspace.examples\Dhrystone_RISCV/dhry_1.c:208
  printf ("        should be:   %c\n", 'B');
800007a4:	04200593          	li	a1,66
800007a8:	800067b7          	lui	a5,0x80006
800007ac:	60c78513          	addi	a0,a5,1548 # 8000660c <__stack_top+0xffffbb3c>
800007b0:	61c010ef          	jal	ra,80001dcc <printf>
C:\Microsemi\SoftConsole_v5.3.0.30-20180629-171539\extras\workspace.examples\Dhrystone_RISCV/dhry_1.c:209
  printf ("Arr_1_Glob[8]:       %d\n", Arr_1_Glob[8]);
800007b4:	d0018793          	addi	a5,gp,-768 # 800072e0 <__sbss_end>
800007b8:	0207a783          	lw	a5,32(a5)
800007bc:	00078593          	mv	a1,a5
800007c0:	800067b7          	lui	a5,0x80006
800007c4:	64478513          	addi	a0,a5,1604 # 80006644 <__stack_top+0xffffbb74>
800007c8:	604010ef          	jal	ra,80001dcc <printf>
C:\Microsemi\SoftConsole_v5.3.0.30-20180629-171539\extras\workspace.examples\Dhrystone_RISCV/dhry_1.c:210
  printf ("        should be:   %d\n", 7);
800007cc:	00700593          	li	a1,7
800007d0:	800067b7          	lui	a5,0x80006
800007d4:	5b878513          	addi	a0,a5,1464 # 800065b8 <__stack_top+0xffffbae8>
800007d8:	5f4010ef          	jal	ra,80001dcc <printf>
C:\Microsemi\SoftConsole_v5.3.0.30-20180629-171539\extras\workspace.examples\Dhrystone_RISCV/dhry_1.c:211
  printf ("Arr_2_Glob[8][7]:    %d\n", Arr_2_Glob[8][7]);
800007dc:	800077b7          	lui	a5,0x80007
800007e0:	3a878793          	addi	a5,a5,936 # 800073a8 <__stack_top+0xffffc8d8>
800007e4:	65c7a783          	lw	a5,1628(a5)
800007e8:	00078593          	mv	a1,a5
800007ec:	800067b7          	lui	a5,0x80006
800007f0:	66078513          	addi	a0,a5,1632 # 80006660 <__stack_top+0xffffbb90>
800007f4:	5d8010ef          	jal	ra,80001dcc <printf>
C:\Microsemi\SoftConsole_v5.3.0.30-20180629-171539\extras\workspace.examples\Dhrystone_RISCV/dhry_1.c:212
  printf ("        should be:   Number_Of_Runs + 10\n");
800007f8:	800067b7          	lui	a5,0x80006
800007fc:	67c78513          	addi	a0,a5,1660 # 8000667c <__stack_top+0xffffbbac>
80000800:	5cc010ef          	jal	ra,80001dcc <printf>
C:\Microsemi\SoftConsole_v5.3.0.30-20180629-171539\extras\workspace.examples\Dhrystone_RISCV/dhry_1.c:213
  printf ("Ptr_Glob->\n");
80000804:	800067b7          	lui	a5,0x80006
80000808:	6a878513          	addi	a0,a5,1704 # 800066a8 <__stack_top+0xffffbbd8>
8000080c:	5c0010ef          	jal	ra,80001dcc <printf>
C:\Microsemi\SoftConsole_v5.3.0.30-20180629-171539\extras\workspace.examples\Dhrystone_RISCV/dhry_1.c:214
  printf ("  Ptr_Comp:          %d\n", (int) Ptr_Glob->Ptr_Comp);
80000810:	cc01a783          	lw	a5,-832(gp) # 800072a0 <__data_end>
80000814:	0007a783          	lw	a5,0(a5)
80000818:	00078593          	mv	a1,a5
8000081c:	800067b7          	lui	a5,0x80006
80000820:	6b478513          	addi	a0,a5,1716 # 800066b4 <__stack_top+0xffffbbe4>
80000824:	5a8010ef          	jal	ra,80001dcc <printf>
C:\Microsemi\SoftConsole_v5.3.0.30-20180629-171539\extras\workspace.examples\Dhrystone_RISCV/dhry_1.c:215
  printf ("        should be:   (implementation-dependent)\n");
80000828:	800067b7          	lui	a5,0x80006
8000082c:	6d078513          	addi	a0,a5,1744 # 800066d0 <__stack_top+0xffffbc00>
80000830:	59c010ef          	jal	ra,80001dcc <printf>
C:\Microsemi\SoftConsole_v5.3.0.30-20180629-171539\extras\workspace.examples\Dhrystone_RISCV/dhry_1.c:216
  printf ("  Discr:             %d\n", Ptr_Glob->Discr);
80000834:	cc01a783          	lw	a5,-832(gp) # 800072a0 <__data_end>
80000838:	0047a783          	lw	a5,4(a5)
8000083c:	00078593          	mv	a1,a5
80000840:	800067b7          	lui	a5,0x80006
80000844:	70478513          	addi	a0,a5,1796 # 80006704 <__stack_top+0xffffbc34>
80000848:	584010ef          	jal	ra,80001dcc <printf>
C:\Microsemi\SoftConsole_v5.3.0.30-20180629-171539\extras\workspace.examples\Dhrystone_RISCV/dhry_1.c:217
  printf ("        should be:   %d\n", 0);
8000084c:	00000593          	li	a1,0
80000850:	800067b7          	lui	a5,0x80006
80000854:	5b878513          	addi	a0,a5,1464 # 800065b8 <__stack_top+0xffffbae8>
80000858:	574010ef          	jal	ra,80001dcc <printf>
C:\Microsemi\SoftConsole_v5.3.0.30-20180629-171539\extras\workspace.examples\Dhrystone_RISCV/dhry_1.c:218
  printf ("  Enum_Comp:         %d\n", Ptr_Glob->variant.var_1.Enum_Comp);
8000085c:	cc01a783          	lw	a5,-832(gp) # 800072a0 <__data_end>
80000860:	0087a783          	lw	a5,8(a5)
80000864:	00078593          	mv	a1,a5
80000868:	800067b7          	lui	a5,0x80006
8000086c:	72078513          	addi	a0,a5,1824 # 80006720 <__stack_top+0xffffbc50>
80000870:	55c010ef          	jal	ra,80001dcc <printf>
C:\Microsemi\SoftConsole_v5.3.0.30-20180629-171539\extras\workspace.examples\Dhrystone_RISCV/dhry_1.c:219
  printf ("        should be:   %d\n", 2);
80000874:	00200593          	li	a1,2
80000878:	800067b7          	lui	a5,0x80006
8000087c:	5b878513          	addi	a0,a5,1464 # 800065b8 <__stack_top+0xffffbae8>
80000880:	54c010ef          	jal	ra,80001dcc <printf>
C:\Microsemi\SoftConsole_v5.3.0.30-20180629-171539\extras\workspace.examples\Dhrystone_RISCV/dhry_1.c:220
  printf ("  Int_Comp:          %d\n", Ptr_Glob->variant.var_1.Int_Comp);
80000884:	cc01a783          	lw	a5,-832(gp) # 800072a0 <__data_end>
80000888:	00c7a783          	lw	a5,12(a5)
8000088c:	00078593          	mv	a1,a5
80000890:	800067b7          	lui	a5,0x80006
80000894:	73c78513          	addi	a0,a5,1852 # 8000673c <__stack_top+0xffffbc6c>
80000898:	534010ef          	jal	ra,80001dcc <printf>
C:\Microsemi\SoftConsole_v5.3.0.30-20180629-171539\extras\workspace.examples\Dhrystone_RISCV/dhry_1.c:221
  printf ("        should be:   %d\n", 17);
8000089c:	01100593          	li	a1,17
800008a0:	800067b7          	lui	a5,0x80006
800008a4:	5b878513          	addi	a0,a5,1464 # 800065b8 <__stack_top+0xffffbae8>
800008a8:	524010ef          	jal	ra,80001dcc <printf>
C:\Microsemi\SoftConsole_v5.3.0.30-20180629-171539\extras\workspace.examples\Dhrystone_RISCV/dhry_1.c:222
  printf ("  Str_Comp:          %s\n", Ptr_Glob->variant.var_1.Str_Comp);
800008ac:	cc01a783          	lw	a5,-832(gp) # 800072a0 <__data_end>
800008b0:	01078793          	addi	a5,a5,16
800008b4:	00078593          	mv	a1,a5
800008b8:	800067b7          	lui	a5,0x80006
800008bc:	75878513          	addi	a0,a5,1880 # 80006758 <__stack_top+0xffffbc88>
800008c0:	50c010ef          	jal	ra,80001dcc <printf>
C:\Microsemi\SoftConsole_v5.3.0.30-20180629-171539\extras\workspace.examples\Dhrystone_RISCV/dhry_1.c:223
  printf ("        should be:   DHRYSTONE PROGRAM, SOME STRING\n");
800008c4:	800067b7          	lui	a5,0x80006
800008c8:	77478513          	addi	a0,a5,1908 # 80006774 <__stack_top+0xffffbca4>
800008cc:	500010ef          	jal	ra,80001dcc <printf>
C:\Microsemi\SoftConsole_v5.3.0.30-20180629-171539\extras\workspace.examples\Dhrystone_RISCV/dhry_1.c:224
  printf ("Next_Ptr_Glob->\n");
800008d0:	800067b7          	lui	a5,0x80006
800008d4:	7ac78513          	addi	a0,a5,1964 # 800067ac <__stack_top+0xffffbcdc>
800008d8:	4f4010ef          	jal	ra,80001dcc <printf>
C:\Microsemi\SoftConsole_v5.3.0.30-20180629-171539\extras\workspace.examples\Dhrystone_RISCV/dhry_1.c:225
  printf ("  Ptr_Comp:          %d\n", (int) Next_Ptr_Glob->Ptr_Comp);
800008dc:	cc41a783          	lw	a5,-828(gp) # 800072a4 <Next_Ptr_Glob>
800008e0:	0007a783          	lw	a5,0(a5)
800008e4:	00078593          	mv	a1,a5
800008e8:	800067b7          	lui	a5,0x80006
800008ec:	6b478513          	addi	a0,a5,1716 # 800066b4 <__stack_top+0xffffbbe4>
800008f0:	4dc010ef          	jal	ra,80001dcc <printf>
C:\Microsemi\SoftConsole_v5.3.0.30-20180629-171539\extras\workspace.examples\Dhrystone_RISCV/dhry_1.c:226
  printf ("        should be:   (implementation-dependent), same as above\n");
800008f4:	800067b7          	lui	a5,0x80006
800008f8:	7c078513          	addi	a0,a5,1984 # 800067c0 <__stack_top+0xffffbcf0>
800008fc:	4d0010ef          	jal	ra,80001dcc <printf>
C:\Microsemi\SoftConsole_v5.3.0.30-20180629-171539\extras\workspace.examples\Dhrystone_RISCV/dhry_1.c:227
  printf ("  Discr:             %d\n", Next_Ptr_Glob->Discr);
80000900:	cc41a783          	lw	a5,-828(gp) # 800072a4 <Next_Ptr_Glob>
80000904:	0047a783          	lw	a5,4(a5)
80000908:	00078593          	mv	a1,a5
8000090c:	800067b7          	lui	a5,0x80006
80000910:	70478513          	addi	a0,a5,1796 # 80006704 <__stack_top+0xffffbc34>
80000914:	4b8010ef          	jal	ra,80001dcc <printf>
C:\Microsemi\SoftConsole_v5.3.0.30-20180629-171539\extras\workspace.examples\Dhrystone_RISCV/dhry_1.c:228
  printf ("        should be:   %d\n", 0);
80000918:	00000593          	li	a1,0
8000091c:	800067b7          	lui	a5,0x80006
80000920:	5b878513          	addi	a0,a5,1464 # 800065b8 <__stack_top+0xffffbae8>
80000924:	4a8010ef          	jal	ra,80001dcc <printf>
C:\Microsemi\SoftConsole_v5.3.0.30-20180629-171539\extras\workspace.examples\Dhrystone_RISCV/dhry_1.c:229
  printf ("  Enum_Comp:         %d\n", Next_Ptr_Glob->variant.var_1.Enum_Comp);
80000928:	cc41a783          	lw	a5,-828(gp) # 800072a4 <Next_Ptr_Glob>
8000092c:	0087a783          	lw	a5,8(a5)
80000930:	00078593          	mv	a1,a5
80000934:	800067b7          	lui	a5,0x80006
80000938:	72078513          	addi	a0,a5,1824 # 80006720 <__stack_top+0xffffbc50>
8000093c:	490010ef          	jal	ra,80001dcc <printf>
C:\Microsemi\SoftConsole_v5.3.0.30-20180629-171539\extras\workspace.examples\Dhrystone_RISCV/dhry_1.c:230
  printf ("        should be:   %d\n", 1);
80000940:	00100593          	li	a1,1
80000944:	800067b7          	lui	a5,0x80006
80000948:	5b878513          	addi	a0,a5,1464 # 800065b8 <__stack_top+0xffffbae8>
8000094c:	480010ef          	jal	ra,80001dcc <printf>
C:\Microsemi\SoftConsole_v5.3.0.30-20180629-171539\extras\workspace.examples\Dhrystone_RISCV/dhry_1.c:231
  printf ("  Int_Comp:          %d\n", Next_Ptr_Glob->variant.var_1.Int_Comp);
80000950:	cc41a783          	lw	a5,-828(gp) # 800072a4 <Next_Ptr_Glob>
80000954:	00c7a783          	lw	a5,12(a5)
80000958:	00078593          	mv	a1,a5
8000095c:	800067b7          	lui	a5,0x80006
80000960:	73c78513          	addi	a0,a5,1852 # 8000673c <__stack_top+0xffffbc6c>
80000964:	468010ef          	jal	ra,80001dcc <printf>
C:\Microsemi\SoftConsole_v5.3.0.30-20180629-171539\extras\workspace.examples\Dhrystone_RISCV/dhry_1.c:232
  printf ("        should be:   %d\n", 18);
80000968:	01200593          	li	a1,18
8000096c:	800067b7          	lui	a5,0x80006
80000970:	5b878513          	addi	a0,a5,1464 # 800065b8 <__stack_top+0xffffbae8>
80000974:	458010ef          	jal	ra,80001dcc <printf>
C:\Microsemi\SoftConsole_v5.3.0.30-20180629-171539\extras\workspace.examples\Dhrystone_RISCV/dhry_1.c:234
  printf ("  Str_Comp:          %s\n",
                                Next_Ptr_Glob->variant.var_1.Str_Comp);
80000978:	cc41a783          	lw	a5,-828(gp) # 800072a4 <Next_Ptr_Glob>
8000097c:	01078793          	addi	a5,a5,16
C:\Microsemi\SoftConsole_v5.3.0.30-20180629-171539\extras\workspace.examples\Dhrystone_RISCV/dhry_1.c:233
  printf ("  Str_Comp:          %s\n",
80000980:	00078593          	mv	a1,a5
80000984:	800067b7          	lui	a5,0x80006
80000988:	75878513          	addi	a0,a5,1880 # 80006758 <__stack_top+0xffffbc88>
8000098c:	440010ef          	jal	ra,80001dcc <printf>
C:\Microsemi\SoftConsole_v5.3.0.30-20180629-171539\extras\workspace.examples\Dhrystone_RISCV/dhry_1.c:235
  printf ("        should be:   DHRYSTONE PROGRAM, SOME STRING\n");
80000990:	800067b7          	lui	a5,0x80006
80000994:	77478513          	addi	a0,a5,1908 # 80006774 <__stack_top+0xffffbca4>
80000998:	434010ef          	jal	ra,80001dcc <printf>
C:\Microsemi\SoftConsole_v5.3.0.30-20180629-171539\extras\workspace.examples\Dhrystone_RISCV/dhry_1.c:236
  printf ("Int_1_Loc:           %d\n", Int_1_Loc);
8000099c:	fcc42783          	lw	a5,-52(s0)
800009a0:	00078593          	mv	a1,a5
800009a4:	800077b7          	lui	a5,0x80007
800009a8:	80078513          	addi	a0,a5,-2048 # 80006800 <__stack_top+0xffffbd30>
800009ac:	420010ef          	jal	ra,80001dcc <printf>
C:\Microsemi\SoftConsole_v5.3.0.30-20180629-171539\extras\workspace.examples\Dhrystone_RISCV/dhry_1.c:237
  printf ("        should be:   %d\n", 5);
800009b0:	00500593          	li	a1,5
800009b4:	800067b7          	lui	a5,0x80006
800009b8:	5b878513          	addi	a0,a5,1464 # 800065b8 <__stack_top+0xffffbae8>
800009bc:	410010ef          	jal	ra,80001dcc <printf>
C:\Microsemi\SoftConsole_v5.3.0.30-20180629-171539\extras\workspace.examples\Dhrystone_RISCV/dhry_1.c:238
  printf ("Int_2_Loc:           %d\n", Int_2_Loc);
800009c0:	fdc42583          	lw	a1,-36(s0)
800009c4:	800077b7          	lui	a5,0x80007
800009c8:	81c78513          	addi	a0,a5,-2020 # 8000681c <__stack_top+0xffffbd4c>
800009cc:	400010ef          	jal	ra,80001dcc <printf>
C:\Microsemi\SoftConsole_v5.3.0.30-20180629-171539\extras\workspace.examples\Dhrystone_RISCV/dhry_1.c:239
  printf ("        should be:   %d\n", 13);
800009d0:	00d00593          	li	a1,13
800009d4:	800067b7          	lui	a5,0x80006
800009d8:	5b878513          	addi	a0,a5,1464 # 800065b8 <__stack_top+0xffffbae8>
800009dc:	3f0010ef          	jal	ra,80001dcc <printf>
C:\Microsemi\SoftConsole_v5.3.0.30-20180629-171539\extras\workspace.examples\Dhrystone_RISCV/dhry_1.c:240
  printf ("Int_3_Loc:           %d\n", Int_3_Loc);
800009e0:	fc842783          	lw	a5,-56(s0)
800009e4:	00078593          	mv	a1,a5
800009e8:	800077b7          	lui	a5,0x80007
800009ec:	83878513          	addi	a0,a5,-1992 # 80006838 <__stack_top+0xffffbd68>
800009f0:	3dc010ef          	jal	ra,80001dcc <printf>
C:\Microsemi\SoftConsole_v5.3.0.30-20180629-171539\extras\workspace.examples\Dhrystone_RISCV/dhry_1.c:241
  printf ("        should be:   %d\n", 7);
800009f4:	00700593          	li	a1,7
800009f8:	800067b7          	lui	a5,0x80006
800009fc:	5b878513          	addi	a0,a5,1464 # 800065b8 <__stack_top+0xffffbae8>
80000a00:	3cc010ef          	jal	ra,80001dcc <printf>
C:\Microsemi\SoftConsole_v5.3.0.30-20180629-171539\extras\workspace.examples\Dhrystone_RISCV/dhry_1.c:242
  printf ("Enum_Loc:            %d\n", Enum_Loc);
80000a04:	fc442783          	lw	a5,-60(s0)
80000a08:	00078593          	mv	a1,a5
80000a0c:	800077b7          	lui	a5,0x80007
80000a10:	85478513          	addi	a0,a5,-1964 # 80006854 <__stack_top+0xffffbd84>
80000a14:	3b8010ef          	jal	ra,80001dcc <printf>
C:\Microsemi\SoftConsole_v5.3.0.30-20180629-171539\extras\workspace.examples\Dhrystone_RISCV/dhry_1.c:243
  printf ("        should be:   %d\n", 1);
80000a18:	00100593          	li	a1,1
80000a1c:	800067b7          	lui	a5,0x80006
80000a20:	5b878513          	addi	a0,a5,1464 # 800065b8 <__stack_top+0xffffbae8>
80000a24:	3a8010ef          	jal	ra,80001dcc <printf>
C:\Microsemi\SoftConsole_v5.3.0.30-20180629-171539\extras\workspace.examples\Dhrystone_RISCV/dhry_1.c:244
  printf ("Str_1_Loc:           %s\n", Str_1_Loc);
80000a28:	fa440793          	addi	a5,s0,-92
80000a2c:	00078593          	mv	a1,a5
80000a30:	800077b7          	lui	a5,0x80007
80000a34:	87078513          	addi	a0,a5,-1936 # 80006870 <__stack_top+0xffffbda0>
80000a38:	394010ef          	jal	ra,80001dcc <printf>
C:\Microsemi\SoftConsole_v5.3.0.30-20180629-171539\extras\workspace.examples\Dhrystone_RISCV/dhry_1.c:245
  printf ("        should be:   DHRYSTONE PROGRAM, 1'ST STRING\n");
80000a3c:	800077b7          	lui	a5,0x80007
80000a40:	88c78513          	addi	a0,a5,-1908 # 8000688c <__stack_top+0xffffbdbc>
80000a44:	388010ef          	jal	ra,80001dcc <printf>
C:\Microsemi\SoftConsole_v5.3.0.30-20180629-171539\extras\workspace.examples\Dhrystone_RISCV/dhry_1.c:246
  printf ("Str_2_Loc:           %s\n", Str_2_Loc);
80000a48:	f8440793          	addi	a5,s0,-124
80000a4c:	00078593          	mv	a1,a5
80000a50:	800077b7          	lui	a5,0x80007
80000a54:	8c478513          	addi	a0,a5,-1852 # 800068c4 <__stack_top+0xffffbdf4>
80000a58:	374010ef          	jal	ra,80001dcc <printf>
C:\Microsemi\SoftConsole_v5.3.0.30-20180629-171539\extras\workspace.examples\Dhrystone_RISCV/dhry_1.c:247
  printf ("        should be:   DHRYSTONE PROGRAM, 2'ND STRING\n");
80000a5c:	800077b7          	lui	a5,0x80007
80000a60:	8e078513          	addi	a0,a5,-1824 # 800068e0 <__stack_top+0xffffbe10>
80000a64:	368010ef          	jal	ra,80001dcc <printf>
C:\Microsemi\SoftConsole_v5.3.0.30-20180629-171539\extras\workspace.examples\Dhrystone_RISCV/dhry_1.c:248
  printf ("\n");
80000a68:	800067b7          	lui	a5,0x80006
80000a6c:	41878513          	addi	a0,a5,1048 # 80006418 <__stack_top+0xffffb948>
80000a70:	35c010ef          	jal	ra,80001dcc <printf>
C:\Microsemi\SoftConsole_v5.3.0.30-20180629-171539\extras\workspace.examples\Dhrystone_RISCV/dhry_1.c:250

  User_Time = End_Time - Begin_Time;
80000a74:	cdc1a703          	lw	a4,-804(gp) # 800072bc <End_Time>
80000a78:	cd81a783          	lw	a5,-808(gp) # 800072b8 <Begin_Time>
80000a7c:	40f70733          	sub	a4,a4,a5
80000a80:	cee1a023          	sw	a4,-800(gp) # 800072c0 <User_Time>
C:\Microsemi\SoftConsole_v5.3.0.30-20180629-171539\extras\workspace.examples\Dhrystone_RISCV/dhry_1.c:252

  if (User_Time < Too_Small_Time)
80000a84:	ce01a703          	lw	a4,-800(gp) # 800072c0 <User_Time>
80000a88:	00100793          	li	a5,1
80000a8c:	02e7c663          	blt	a5,a4,80000ab8 <main+0x7f8>
C:\Microsemi\SoftConsole_v5.3.0.30-20180629-171539\extras\workspace.examples\Dhrystone_RISCV/dhry_1.c:254
  {
    printf ("Measured time too small to obtain meaningful results\n");
80000a90:	800077b7          	lui	a5,0x80007
80000a94:	91878513          	addi	a0,a5,-1768 # 80006918 <__stack_top+0xffffbe48>
80000a98:	334010ef          	jal	ra,80001dcc <printf>
C:\Microsemi\SoftConsole_v5.3.0.30-20180629-171539\extras\workspace.examples\Dhrystone_RISCV/dhry_1.c:255
    printf ("Please increase number of runs\n");
80000a9c:	800077b7          	lui	a5,0x80007
80000aa0:	95078513          	addi	a0,a5,-1712 # 80006950 <__stack_top+0xffffbe80>
80000aa4:	328010ef          	jal	ra,80001dcc <printf>
C:\Microsemi\SoftConsole_v5.3.0.30-20180629-171539\extras\workspace.examples\Dhrystone_RISCV/dhry_1.c:256
    printf ("\n");
80000aa8:	800067b7          	lui	a5,0x80006
80000aac:	41878513          	addi	a0,a5,1048 # 80006418 <__stack_top+0xffffb948>
80000ab0:	31c010ef          	jal	ra,80001dcc <printf>
80000ab4:	1300006f          	j	80000be4 <main+0x924>
C:\Microsemi\SoftConsole_v5.3.0.30-20180629-171539\extras\workspace.examples\Dhrystone_RISCV/dhry_1.c:261
  }
  else
  {
#ifdef TIME
    Microseconds = (float) User_Time * Mic_secs_Per_Second 
80000ab8:	ce01a783          	lw	a5,-800(gp) # 800072c0 <User_Time>
80000abc:	00078513          	mv	a0,a5
80000ac0:	41c050ef          	jal	ra,80005edc <__floatsisf>
80000ac4:	00050793          	mv	a5,a0
80000ac8:	00078513          	mv	a0,a5
80000acc:	56c050ef          	jal	ra,80006038 <__extendsfdf2>
80000ad0:	800077b7          	lui	a5,0x80007
80000ad4:	9d87a603          	lw	a2,-1576(a5) # 800069d8 <__stack_top+0xffffbf08>
80000ad8:	9dc7a683          	lw	a3,-1572(a5)
80000adc:	0a9040ef          	jal	ra,80005384 <__muldf3>
80000ae0:	00050793          	mv	a5,a0
80000ae4:	00058813          	mv	a6,a1
80000ae8:	00078913          	mv	s2,a5
80000aec:	00080993          	mv	s3,a6
C:\Microsemi\SoftConsole_v5.3.0.30-20180629-171539\extras\workspace.examples\Dhrystone_RISCV/dhry_1.c:262
                        / (float) Number_Of_Runs;
80000af0:	fd042503          	lw	a0,-48(s0)
80000af4:	3e8050ef          	jal	ra,80005edc <__floatsisf>
80000af8:	00050793          	mv	a5,a0
80000afc:	00078513          	mv	a0,a5
80000b00:	538050ef          	jal	ra,80006038 <__extendsfdf2>
80000b04:	00050793          	mv	a5,a0
80000b08:	00058813          	mv	a6,a1
80000b0c:	00078613          	mv	a2,a5
80000b10:	00080693          	mv	a3,a6
80000b14:	00090513          	mv	a0,s2
80000b18:	00098593          	mv	a1,s3
80000b1c:	755030ef          	jal	ra,80004a70 <__divdf3>
80000b20:	00050793          	mv	a5,a0
80000b24:	00058813          	mv	a6,a1
80000b28:	00078513          	mv	a0,a5
80000b2c:	00080593          	mv	a1,a6
80000b30:	640050ef          	jal	ra,80006170 <__truncdfsf2>
80000b34:	00050713          	mv	a4,a0
C:\Microsemi\SoftConsole_v5.3.0.30-20180629-171539\extras\workspace.examples\Dhrystone_RISCV/dhry_1.c:261
    Microseconds = (float) User_Time * Mic_secs_Per_Second 
80000b38:	cee1a223          	sw	a4,-796(gp) # 800072c4 <Microseconds>
C:\Microsemi\SoftConsole_v5.3.0.30-20180629-171539\extras\workspace.examples\Dhrystone_RISCV/dhry_1.c:263
    Dhrystones_Per_Second = (float) Number_Of_Runs / (float) User_Time;
80000b3c:	fd042503          	lw	a0,-48(s0)
80000b40:	39c050ef          	jal	ra,80005edc <__floatsisf>
80000b44:	00050493          	mv	s1,a0
80000b48:	ce01a783          	lw	a5,-800(gp) # 800072c0 <User_Time>
80000b4c:	00078513          	mv	a0,a5
80000b50:	38c050ef          	jal	ra,80005edc <__floatsisf>
80000b54:	00050793          	mv	a5,a0
80000b58:	00078593          	mv	a1,a5
80000b5c:	00048513          	mv	a0,s1
80000b60:	775040ef          	jal	ra,80005ad4 <__divsf3>
80000b64:	00050793          	mv	a5,a0
80000b68:	00078713          	mv	a4,a5
80000b6c:	cee1a423          	sw	a4,-792(gp) # 800072c8 <Dhrystones_Per_Second>
C:\Microsemi\SoftConsole_v5.3.0.30-20180629-171539\extras\workspace.examples\Dhrystone_RISCV/dhry_1.c:270
    Microseconds = (float) User_Time * Mic_secs_Per_Second 
                        / ((float) HZ * ((float) Number_Of_Runs));
    Dhrystones_Per_Second = ((float) HZ * (float) Number_Of_Runs)
                        / (float) User_Time;
#endif
    printf ("Microseconds for one run through Dhrystone: ");
80000b70:	800077b7          	lui	a5,0x80007
80000b74:	97078513          	addi	a0,a5,-1680 # 80006970 <__stack_top+0xffffbea0>
80000b78:	254010ef          	jal	ra,80001dcc <printf>
C:\Microsemi\SoftConsole_v5.3.0.30-20180629-171539\extras\workspace.examples\Dhrystone_RISCV/dhry_1.c:271
    printf ("%6.1f \n", Microseconds);
80000b7c:	ce41a783          	lw	a5,-796(gp) # 800072c4 <Microseconds>
80000b80:	00078513          	mv	a0,a5
80000b84:	4b4050ef          	jal	ra,80006038 <__extendsfdf2>
80000b88:	00050793          	mv	a5,a0
80000b8c:	00058813          	mv	a6,a1
80000b90:	00078613          	mv	a2,a5
80000b94:	00080693          	mv	a3,a6
80000b98:	800077b7          	lui	a5,0x80007
80000b9c:	9a078513          	addi	a0,a5,-1632 # 800069a0 <__stack_top+0xffffbed0>
80000ba0:	22c010ef          	jal	ra,80001dcc <printf>
C:\Microsemi\SoftConsole_v5.3.0.30-20180629-171539\extras\workspace.examples\Dhrystone_RISCV/dhry_1.c:272
    printf ("Dhrystones per Second:                      ");
80000ba4:	800077b7          	lui	a5,0x80007
80000ba8:	9a878513          	addi	a0,a5,-1624 # 800069a8 <__stack_top+0xffffbed8>
80000bac:	220010ef          	jal	ra,80001dcc <printf>
C:\Microsemi\SoftConsole_v5.3.0.30-20180629-171539\extras\workspace.examples\Dhrystone_RISCV/dhry_1.c:273
    printf ("%6.1f \n", Dhrystones_Per_Second);
80000bb0:	ce81a783          	lw	a5,-792(gp) # 800072c8 <Dhrystones_Per_Second>
80000bb4:	00078513          	mv	a0,a5
80000bb8:	480050ef          	jal	ra,80006038 <__extendsfdf2>
80000bbc:	00050793          	mv	a5,a0
80000bc0:	00058813          	mv	a6,a1
80000bc4:	00078613          	mv	a2,a5
80000bc8:	00080693          	mv	a3,a6
80000bcc:	800077b7          	lui	a5,0x80007
80000bd0:	9a078513          	addi	a0,a5,-1632 # 800069a0 <__stack_top+0xffffbed0>
80000bd4:	1f8010ef          	jal	ra,80001dcc <printf>
C:\Microsemi\SoftConsole_v5.3.0.30-20180629-171539\extras\workspace.examples\Dhrystone_RISCV/dhry_1.c:274
    printf ("\n");
80000bd8:	800067b7          	lui	a5,0x80006
80000bdc:	41878513          	addi	a0,a5,1048 # 80006418 <__stack_top+0xffffb948>
80000be0:	1ec010ef          	jal	ra,80001dcc <printf>
80000be4:	00000793          	li	a5,0
C:\Microsemi\SoftConsole_v5.3.0.30-20180629-171539\extras\workspace.examples\Dhrystone_RISCV/dhry_1.c:277
  }
  
}
80000be8:	00078513          	mv	a0,a5
80000bec:	07c12083          	lw	ra,124(sp)
80000bf0:	07812403          	lw	s0,120(sp)
80000bf4:	07412483          	lw	s1,116(sp)
80000bf8:	07012903          	lw	s2,112(sp)
80000bfc:	06c12983          	lw	s3,108(sp)
80000c00:	08010113          	addi	sp,sp,128
80000c04:	00008067          	ret

80000c08 <Proc_1>:
Proc_1():
C:\Microsemi\SoftConsole_v5.3.0.30-20180629-171539\extras\workspace.examples\Dhrystone_RISCV/dhry_1.c:285
Proc_1 (Ptr_Val_Par)
/******************/

REG Rec_Pointer Ptr_Val_Par;
    /* executed once */
{
80000c08:	fd010113          	addi	sp,sp,-48
80000c0c:	02112623          	sw	ra,44(sp)
80000c10:	02812423          	sw	s0,40(sp)
80000c14:	03010413          	addi	s0,sp,48
80000c18:	fca42e23          	sw	a0,-36(s0)
C:\Microsemi\SoftConsole_v5.3.0.30-20180629-171539\extras\workspace.examples\Dhrystone_RISCV/dhry_1.c:286
  REG Rec_Pointer Next_Record = Ptr_Val_Par->Ptr_Comp;  
80000c1c:	fdc42783          	lw	a5,-36(s0)
80000c20:	0007a783          	lw	a5,0(a5)
80000c24:	fef42623          	sw	a5,-20(s0)
C:\Microsemi\SoftConsole_v5.3.0.30-20180629-171539\extras\workspace.examples\Dhrystone_RISCV/dhry_1.c:291
                                        /* == Ptr_Glob_Next */
  /* Local variable, initialized with Ptr_Val_Par->Ptr_Comp,    */
  /* corresponds to "rename" in Ada, "with" in Pascal           */
  
  structassign (*Ptr_Val_Par->Ptr_Comp, *Ptr_Glob); 
80000c28:	cc01a703          	lw	a4,-832(gp) # 800072a0 <__data_end>
80000c2c:	fdc42783          	lw	a5,-36(s0)
80000c30:	0007a783          	lw	a5,0(a5)
80000c34:	00072f83          	lw	t6,0(a4)
80000c38:	00472f03          	lw	t5,4(a4)
80000c3c:	00872e83          	lw	t4,8(a4)
80000c40:	00c72e03          	lw	t3,12(a4)
80000c44:	01072303          	lw	t1,16(a4)
80000c48:	01472883          	lw	a7,20(a4)
80000c4c:	01872803          	lw	a6,24(a4)
80000c50:	01c72503          	lw	a0,28(a4)
80000c54:	02072583          	lw	a1,32(a4)
80000c58:	02472603          	lw	a2,36(a4)
80000c5c:	02872683          	lw	a3,40(a4)
80000c60:	02c72703          	lw	a4,44(a4)
80000c64:	01f7a023          	sw	t6,0(a5)
80000c68:	01e7a223          	sw	t5,4(a5)
80000c6c:	01d7a423          	sw	t4,8(a5)
80000c70:	01c7a623          	sw	t3,12(a5)
80000c74:	0067a823          	sw	t1,16(a5)
80000c78:	0117aa23          	sw	a7,20(a5)
80000c7c:	0107ac23          	sw	a6,24(a5)
80000c80:	00a7ae23          	sw	a0,28(a5)
80000c84:	02b7a023          	sw	a1,32(a5)
80000c88:	02c7a223          	sw	a2,36(a5)
80000c8c:	02d7a423          	sw	a3,40(a5)
80000c90:	02e7a623          	sw	a4,44(a5)
C:\Microsemi\SoftConsole_v5.3.0.30-20180629-171539\extras\workspace.examples\Dhrystone_RISCV/dhry_1.c:292
  Ptr_Val_Par->variant.var_1.Int_Comp = 5;
80000c94:	fdc42783          	lw	a5,-36(s0)
80000c98:	00500713          	li	a4,5
80000c9c:	00e7a623          	sw	a4,12(a5)
C:\Microsemi\SoftConsole_v5.3.0.30-20180629-171539\extras\workspace.examples\Dhrystone_RISCV/dhry_1.c:294
  Next_Record->variant.var_1.Int_Comp 
        = Ptr_Val_Par->variant.var_1.Int_Comp;
80000ca0:	fdc42783          	lw	a5,-36(s0)
80000ca4:	00c7a703          	lw	a4,12(a5)
80000ca8:	fec42783          	lw	a5,-20(s0)
80000cac:	00e7a623          	sw	a4,12(a5)
C:\Microsemi\SoftConsole_v5.3.0.30-20180629-171539\extras\workspace.examples\Dhrystone_RISCV/dhry_1.c:295
  Next_Record->Ptr_Comp = Ptr_Val_Par->Ptr_Comp;
80000cb0:	fdc42783          	lw	a5,-36(s0)
80000cb4:	0007a703          	lw	a4,0(a5)
80000cb8:	fec42783          	lw	a5,-20(s0)
80000cbc:	00e7a023          	sw	a4,0(a5)
C:\Microsemi\SoftConsole_v5.3.0.30-20180629-171539\extras\workspace.examples\Dhrystone_RISCV/dhry_1.c:296
  Proc_3 (&Next_Record->Ptr_Comp);
80000cc0:	fec42783          	lw	a5,-20(s0)
80000cc4:	00078513          	mv	a0,a5
80000cc8:	15c000ef          	jal	ra,80000e24 <Proc_3>
C:\Microsemi\SoftConsole_v5.3.0.30-20180629-171539\extras\workspace.examples\Dhrystone_RISCV/dhry_1.c:299
    /* Ptr_Val_Par->Ptr_Comp->Ptr_Comp 
                        == Ptr_Glob->Ptr_Comp */
  if (Next_Record->Discr == Ident_1)
80000ccc:	fec42783          	lw	a5,-20(s0)
80000cd0:	0047a783          	lw	a5,4(a5)
80000cd4:	06079063          	bnez	a5,80000d34 <Proc_1+0x12c>
C:\Microsemi\SoftConsole_v5.3.0.30-20180629-171539\extras\workspace.examples\Dhrystone_RISCV/dhry_1.c:302
    /* then, executed */
  {
    Next_Record->variant.var_1.Int_Comp = 6;
80000cd8:	fec42783          	lw	a5,-20(s0)
80000cdc:	00600713          	li	a4,6
80000ce0:	00e7a623          	sw	a4,12(a5)
C:\Microsemi\SoftConsole_v5.3.0.30-20180629-171539\extras\workspace.examples\Dhrystone_RISCV/dhry_1.c:303
    Proc_6 (Ptr_Val_Par->variant.var_1.Enum_Comp, 
80000ce4:	fdc42783          	lw	a5,-36(s0)
80000ce8:	0087a703          	lw	a4,8(a5)
80000cec:	fec42783          	lw	a5,-20(s0)
80000cf0:	00878793          	addi	a5,a5,8
80000cf4:	00078593          	mv	a1,a5
80000cf8:	00070513          	mv	a0,a4
80000cfc:	200000ef          	jal	ra,80000efc <Proc_6>
C:\Microsemi\SoftConsole_v5.3.0.30-20180629-171539\extras\workspace.examples\Dhrystone_RISCV/dhry_1.c:305
           &Next_Record->variant.var_1.Enum_Comp);
    Next_Record->Ptr_Comp = Ptr_Glob->Ptr_Comp;
80000d00:	cc01a783          	lw	a5,-832(gp) # 800072a0 <__data_end>
80000d04:	0007a703          	lw	a4,0(a5)
80000d08:	fec42783          	lw	a5,-20(s0)
80000d0c:	00e7a023          	sw	a4,0(a5)
C:\Microsemi\SoftConsole_v5.3.0.30-20180629-171539\extras\workspace.examples\Dhrystone_RISCV/dhry_1.c:306
    Proc_7 (Next_Record->variant.var_1.Int_Comp, 10, 
80000d10:	fec42783          	lw	a5,-20(s0)
80000d14:	00c7a703          	lw	a4,12(a5)
80000d18:	fec42783          	lw	a5,-20(s0)
80000d1c:	00c78793          	addi	a5,a5,12
80000d20:	00078613          	mv	a2,a5
80000d24:	00a00593          	li	a1,10
80000d28:	00070513          	mv	a0,a4
80000d2c:	2a8000ef          	jal	ra,80000fd4 <Proc_7>
80000d30:	0700006f          	j	80000da0 <Proc_1+0x198>
C:\Microsemi\SoftConsole_v5.3.0.30-20180629-171539\extras\workspace.examples\Dhrystone_RISCV/dhry_1.c:310
           &Next_Record->variant.var_1.Int_Comp);
  }
  else /* not executed */
    structassign (*Ptr_Val_Par, *Ptr_Val_Par->Ptr_Comp);
80000d34:	fdc42783          	lw	a5,-36(s0)
80000d38:	0007a703          	lw	a4,0(a5)
80000d3c:	fdc42783          	lw	a5,-36(s0)
80000d40:	00072f83          	lw	t6,0(a4)
80000d44:	00472f03          	lw	t5,4(a4)
80000d48:	00872e83          	lw	t4,8(a4)
80000d4c:	00c72e03          	lw	t3,12(a4)
80000d50:	01072303          	lw	t1,16(a4)
80000d54:	01472883          	lw	a7,20(a4)
80000d58:	01872803          	lw	a6,24(a4)
80000d5c:	01c72503          	lw	a0,28(a4)
80000d60:	02072583          	lw	a1,32(a4)
80000d64:	02472603          	lw	a2,36(a4)
80000d68:	02872683          	lw	a3,40(a4)
80000d6c:	02c72703          	lw	a4,44(a4)
80000d70:	01f7a023          	sw	t6,0(a5)
80000d74:	01e7a223          	sw	t5,4(a5)
80000d78:	01d7a423          	sw	t4,8(a5)
80000d7c:	01c7a623          	sw	t3,12(a5)
80000d80:	0067a823          	sw	t1,16(a5)
80000d84:	0117aa23          	sw	a7,20(a5)
80000d88:	0107ac23          	sw	a6,24(a5)
80000d8c:	00a7ae23          	sw	a0,28(a5)
80000d90:	02b7a023          	sw	a1,32(a5)
80000d94:	02c7a223          	sw	a2,36(a5)
80000d98:	02d7a423          	sw	a3,40(a5)
80000d9c:	02e7a623          	sw	a4,44(a5)
C:\Microsemi\SoftConsole_v5.3.0.30-20180629-171539\extras\workspace.examples\Dhrystone_RISCV/dhry_1.c:311
} /* Proc_1 */
80000da0:	00000013          	nop
80000da4:	00078513          	mv	a0,a5
80000da8:	02c12083          	lw	ra,44(sp)
80000dac:	02812403          	lw	s0,40(sp)
80000db0:	03010113          	addi	sp,sp,48
80000db4:	00008067          	ret

80000db8 <Proc_2>:
Proc_2():
C:\Microsemi\SoftConsole_v5.3.0.30-20180629-171539\extras\workspace.examples\Dhrystone_RISCV/dhry_1.c:320
/******************/
    /* executed once */
    /* *Int_Par_Ref == 1, becomes 4 */

One_Fifty   *Int_Par_Ref;
{
80000db8:	fd010113          	addi	sp,sp,-48
80000dbc:	02812623          	sw	s0,44(sp)
80000dc0:	03010413          	addi	s0,sp,48
80000dc4:	fca42e23          	sw	a0,-36(s0)
C:\Microsemi\SoftConsole_v5.3.0.30-20180629-171539\extras\workspace.examples\Dhrystone_RISCV/dhry_1.c:324
  One_Fifty  Int_Loc;  
  Enumeration   Enum_Loc;

  Int_Loc = *Int_Par_Ref + 10;
80000dc8:	fdc42783          	lw	a5,-36(s0)
80000dcc:	0007a783          	lw	a5,0(a5)
80000dd0:	00a78793          	addi	a5,a5,10
80000dd4:	fef42623          	sw	a5,-20(s0)
C:\Microsemi\SoftConsole_v5.3.0.30-20180629-171539\extras\workspace.examples\Dhrystone_RISCV/dhry_1.c:326
  do /* executed once */
    if (Ch_1_Glob == 'A')
80000dd8:	cd01c703          	lbu	a4,-816(gp) # 800072b0 <Ch_1_Glob>
80000ddc:	04100793          	li	a5,65
80000de0:	02f71463          	bne	a4,a5,80000e08 <Proc_2+0x50>
C:\Microsemi\SoftConsole_v5.3.0.30-20180629-171539\extras\workspace.examples\Dhrystone_RISCV/dhry_1.c:329
      /* then, executed */
    {
      Int_Loc -= 1;
80000de4:	fec42783          	lw	a5,-20(s0)
80000de8:	fff78793          	addi	a5,a5,-1
80000dec:	fef42623          	sw	a5,-20(s0)
C:\Microsemi\SoftConsole_v5.3.0.30-20180629-171539\extras\workspace.examples\Dhrystone_RISCV/dhry_1.c:330
      *Int_Par_Ref = Int_Loc - Int_Glob;
80000df0:	cc81a783          	lw	a5,-824(gp) # 800072a8 <Int_Glob>
80000df4:	fec42703          	lw	a4,-20(s0)
80000df8:	40f70733          	sub	a4,a4,a5
80000dfc:	fdc42783          	lw	a5,-36(s0)
80000e00:	00e7a023          	sw	a4,0(a5)
C:\Microsemi\SoftConsole_v5.3.0.30-20180629-171539\extras\workspace.examples\Dhrystone_RISCV/dhry_1.c:331
      Enum_Loc = Ident_1;
80000e04:	fe042423          	sw	zero,-24(s0)
C:\Microsemi\SoftConsole_v5.3.0.30-20180629-171539\extras\workspace.examples\Dhrystone_RISCV/dhry_1.c:333
    } /* if */
  while (Enum_Loc != Ident_1); /* true */
80000e08:	fe842783          	lw	a5,-24(s0)
80000e0c:	fc0796e3          	bnez	a5,80000dd8 <Proc_2+0x20>
C:\Microsemi\SoftConsole_v5.3.0.30-20180629-171539\extras\workspace.examples\Dhrystone_RISCV/dhry_1.c:334
} /* Proc_2 */
80000e10:	00000013          	nop
80000e14:	00078513          	mv	a0,a5
80000e18:	02c12403          	lw	s0,44(sp)
80000e1c:	03010113          	addi	sp,sp,48
80000e20:	00008067          	ret

80000e24 <Proc_3>:
Proc_3():
C:\Microsemi\SoftConsole_v5.3.0.30-20180629-171539\extras\workspace.examples\Dhrystone_RISCV/dhry_1.c:344
    /* executed once */
    /* Ptr_Ref_Par becomes Ptr_Glob */

Rec_Pointer *Ptr_Ref_Par;

{
80000e24:	fe010113          	addi	sp,sp,-32
80000e28:	00112e23          	sw	ra,28(sp)
80000e2c:	00812c23          	sw	s0,24(sp)
80000e30:	02010413          	addi	s0,sp,32
80000e34:	fea42623          	sw	a0,-20(s0)
C:\Microsemi\SoftConsole_v5.3.0.30-20180629-171539\extras\workspace.examples\Dhrystone_RISCV/dhry_1.c:345
  if (Ptr_Glob != Null)
80000e38:	cc01a783          	lw	a5,-832(gp) # 800072a0 <__data_end>
80000e3c:	00078a63          	beqz	a5,80000e50 <Proc_3+0x2c>
C:\Microsemi\SoftConsole_v5.3.0.30-20180629-171539\extras\workspace.examples\Dhrystone_RISCV/dhry_1.c:347
    /* then, executed */
    *Ptr_Ref_Par = Ptr_Glob->Ptr_Comp;
80000e40:	cc01a783          	lw	a5,-832(gp) # 800072a0 <__data_end>
80000e44:	0007a703          	lw	a4,0(a5)
80000e48:	fec42783          	lw	a5,-20(s0)
80000e4c:	00e7a023          	sw	a4,0(a5)
C:\Microsemi\SoftConsole_v5.3.0.30-20180629-171539\extras\workspace.examples\Dhrystone_RISCV/dhry_1.c:348
  Proc_7 (10, Int_Glob, &Ptr_Glob->variant.var_1.Int_Comp);
80000e50:	cc81a703          	lw	a4,-824(gp) # 800072a8 <Int_Glob>
80000e54:	cc01a783          	lw	a5,-832(gp) # 800072a0 <__data_end>
80000e58:	00c78793          	addi	a5,a5,12
80000e5c:	00078613          	mv	a2,a5
80000e60:	00070593          	mv	a1,a4
80000e64:	00a00513          	li	a0,10
80000e68:	16c000ef          	jal	ra,80000fd4 <Proc_7>
C:\Microsemi\SoftConsole_v5.3.0.30-20180629-171539\extras\workspace.examples\Dhrystone_RISCV/dhry_1.c:349
} /* Proc_3 */
80000e6c:	00000013          	nop
80000e70:	00078513          	mv	a0,a5
80000e74:	01c12083          	lw	ra,28(sp)
80000e78:	01812403          	lw	s0,24(sp)
80000e7c:	02010113          	addi	sp,sp,32
80000e80:	00008067          	ret

80000e84 <Proc_4>:
Proc_4():
C:\Microsemi\SoftConsole_v5.3.0.30-20180629-171539\extras\workspace.examples\Dhrystone_RISCV/dhry_1.c:355


Proc_4 () /* without parameters */
/*******/
    /* executed once */
{
80000e84:	fe010113          	addi	sp,sp,-32
80000e88:	00812e23          	sw	s0,28(sp)
80000e8c:	02010413          	addi	s0,sp,32
C:\Microsemi\SoftConsole_v5.3.0.30-20180629-171539\extras\workspace.examples\Dhrystone_RISCV/dhry_1.c:358
  Boolean Bool_Loc;

  Bool_Loc = Ch_1_Glob == 'A';
80000e90:	cd01c783          	lbu	a5,-816(gp) # 800072b0 <Ch_1_Glob>
80000e94:	fbf78793          	addi	a5,a5,-65
80000e98:	0017b793          	seqz	a5,a5
80000e9c:	0ff7f793          	andi	a5,a5,255
80000ea0:	fef42623          	sw	a5,-20(s0)
C:\Microsemi\SoftConsole_v5.3.0.30-20180629-171539\extras\workspace.examples\Dhrystone_RISCV/dhry_1.c:359
  Bool_Glob = Bool_Loc | Bool_Glob;
80000ea4:	ccc1a703          	lw	a4,-820(gp) # 800072ac <Bool_Glob>
80000ea8:	fec42783          	lw	a5,-20(s0)
80000eac:	00f76733          	or	a4,a4,a5
80000eb0:	cce1a623          	sw	a4,-820(gp) # 800072ac <Bool_Glob>
C:\Microsemi\SoftConsole_v5.3.0.30-20180629-171539\extras\workspace.examples\Dhrystone_RISCV/dhry_1.c:360
  Ch_2_Glob = 'B';
80000eb4:	04200713          	li	a4,66
80000eb8:	cce188a3          	sb	a4,-815(gp) # 800072b1 <Ch_2_Glob>
C:\Microsemi\SoftConsole_v5.3.0.30-20180629-171539\extras\workspace.examples\Dhrystone_RISCV/dhry_1.c:361
} /* Proc_4 */
80000ebc:	00000013          	nop
80000ec0:	00078513          	mv	a0,a5
80000ec4:	01c12403          	lw	s0,28(sp)
80000ec8:	02010113          	addi	sp,sp,32
80000ecc:	00008067          	ret

80000ed0 <Proc_5>:
Proc_5():
C:\Microsemi\SoftConsole_v5.3.0.30-20180629-171539\extras\workspace.examples\Dhrystone_RISCV/dhry_1.c:367


Proc_5 () /* without parameters */
/*******/
    /* executed once */
{
80000ed0:	ff010113          	addi	sp,sp,-16
80000ed4:	00812623          	sw	s0,12(sp)
80000ed8:	01010413          	addi	s0,sp,16
C:\Microsemi\SoftConsole_v5.3.0.30-20180629-171539\extras\workspace.examples\Dhrystone_RISCV/dhry_1.c:368
  Ch_1_Glob = 'A';
80000edc:	04100713          	li	a4,65
80000ee0:	cce18823          	sb	a4,-816(gp) # 800072b0 <Ch_1_Glob>
C:\Microsemi\SoftConsole_v5.3.0.30-20180629-171539\extras\workspace.examples\Dhrystone_RISCV/dhry_1.c:369
  Bool_Glob = false;
80000ee4:	cc01a623          	sw	zero,-820(gp) # 800072ac <Bool_Glob>
C:\Microsemi\SoftConsole_v5.3.0.30-20180629-171539\extras\workspace.examples\Dhrystone_RISCV/dhry_1.c:370
} /* Proc_5 */
80000ee8:	00000013          	nop
80000eec:	00078513          	mv	a0,a5
80000ef0:	00c12403          	lw	s0,12(sp)
80000ef4:	01010113          	addi	sp,sp,16
80000ef8:	00008067          	ret

80000efc <Proc_6>:
Proc_6():
C:\Microsemi\SoftConsole_v5.3.0.30-20180629-171539\extras\workspace.examples\Dhrystone_RISCV/dhry_2.c:37
    /* executed once */
    /* Enum_Val_Par == Ident_3, Enum_Ref_Par becomes Ident_2 */

Enumeration  Enum_Val_Par;
Enumeration *Enum_Ref_Par;
{
80000efc:	fe010113          	addi	sp,sp,-32
80000f00:	00112e23          	sw	ra,28(sp)
80000f04:	00812c23          	sw	s0,24(sp)
80000f08:	02010413          	addi	s0,sp,32
80000f0c:	fea42623          	sw	a0,-20(s0)
80000f10:	feb42423          	sw	a1,-24(s0)
C:\Microsemi\SoftConsole_v5.3.0.30-20180629-171539\extras\workspace.examples\Dhrystone_RISCV/dhry_2.c:38
  *Enum_Ref_Par = Enum_Val_Par;
80000f14:	fe842783          	lw	a5,-24(s0)
80000f18:	fec42703          	lw	a4,-20(s0)
80000f1c:	00e7a023          	sw	a4,0(a5)
C:\Microsemi\SoftConsole_v5.3.0.30-20180629-171539\extras\workspace.examples\Dhrystone_RISCV/dhry_2.c:39
  if (! Func_3 (Enum_Val_Par))
80000f20:	fec42503          	lw	a0,-20(s0)
80000f24:	3e4000ef          	jal	ra,80001308 <Func_3>
80000f28:	00050793          	mv	a5,a0
80000f2c:	00079863          	bnez	a5,80000f3c <Proc_6+0x40>
C:\Microsemi\SoftConsole_v5.3.0.30-20180629-171539\extras\workspace.examples\Dhrystone_RISCV/dhry_2.c:41
    /* then, not executed */
    *Enum_Ref_Par = Ident_4;
80000f30:	fe842783          	lw	a5,-24(s0)
80000f34:	00300713          	li	a4,3
80000f38:	00e7a023          	sw	a4,0(a5)
C:\Microsemi\SoftConsole_v5.3.0.30-20180629-171539\extras\workspace.examples\Dhrystone_RISCV/dhry_2.c:42
  switch (Enum_Val_Par)
80000f3c:	fec42703          	lw	a4,-20(s0)
80000f40:	00400793          	li	a5,4
80000f44:	06e7ec63          	bltu	a5,a4,80000fbc <Proc_6+0xc0>
80000f48:	fec42783          	lw	a5,-20(s0)
80000f4c:	00279713          	slli	a4,a5,0x2
80000f50:	800077b7          	lui	a5,0x80007
80000f54:	9e078793          	addi	a5,a5,-1568 # 800069e0 <__stack_top+0xffffbf10>
80000f58:	00f707b3          	add	a5,a4,a5
80000f5c:	0007a783          	lw	a5,0(a5)
80000f60:	00078067          	jr	a5
C:\Microsemi\SoftConsole_v5.3.0.30-20180629-171539\extras\workspace.examples\Dhrystone_RISCV/dhry_2.c:45
  {
    case Ident_1: 
      *Enum_Ref_Par = Ident_1;
80000f64:	fe842783          	lw	a5,-24(s0)
80000f68:	0007a023          	sw	zero,0(a5)
C:\Microsemi\SoftConsole_v5.3.0.30-20180629-171539\extras\workspace.examples\Dhrystone_RISCV/dhry_2.c:46
      break;
80000f6c:	0500006f          	j	80000fbc <Proc_6+0xc0>
C:\Microsemi\SoftConsole_v5.3.0.30-20180629-171539\extras\workspace.examples\Dhrystone_RISCV/dhry_2.c:48
    case Ident_2: 
      if (Int_Glob > 100)
80000f70:	cc81a703          	lw	a4,-824(gp) # 800072a8 <Int_Glob>
80000f74:	06400793          	li	a5,100
80000f78:	00e7d863          	ble	a4,a5,80000f88 <Proc_6+0x8c>
C:\Microsemi\SoftConsole_v5.3.0.30-20180629-171539\extras\workspace.examples\Dhrystone_RISCV/dhry_2.c:50
        /* then */
      *Enum_Ref_Par = Ident_1;
80000f7c:	fe842783          	lw	a5,-24(s0)
80000f80:	0007a023          	sw	zero,0(a5)
C:\Microsemi\SoftConsole_v5.3.0.30-20180629-171539\extras\workspace.examples\Dhrystone_RISCV/dhry_2.c:52
      else *Enum_Ref_Par = Ident_4;
      break;
80000f84:	0380006f          	j	80000fbc <Proc_6+0xc0>
C:\Microsemi\SoftConsole_v5.3.0.30-20180629-171539\extras\workspace.examples\Dhrystone_RISCV/dhry_2.c:51
      else *Enum_Ref_Par = Ident_4;
80000f88:	fe842783          	lw	a5,-24(s0)
80000f8c:	00300713          	li	a4,3
80000f90:	00e7a023          	sw	a4,0(a5)
C:\Microsemi\SoftConsole_v5.3.0.30-20180629-171539\extras\workspace.examples\Dhrystone_RISCV/dhry_2.c:52
      break;
80000f94:	0280006f          	j	80000fbc <Proc_6+0xc0>
C:\Microsemi\SoftConsole_v5.3.0.30-20180629-171539\extras\workspace.examples\Dhrystone_RISCV/dhry_2.c:54
    case Ident_3: /* executed */
      *Enum_Ref_Par = Ident_2;
80000f98:	fe842783          	lw	a5,-24(s0)
80000f9c:	00100713          	li	a4,1
80000fa0:	00e7a023          	sw	a4,0(a5)
C:\Microsemi\SoftConsole_v5.3.0.30-20180629-171539\extras\workspace.examples\Dhrystone_RISCV/dhry_2.c:55
      break;
80000fa4:	0180006f          	j	80000fbc <Proc_6+0xc0>
C:\Microsemi\SoftConsole_v5.3.0.30-20180629-171539\extras\workspace.examples\Dhrystone_RISCV/dhry_2.c:58
    case Ident_4: break;
    case Ident_5: 
      *Enum_Ref_Par = Ident_3;
80000fa8:	fe842783          	lw	a5,-24(s0)
80000fac:	00200713          	li	a4,2
80000fb0:	00e7a023          	sw	a4,0(a5)
C:\Microsemi\SoftConsole_v5.3.0.30-20180629-171539\extras\workspace.examples\Dhrystone_RISCV/dhry_2.c:59
      break;
80000fb4:	0080006f          	j	80000fbc <Proc_6+0xc0>
C:\Microsemi\SoftConsole_v5.3.0.30-20180629-171539\extras\workspace.examples\Dhrystone_RISCV/dhry_2.c:56
    case Ident_4: break;
80000fb8:	00000013          	nop
C:\Microsemi\SoftConsole_v5.3.0.30-20180629-171539\extras\workspace.examples\Dhrystone_RISCV/dhry_2.c:61
  } /* switch */
} /* Proc_6 */
80000fbc:	00000013          	nop
80000fc0:	00078513          	mv	a0,a5
80000fc4:	01c12083          	lw	ra,28(sp)
80000fc8:	01812403          	lw	s0,24(sp)
80000fcc:	02010113          	addi	sp,sp,32
80000fd0:	00008067          	ret

80000fd4 <Proc_7>:
Proc_7():
C:\Microsemi\SoftConsole_v5.3.0.30-20180629-171539\extras\workspace.examples\Dhrystone_RISCV/dhry_2.c:76
    /* third call:      Int_1_Par_Val == 6, Int_2_Par_Val == 10, */
    /*                  Int_Par_Ref becomes 18                   */
One_Fifty       Int_1_Par_Val;
One_Fifty       Int_2_Par_Val;
One_Fifty      *Int_Par_Ref;
{
80000fd4:	fd010113          	addi	sp,sp,-48
80000fd8:	02812623          	sw	s0,44(sp)
80000fdc:	03010413          	addi	s0,sp,48
80000fe0:	fca42e23          	sw	a0,-36(s0)
80000fe4:	fcb42c23          	sw	a1,-40(s0)
80000fe8:	fcc42a23          	sw	a2,-44(s0)
C:\Microsemi\SoftConsole_v5.3.0.30-20180629-171539\extras\workspace.examples\Dhrystone_RISCV/dhry_2.c:79
  One_Fifty Int_Loc;

  Int_Loc = Int_1_Par_Val + 2;
80000fec:	fdc42783          	lw	a5,-36(s0)
80000ff0:	00278793          	addi	a5,a5,2
80000ff4:	fef42623          	sw	a5,-20(s0)
C:\Microsemi\SoftConsole_v5.3.0.30-20180629-171539\extras\workspace.examples\Dhrystone_RISCV/dhry_2.c:80
  *Int_Par_Ref = Int_2_Par_Val + Int_Loc;
80000ff8:	fd842703          	lw	a4,-40(s0)
80000ffc:	fec42783          	lw	a5,-20(s0)
80001000:	00f70733          	add	a4,a4,a5
80001004:	fd442783          	lw	a5,-44(s0)
80001008:	00e7a023          	sw	a4,0(a5)
C:\Microsemi\SoftConsole_v5.3.0.30-20180629-171539\extras\workspace.examples\Dhrystone_RISCV/dhry_2.c:81
} /* Proc_7 */
8000100c:	00000013          	nop
80001010:	00078513          	mv	a0,a5
80001014:	02c12403          	lw	s0,44(sp)
80001018:	03010113          	addi	sp,sp,48
8000101c:	00008067          	ret

80001020 <Proc_8>:
Proc_8():
C:\Microsemi\SoftConsole_v5.3.0.30-20180629-171539\extras\workspace.examples\Dhrystone_RISCV/dhry_2.c:93
    /* Int_Par_Val_2 == 7 */
Arr_1_Dim       Arr_1_Par_Ref;
Arr_2_Dim       Arr_2_Par_Ref;
int             Int_1_Par_Val;
int             Int_2_Par_Val;
{
80001020:	fd010113          	addi	sp,sp,-48
80001024:	02812623          	sw	s0,44(sp)
80001028:	03010413          	addi	s0,sp,48
8000102c:	fca42e23          	sw	a0,-36(s0)
80001030:	fcb42c23          	sw	a1,-40(s0)
80001034:	fcc42a23          	sw	a2,-44(s0)
80001038:	fcd42823          	sw	a3,-48(s0)
C:\Microsemi\SoftConsole_v5.3.0.30-20180629-171539\extras\workspace.examples\Dhrystone_RISCV/dhry_2.c:97
  REG One_Fifty Int_Index;
  REG One_Fifty Int_Loc;

  Int_Loc = Int_1_Par_Val + 5;
8000103c:	fd442783          	lw	a5,-44(s0)
80001040:	00578793          	addi	a5,a5,5
80001044:	fef42423          	sw	a5,-24(s0)
C:\Microsemi\SoftConsole_v5.3.0.30-20180629-171539\extras\workspace.examples\Dhrystone_RISCV/dhry_2.c:98
  Arr_1_Par_Ref [Int_Loc] = Int_2_Par_Val;
80001048:	fe842783          	lw	a5,-24(s0)
8000104c:	00279793          	slli	a5,a5,0x2
80001050:	fdc42703          	lw	a4,-36(s0)
80001054:	00f707b3          	add	a5,a4,a5
80001058:	fd042703          	lw	a4,-48(s0)
8000105c:	00e7a023          	sw	a4,0(a5)
C:\Microsemi\SoftConsole_v5.3.0.30-20180629-171539\extras\workspace.examples\Dhrystone_RISCV/dhry_2.c:99
  Arr_1_Par_Ref [Int_Loc+1] = Arr_1_Par_Ref [Int_Loc];
80001060:	fe842783          	lw	a5,-24(s0)
80001064:	00279793          	slli	a5,a5,0x2
80001068:	fdc42703          	lw	a4,-36(s0)
8000106c:	00f70733          	add	a4,a4,a5
80001070:	fe842783          	lw	a5,-24(s0)
80001074:	00178793          	addi	a5,a5,1
80001078:	00279793          	slli	a5,a5,0x2
8000107c:	fdc42683          	lw	a3,-36(s0)
80001080:	00f687b3          	add	a5,a3,a5
80001084:	00072703          	lw	a4,0(a4)
80001088:	00e7a023          	sw	a4,0(a5)
C:\Microsemi\SoftConsole_v5.3.0.30-20180629-171539\extras\workspace.examples\Dhrystone_RISCV/dhry_2.c:100
  Arr_1_Par_Ref [Int_Loc+30] = Int_Loc;
8000108c:	fe842783          	lw	a5,-24(s0)
80001090:	01e78793          	addi	a5,a5,30
80001094:	00279793          	slli	a5,a5,0x2
80001098:	fdc42703          	lw	a4,-36(s0)
8000109c:	00f707b3          	add	a5,a4,a5
800010a0:	fe842703          	lw	a4,-24(s0)
800010a4:	00e7a023          	sw	a4,0(a5)
C:\Microsemi\SoftConsole_v5.3.0.30-20180629-171539\extras\workspace.examples\Dhrystone_RISCV/dhry_2.c:101
  for (Int_Index = Int_Loc; Int_Index <= Int_Loc+1; ++Int_Index)
800010a8:	fe842783          	lw	a5,-24(s0)
800010ac:	fef42623          	sw	a5,-20(s0)
800010b0:	0380006f          	j	800010e8 <Proc_8+0xc8>
C:\Microsemi\SoftConsole_v5.3.0.30-20180629-171539\extras\workspace.examples\Dhrystone_RISCV/dhry_2.c:102 (discriminator 3)
    Arr_2_Par_Ref [Int_Loc] [Int_Index] = Int_Loc;
800010b4:	fe842703          	lw	a4,-24(s0)
800010b8:	0c800793          	li	a5,200
800010bc:	02f707b3          	mul	a5,a4,a5
800010c0:	fd842703          	lw	a4,-40(s0)
800010c4:	00f70733          	add	a4,a4,a5
800010c8:	fec42783          	lw	a5,-20(s0)
800010cc:	00279793          	slli	a5,a5,0x2
800010d0:	00f707b3          	add	a5,a4,a5
800010d4:	fe842703          	lw	a4,-24(s0)
800010d8:	00e7a023          	sw	a4,0(a5)
C:\Microsemi\SoftConsole_v5.3.0.30-20180629-171539\extras\workspace.examples\Dhrystone_RISCV/dhry_2.c:101 (discriminator 3)
  for (Int_Index = Int_Loc; Int_Index <= Int_Loc+1; ++Int_Index)
800010dc:	fec42783          	lw	a5,-20(s0)
800010e0:	00178793          	addi	a5,a5,1
800010e4:	fef42623          	sw	a5,-20(s0)
C:\Microsemi\SoftConsole_v5.3.0.30-20180629-171539\extras\workspace.examples\Dhrystone_RISCV/dhry_2.c:101 (discriminator 1)
800010e8:	fe842783          	lw	a5,-24(s0)
800010ec:	00178793          	addi	a5,a5,1
800010f0:	fec42703          	lw	a4,-20(s0)
800010f4:	fce7d0e3          	ble	a4,a5,800010b4 <Proc_8+0x94>
C:\Microsemi\SoftConsole_v5.3.0.30-20180629-171539\extras\workspace.examples\Dhrystone_RISCV/dhry_2.c:103
  Arr_2_Par_Ref [Int_Loc] [Int_Loc-1] += 1;
800010f8:	fe842703          	lw	a4,-24(s0)
800010fc:	0c800793          	li	a5,200
80001100:	02f707b3          	mul	a5,a4,a5
80001104:	fd842703          	lw	a4,-40(s0)
80001108:	00f70733          	add	a4,a4,a5
8000110c:	fe842783          	lw	a5,-24(s0)
80001110:	fff78793          	addi	a5,a5,-1
80001114:	00279793          	slli	a5,a5,0x2
80001118:	00f707b3          	add	a5,a4,a5
8000111c:	0007a703          	lw	a4,0(a5)
80001120:	fe842683          	lw	a3,-24(s0)
80001124:	0c800793          	li	a5,200
80001128:	02f687b3          	mul	a5,a3,a5
8000112c:	fd842683          	lw	a3,-40(s0)
80001130:	00f686b3          	add	a3,a3,a5
80001134:	fe842783          	lw	a5,-24(s0)
80001138:	fff78793          	addi	a5,a5,-1
8000113c:	00170713          	addi	a4,a4,1
80001140:	00279793          	slli	a5,a5,0x2
80001144:	00f687b3          	add	a5,a3,a5
80001148:	00e7a023          	sw	a4,0(a5)
C:\Microsemi\SoftConsole_v5.3.0.30-20180629-171539\extras\workspace.examples\Dhrystone_RISCV/dhry_2.c:104
  Arr_2_Par_Ref [Int_Loc+20] [Int_Loc] = Arr_1_Par_Ref [Int_Loc];
8000114c:	fe842783          	lw	a5,-24(s0)
80001150:	00279793          	slli	a5,a5,0x2
80001154:	fdc42703          	lw	a4,-36(s0)
80001158:	00f707b3          	add	a5,a4,a5
8000115c:	fe842683          	lw	a3,-24(s0)
80001160:	0c800713          	li	a4,200
80001164:	02e686b3          	mul	a3,a3,a4
80001168:	00001737          	lui	a4,0x1
8000116c:	fa070713          	addi	a4,a4,-96 # fa0 <HEAP_SIZE+0x7a0>
80001170:	00e68733          	add	a4,a3,a4
80001174:	fd842683          	lw	a3,-40(s0)
80001178:	00e686b3          	add	a3,a3,a4
8000117c:	0007a703          	lw	a4,0(a5)
80001180:	fe842783          	lw	a5,-24(s0)
80001184:	00279793          	slli	a5,a5,0x2
80001188:	00f687b3          	add	a5,a3,a5
8000118c:	00e7a023          	sw	a4,0(a5)
C:\Microsemi\SoftConsole_v5.3.0.30-20180629-171539\extras\workspace.examples\Dhrystone_RISCV/dhry_2.c:105
  Int_Glob = 5;
80001190:	00500713          	li	a4,5
80001194:	cce1a423          	sw	a4,-824(gp) # 800072a8 <Int_Glob>
C:\Microsemi\SoftConsole_v5.3.0.30-20180629-171539\extras\workspace.examples\Dhrystone_RISCV/dhry_2.c:106
} /* Proc_8 */
80001198:	00000013          	nop
8000119c:	00078513          	mv	a0,a5
800011a0:	02c12403          	lw	s0,44(sp)
800011a4:	03010113          	addi	sp,sp,48
800011a8:	00008067          	ret

800011ac <Func_1>:
Func_1():
C:\Microsemi\SoftConsole_v5.3.0.30-20180629-171539\extras\workspace.examples\Dhrystone_RISCV/dhry_2.c:118
    /* second call:     Ch_1_Par_Val == 'A', Ch_2_Par_Val == 'C'    */
    /* third call:      Ch_1_Par_Val == 'B', Ch_2_Par_Val == 'C'    */

Capital_Letter   Ch_1_Par_Val;
Capital_Letter   Ch_2_Par_Val;
{
800011ac:	fd010113          	addi	sp,sp,-48
800011b0:	02812623          	sw	s0,44(sp)
800011b4:	03010413          	addi	s0,sp,48
800011b8:	00050793          	mv	a5,a0
800011bc:	00058713          	mv	a4,a1
800011c0:	fcf40e23          	sb	a5,-36(s0)
800011c4:	00070793          	mv	a5,a4
800011c8:	fcf40c23          	sb	a5,-40(s0)
C:\Microsemi\SoftConsole_v5.3.0.30-20180629-171539\extras\workspace.examples\Dhrystone_RISCV/dhry_2.c:122
  Capital_Letter        Ch_1_Loc;
  Capital_Letter        Ch_2_Loc;

  Ch_1_Loc = Ch_1_Par_Val;
800011cc:	fdc44783          	lbu	a5,-36(s0)
800011d0:	fef407a3          	sb	a5,-17(s0)
C:\Microsemi\SoftConsole_v5.3.0.30-20180629-171539\extras\workspace.examples\Dhrystone_RISCV/dhry_2.c:123
  Ch_2_Loc = Ch_1_Loc;
800011d4:	fef44783          	lbu	a5,-17(s0)
800011d8:	fef40723          	sb	a5,-18(s0)
C:\Microsemi\SoftConsole_v5.3.0.30-20180629-171539\extras\workspace.examples\Dhrystone_RISCV/dhry_2.c:124
  if (Ch_2_Loc != Ch_2_Par_Val)
800011dc:	fee44703          	lbu	a4,-18(s0)
800011e0:	fd844783          	lbu	a5,-40(s0)
800011e4:	00f70663          	beq	a4,a5,800011f0 <Func_1+0x44>
C:\Microsemi\SoftConsole_v5.3.0.30-20180629-171539\extras\workspace.examples\Dhrystone_RISCV/dhry_2.c:126
    /* then, executed */
    return (Ident_1);
800011e8:	00000793          	li	a5,0
800011ec:	0100006f          	j	800011fc <Func_1+0x50>
C:\Microsemi\SoftConsole_v5.3.0.30-20180629-171539\extras\workspace.examples\Dhrystone_RISCV/dhry_2.c:129
  else  /* not executed */
  {
    Ch_1_Glob = Ch_1_Loc;
800011f0:	fef44703          	lbu	a4,-17(s0)
800011f4:	cce18823          	sb	a4,-816(gp) # 800072b0 <Ch_1_Glob>
C:\Microsemi\SoftConsole_v5.3.0.30-20180629-171539\extras\workspace.examples\Dhrystone_RISCV/dhry_2.c:130
    return (Ident_2);
800011f8:	00100793          	li	a5,1
C:\Microsemi\SoftConsole_v5.3.0.30-20180629-171539\extras\workspace.examples\Dhrystone_RISCV/dhry_2.c:132
   }
} /* Func_1 */
800011fc:	00078513          	mv	a0,a5
80001200:	02c12403          	lw	s0,44(sp)
80001204:	03010113          	addi	sp,sp,48
80001208:	00008067          	ret

8000120c <Func_2>:
Func_2():
C:\Microsemi\SoftConsole_v5.3.0.30-20180629-171539\extras\workspace.examples\Dhrystone_RISCV/dhry_2.c:143
    /* Str_1_Par_Ref == "DHRYSTONE PROGRAM, 1'ST STRING" */
    /* Str_2_Par_Ref == "DHRYSTONE PROGRAM, 2'ND STRING" */

Str_30  Str_1_Par_Ref;
Str_30  Str_2_Par_Ref;
{
8000120c:	fd010113          	addi	sp,sp,-48
80001210:	02112623          	sw	ra,44(sp)
80001214:	02812423          	sw	s0,40(sp)
80001218:	03010413          	addi	s0,sp,48
8000121c:	fca42e23          	sw	a0,-36(s0)
80001220:	fcb42c23          	sw	a1,-40(s0)
C:\Microsemi\SoftConsole_v5.3.0.30-20180629-171539\extras\workspace.examples\Dhrystone_RISCV/dhry_2.c:147
  REG One_Thirty        Int_Loc;
      Capital_Letter    Ch_Loc;

  Int_Loc = 2;
80001224:	00200793          	li	a5,2
80001228:	fef42623          	sw	a5,-20(s0)
C:\Microsemi\SoftConsole_v5.3.0.30-20180629-171539\extras\workspace.examples\Dhrystone_RISCV/dhry_2.c:148
  while (Int_Loc <= 2) /* loop body executed once */
8000122c:	0540006f          	j	80001280 <Func_2+0x74>
C:\Microsemi\SoftConsole_v5.3.0.30-20180629-171539\extras\workspace.examples\Dhrystone_RISCV/dhry_2.c:149
    if (Func_1 (Str_1_Par_Ref[Int_Loc],
80001230:	fec42783          	lw	a5,-20(s0)
80001234:	fdc42703          	lw	a4,-36(s0)
80001238:	00f707b3          	add	a5,a4,a5
8000123c:	0007c783          	lbu	a5,0(a5)
80001240:	00078693          	mv	a3,a5
C:\Microsemi\SoftConsole_v5.3.0.30-20180629-171539\extras\workspace.examples\Dhrystone_RISCV/dhry_2.c:150
                Str_2_Par_Ref[Int_Loc+1]) == Ident_1)
80001244:	fec42783          	lw	a5,-20(s0)
80001248:	00178793          	addi	a5,a5,1
8000124c:	fd842703          	lw	a4,-40(s0)
80001250:	00f707b3          	add	a5,a4,a5
80001254:	0007c783          	lbu	a5,0(a5)
C:\Microsemi\SoftConsole_v5.3.0.30-20180629-171539\extras\workspace.examples\Dhrystone_RISCV/dhry_2.c:149
    if (Func_1 (Str_1_Par_Ref[Int_Loc],
80001258:	00078593          	mv	a1,a5
8000125c:	00068513          	mv	a0,a3
80001260:	f4dff0ef          	jal	ra,800011ac <Func_1>
80001264:	00050793          	mv	a5,a0
80001268:	00079c63          	bnez	a5,80001280 <Func_2+0x74>
C:\Microsemi\SoftConsole_v5.3.0.30-20180629-171539\extras\workspace.examples\Dhrystone_RISCV/dhry_2.c:153
      /* then, executed */
    {
      Ch_Loc = 'A';
8000126c:	04100793          	li	a5,65
80001270:	fef405a3          	sb	a5,-21(s0)
C:\Microsemi\SoftConsole_v5.3.0.30-20180629-171539\extras\workspace.examples\Dhrystone_RISCV/dhry_2.c:154
      Int_Loc += 1;
80001274:	fec42783          	lw	a5,-20(s0)
80001278:	00178793          	addi	a5,a5,1
8000127c:	fef42623          	sw	a5,-20(s0)
C:\Microsemi\SoftConsole_v5.3.0.30-20180629-171539\extras\workspace.examples\Dhrystone_RISCV/dhry_2.c:148
  while (Int_Loc <= 2) /* loop body executed once */
80001280:	fec42703          	lw	a4,-20(s0)
80001284:	00200793          	li	a5,2
80001288:	fae7d4e3          	ble	a4,a5,80001230 <Func_2+0x24>
C:\Microsemi\SoftConsole_v5.3.0.30-20180629-171539\extras\workspace.examples\Dhrystone_RISCV/dhry_2.c:156
    } /* if, while */
  if (Ch_Loc >= 'W' && Ch_Loc < 'Z')
8000128c:	feb44703          	lbu	a4,-21(s0)
80001290:	05600793          	li	a5,86
80001294:	00e7fc63          	bleu	a4,a5,800012ac <Func_2+0xa0>
C:\Microsemi\SoftConsole_v5.3.0.30-20180629-171539\extras\workspace.examples\Dhrystone_RISCV/dhry_2.c:156 (discriminator 1)
80001298:	feb44703          	lbu	a4,-21(s0)
8000129c:	05900793          	li	a5,89
800012a0:	00e7e663          	bltu	a5,a4,800012ac <Func_2+0xa0>
C:\Microsemi\SoftConsole_v5.3.0.30-20180629-171539\extras\workspace.examples\Dhrystone_RISCV/dhry_2.c:158
    /* then, not executed */
    Int_Loc = 7;
800012a4:	00700793          	li	a5,7
800012a8:	fef42623          	sw	a5,-20(s0)
C:\Microsemi\SoftConsole_v5.3.0.30-20180629-171539\extras\workspace.examples\Dhrystone_RISCV/dhry_2.c:159
  if (Ch_Loc == 'R')
800012ac:	feb44703          	lbu	a4,-21(s0)
800012b0:	05200793          	li	a5,82
800012b4:	00f71663          	bne	a4,a5,800012c0 <Func_2+0xb4>
C:\Microsemi\SoftConsole_v5.3.0.30-20180629-171539\extras\workspace.examples\Dhrystone_RISCV/dhry_2.c:161
    /* then, not executed */
    return (true);
800012b8:	00100793          	li	a5,1
800012bc:	0380006f          	j	800012f4 <Func_2+0xe8>
C:\Microsemi\SoftConsole_v5.3.0.30-20180629-171539\extras\workspace.examples\Dhrystone_RISCV/dhry_2.c:164
  else /* executed */
  {
    if (strcmp (Str_1_Par_Ref, Str_2_Par_Ref) > 0)
800012c0:	fd842583          	lw	a1,-40(s0)
800012c4:	fdc42503          	lw	a0,-36(s0)
800012c8:	379020ef          	jal	ra,80003e40 <strcmp>
800012cc:	00050793          	mv	a5,a0
800012d0:	02f05063          	blez	a5,800012f0 <Func_2+0xe4>
C:\Microsemi\SoftConsole_v5.3.0.30-20180629-171539\extras\workspace.examples\Dhrystone_RISCV/dhry_2.c:167
      /* then, not executed */
    {
      Int_Loc += 7;
800012d4:	fec42783          	lw	a5,-20(s0)
800012d8:	00778793          	addi	a5,a5,7
800012dc:	fef42623          	sw	a5,-20(s0)
C:\Microsemi\SoftConsole_v5.3.0.30-20180629-171539\extras\workspace.examples\Dhrystone_RISCV/dhry_2.c:168
      Int_Glob = Int_Loc;
800012e0:	fec42703          	lw	a4,-20(s0)
800012e4:	cce1a423          	sw	a4,-824(gp) # 800072a8 <Int_Glob>
C:\Microsemi\SoftConsole_v5.3.0.30-20180629-171539\extras\workspace.examples\Dhrystone_RISCV/dhry_2.c:169
      return (true);
800012e8:	00100793          	li	a5,1
800012ec:	0080006f          	j	800012f4 <Func_2+0xe8>
C:\Microsemi\SoftConsole_v5.3.0.30-20180629-171539\extras\workspace.examples\Dhrystone_RISCV/dhry_2.c:172
    }
    else /* executed */
      return (false);
800012f0:	00000793          	li	a5,0
C:\Microsemi\SoftConsole_v5.3.0.30-20180629-171539\extras\workspace.examples\Dhrystone_RISCV/dhry_2.c:174
  } /* if Ch_Loc */
} /* Func_2 */
800012f4:	00078513          	mv	a0,a5
800012f8:	02c12083          	lw	ra,44(sp)
800012fc:	02812403          	lw	s0,40(sp)
80001300:	03010113          	addi	sp,sp,48
80001304:	00008067          	ret

80001308 <Func_3>:
Func_3():
C:\Microsemi\SoftConsole_v5.3.0.30-20180629-171539\extras\workspace.examples\Dhrystone_RISCV/dhry_2.c:182
Boolean Func_3 (Enum_Par_Val)
/***************************/
    /* executed once        */
    /* Enum_Par_Val == Ident_3 */
Enumeration Enum_Par_Val;
{
80001308:	fd010113          	addi	sp,sp,-48
8000130c:	02812623          	sw	s0,44(sp)
80001310:	03010413          	addi	s0,sp,48
80001314:	fca42e23          	sw	a0,-36(s0)
C:\Microsemi\SoftConsole_v5.3.0.30-20180629-171539\extras\workspace.examples\Dhrystone_RISCV/dhry_2.c:185
  Enumeration Enum_Loc;

  Enum_Loc = Enum_Par_Val;
80001318:	fdc42783          	lw	a5,-36(s0)
8000131c:	fef42623          	sw	a5,-20(s0)
C:\Microsemi\SoftConsole_v5.3.0.30-20180629-171539\extras\workspace.examples\Dhrystone_RISCV/dhry_2.c:186
  if (Enum_Loc == Ident_3)
80001320:	fec42703          	lw	a4,-20(s0)
80001324:	00200793          	li	a5,2
80001328:	00f71663          	bne	a4,a5,80001334 <Func_3+0x2c>
C:\Microsemi\SoftConsole_v5.3.0.30-20180629-171539\extras\workspace.examples\Dhrystone_RISCV/dhry_2.c:188
    /* then, executed */
    return (true);
8000132c:	00100793          	li	a5,1
80001330:	0080006f          	j	80001338 <Func_3+0x30>
C:\Microsemi\SoftConsole_v5.3.0.30-20180629-171539\extras\workspace.examples\Dhrystone_RISCV/dhry_2.c:190
  else /* not executed */
    return (false);
80001334:	00000793          	li	a5,0
C:\Microsemi\SoftConsole_v5.3.0.30-20180629-171539\extras\workspace.examples\Dhrystone_RISCV/dhry_2.c:191
} /* Func_3 */
80001338:	00078513          	mv	a0,a5
8000133c:	02c12403          	lw	s0,44(sp)
80001340:	03010113          	addi	sp,sp,48
80001344:	00008067          	ret

80001348 <time>:
time():
C:\Microsemi\SoftConsole_v5.3.0.30-20180629-171539\extras\workspace.examples\Dhrystone_RISCV/dhry_stubs.c:5
/* The functions in this file are only meant to support Dhrystone on an
 * embedded RV32 system and are obviously incorrect in general. */
// return the cycle counter as though it were the current time
long time(void)
{
80001348:	fe010113          	addi	sp,sp,-32
8000134c:	00812e23          	sw	s0,28(sp)
80001350:	02010413          	addi	s0,sp,32
C:\Microsemi\SoftConsole_v5.3.0.30-20180629-171539\extras\workspace.examples\Dhrystone_RISCV/dhry_stubs.c:7
  unsigned long t;
  asm volatile ("csrr %0, mcycle" : "=r" (t));
80001354:	b00027f3          	csrr	a5,mcycle
80001358:	fef42623          	sw	a5,-20(s0)
C:\Microsemi\SoftConsole_v5.3.0.30-20180629-171539\extras\workspace.examples\Dhrystone_RISCV/dhry_stubs.c:9
  // Assumes processor is at 100MHz and that you want time in ms.
  return t / 83000000;
8000135c:	fec42703          	lw	a4,-20(s0)
80001360:	04f287b7          	lui	a5,0x4f28
80001364:	ac078793          	addi	a5,a5,-1344 # 4f27ac0 <RAM_SIZE+0x4f17ac0>
80001368:	02f757b3          	divu	a5,a4,a5
C:\Microsemi\SoftConsole_v5.3.0.30-20180629-171539\extras\workspace.examples\Dhrystone_RISCV/dhry_stubs.c:10
}
8000136c:	00078513          	mv	a0,a5
80001370:	01c12403          	lw	s0,28(sp)
80001374:	02010113          	addi	sp,sp,32
80001378:	00008067          	ret

8000137c <scanf>:
scanf():
C:\Microsemi\SoftConsole_v5.3.0.30-20180629-171539\extras\workspace.examples\Dhrystone_RISCV/dhry_stubs.c:14

// set the number of dhrystone iterations
void scanf(const char* fmt, int* n)
{
8000137c:	fe010113          	addi	sp,sp,-32
80001380:	00812e23          	sw	s0,28(sp)
80001384:	02010413          	addi	s0,sp,32
80001388:	fea42623          	sw	a0,-20(s0)
8000138c:	feb42423          	sw	a1,-24(s0)
C:\Microsemi\SoftConsole_v5.3.0.30-20180629-171539\extras\workspace.examples\Dhrystone_RISCV/dhry_stubs.c:15
  *n = 100000;
80001390:	fe842783          	lw	a5,-24(s0)
80001394:	00018737          	lui	a4,0x18
80001398:	6a070713          	addi	a4,a4,1696 # 186a0 <RAM_SIZE+0x86a0>
8000139c:	00e7a023          	sw	a4,0(a5)
C:\Microsemi\SoftConsole_v5.3.0.30-20180629-171539\extras\workspace.examples\Dhrystone_RISCV/dhry_stubs.c:16
}
800013a0:	00000013          	nop
800013a4:	01c12403          	lw	s0,28(sp)
800013a8:	02010113          	addi	sp,sp,32
800013ac:	00008067          	ret

800013b0 <malloc>:
malloc():
C:\Microsemi\SoftConsole_v5.3.0.30-20180629-171539\extras\workspace.examples\Dhrystone_RISCV/dhry_stubs.c:20

// simple memory allocator
void* malloc(unsigned long sz)
{
800013b0:	fd010113          	addi	sp,sp,-48
800013b4:	02112623          	sw	ra,44(sp)
800013b8:	02812423          	sw	s0,40(sp)
800013bc:	03010413          	addi	s0,sp,48
800013c0:	fca42e23          	sw	a0,-36(s0)
C:\Microsemi\SoftConsole_v5.3.0.30-20180629-171539\extras\workspace.examples\Dhrystone_RISCV/dhry_stubs.c:22
  extern void* _sbrk(long);
  void* res = sbrk(sz);
800013c4:	fdc42503          	lw	a0,-36(s0)
800013c8:	4bd020ef          	jal	ra,80004084 <sbrk>
800013cc:	00050793          	mv	a5,a0
800013d0:	fef42623          	sw	a5,-20(s0)
C:\Microsemi\SoftConsole_v5.3.0.30-20180629-171539\extras\workspace.examples\Dhrystone_RISCV/dhry_stubs.c:23
  if ((long)res == -1)
800013d4:	fec42703          	lw	a4,-20(s0)
800013d8:	fff00793          	li	a5,-1
800013dc:	00f71663          	bne	a4,a5,800013e8 <malloc+0x38>
C:\Microsemi\SoftConsole_v5.3.0.30-20180629-171539\extras\workspace.examples\Dhrystone_RISCV/dhry_stubs.c:24
    return 0;
800013e0:	00000793          	li	a5,0
800013e4:	0080006f          	j	800013ec <malloc+0x3c>
C:\Microsemi\SoftConsole_v5.3.0.30-20180629-171539\extras\workspace.examples\Dhrystone_RISCV/dhry_stubs.c:25
  return res;
800013e8:	fec42783          	lw	a5,-20(s0)
C:\Microsemi\SoftConsole_v5.3.0.30-20180629-171539\extras\workspace.examples\Dhrystone_RISCV/dhry_stubs.c:26
}
800013ec:	00078513          	mv	a0,a5
800013f0:	02c12083          	lw	ra,44(sp)
800013f4:	02812403          	lw	s0,40(sp)
800013f8:	03010113          	addi	sp,sp,48
800013fc:	00008067          	ret

80001400 <free>:
free():
C:\Microsemi\SoftConsole_v5.3.0.30-20180629-171539\extras\workspace.examples\Dhrystone_RISCV/dhry_stubs.c:29

// simple memory deallocator
void free(void* ptr) {}
80001400:	fe010113          	addi	sp,sp,-32
80001404:	00812e23          	sw	s0,28(sp)
80001408:	02010413          	addi	s0,sp,32
8000140c:	fea42623          	sw	a0,-20(s0)
80001410:	00000013          	nop
80001414:	01c12403          	lw	s0,28(sp)
80001418:	02010113          	addi	sp,sp,32
8000141c:	00008067          	ret

80001420 <putchar>:
putchar():
C:\Microsemi\SoftConsole_v5.3.0.30-20180629-171539\extras\workspace.examples\Dhrystone_RISCV/dhry_printf.c:11
#include <stdio.h>
#include<unistd.h>

#undef putchar
int putchar(int ch)
{
80001420:	fe010113          	addi	sp,sp,-32
80001424:	00112e23          	sw	ra,28(sp)
80001428:	00812c23          	sw	s0,24(sp)
8000142c:	02010413          	addi	s0,sp,32
80001430:	fea42623          	sw	a0,-20(s0)
C:\Microsemi\SoftConsole_v5.3.0.30-20180629-171539\extras\workspace.examples\Dhrystone_RISCV/dhry_printf.c:12
  return write(1, &ch, 1) == 1 ? ch : -1;
80001434:	fec40793          	addi	a5,s0,-20
80001438:	00100613          	li	a2,1
8000143c:	00078593          	mv	a1,a5
80001440:	00100513          	li	a0,1
80001444:	455020ef          	jal	ra,80004098 <write>
80001448:	00050713          	mv	a4,a0
8000144c:	00100793          	li	a5,1
80001450:	00f71663          	bne	a4,a5,8000145c <putchar+0x3c>
C:\Microsemi\SoftConsole_v5.3.0.30-20180629-171539\extras\workspace.examples\Dhrystone_RISCV/dhry_printf.c:12 (discriminator 1)
80001454:	fec42783          	lw	a5,-20(s0)
80001458:	0080006f          	j	80001460 <putchar+0x40>
C:\Microsemi\SoftConsole_v5.3.0.30-20180629-171539\extras\workspace.examples\Dhrystone_RISCV/dhry_printf.c:12 (discriminator 2)
8000145c:	fff00793          	li	a5,-1
C:\Microsemi\SoftConsole_v5.3.0.30-20180629-171539\extras\workspace.examples\Dhrystone_RISCV/dhry_printf.c:13 (discriminator 5)
}
80001460:	00078513          	mv	a0,a5
80001464:	01c12083          	lw	ra,28(sp)
80001468:	01812403          	lw	s0,24(sp)
8000146c:	02010113          	addi	sp,sp,32
80001470:	00008067          	ret

80001474 <sprintf_putch>:
sprintf_putch():
C:\Microsemi\SoftConsole_v5.3.0.30-20180629-171539\extras\workspace.examples\Dhrystone_RISCV/dhry_printf.c:16

static void sprintf_putch(int ch, void** data)
{
80001474:	fd010113          	addi	sp,sp,-48
80001478:	02812623          	sw	s0,44(sp)
8000147c:	03010413          	addi	s0,sp,48
80001480:	fca42e23          	sw	a0,-36(s0)
80001484:	fcb42c23          	sw	a1,-40(s0)
C:\Microsemi\SoftConsole_v5.3.0.30-20180629-171539\extras\workspace.examples\Dhrystone_RISCV/dhry_printf.c:17
  char** pstr = (char**)data;
80001488:	fd842783          	lw	a5,-40(s0)
8000148c:	fef42623          	sw	a5,-20(s0)
C:\Microsemi\SoftConsole_v5.3.0.30-20180629-171539\extras\workspace.examples\Dhrystone_RISCV/dhry_printf.c:18
  **pstr = ch;
80001490:	fec42783          	lw	a5,-20(s0)
80001494:	0007a783          	lw	a5,0(a5)
80001498:	fdc42703          	lw	a4,-36(s0)
8000149c:	0ff77713          	andi	a4,a4,255
800014a0:	00e78023          	sb	a4,0(a5)
C:\Microsemi\SoftConsole_v5.3.0.30-20180629-171539\extras\workspace.examples\Dhrystone_RISCV/dhry_printf.c:19
  (*pstr)++;
800014a4:	fec42783          	lw	a5,-20(s0)
800014a8:	0007a783          	lw	a5,0(a5)
800014ac:	00178713          	addi	a4,a5,1
800014b0:	fec42783          	lw	a5,-20(s0)
800014b4:	00e7a023          	sw	a4,0(a5)
C:\Microsemi\SoftConsole_v5.3.0.30-20180629-171539\extras\workspace.examples\Dhrystone_RISCV/dhry_printf.c:20
}
800014b8:	00000013          	nop
800014bc:	02c12403          	lw	s0,44(sp)
800014c0:	03010113          	addi	sp,sp,48
800014c4:	00008067          	ret

800014c8 <getuint>:
getuint():
C:\Microsemi\SoftConsole_v5.3.0.30-20180629-171539\extras\workspace.examples\Dhrystone_RISCV/dhry_printf.c:23

static unsigned long long getuint(va_list *ap, int lflag)
{
800014c8:	fe010113          	addi	sp,sp,-32
800014cc:	00812e23          	sw	s0,28(sp)
800014d0:	02010413          	addi	s0,sp,32
800014d4:	fea42623          	sw	a0,-20(s0)
800014d8:	feb42423          	sw	a1,-24(s0)
C:\Microsemi\SoftConsole_v5.3.0.30-20180629-171539\extras\workspace.examples\Dhrystone_RISCV/dhry_printf.c:24
  if (lflag >= 2)
800014dc:	fe842683          	lw	a3,-24(s0)
800014e0:	00100713          	li	a4,1
800014e4:	02d75663          	ble	a3,a4,80001510 <getuint+0x48>
C:\Microsemi\SoftConsole_v5.3.0.30-20180629-171539\extras\workspace.examples\Dhrystone_RISCV/dhry_printf.c:25
    return va_arg(*ap, unsigned long long);
800014e8:	fec42783          	lw	a5,-20(s0)
800014ec:	0007a783          	lw	a5,0(a5)
800014f0:	00778793          	addi	a5,a5,7
800014f4:	ff87f793          	andi	a5,a5,-8
800014f8:	00878693          	addi	a3,a5,8
800014fc:	fec42703          	lw	a4,-20(s0)
80001500:	00d72023          	sw	a3,0(a4)
80001504:	0047a803          	lw	a6,4(a5)
80001508:	0007a783          	lw	a5,0(a5)
8000150c:	0500006f          	j	8000155c <getuint+0x94>
C:\Microsemi\SoftConsole_v5.3.0.30-20180629-171539\extras\workspace.examples\Dhrystone_RISCV/dhry_printf.c:26
  else if (lflag)
80001510:	fe842703          	lw	a4,-24(s0)
80001514:	02070463          	beqz	a4,8000153c <getuint+0x74>
C:\Microsemi\SoftConsole_v5.3.0.30-20180629-171539\extras\workspace.examples\Dhrystone_RISCV/dhry_printf.c:27
    return va_arg(*ap, unsigned long);
80001518:	fec42703          	lw	a4,-20(s0)
8000151c:	00072703          	lw	a4,0(a4)
80001520:	00470613          	addi	a2,a4,4
80001524:	fec42683          	lw	a3,-20(s0)
80001528:	00c6a023          	sw	a2,0(a3)
8000152c:	00072703          	lw	a4,0(a4)
80001530:	00070793          	mv	a5,a4
80001534:	00000813          	li	a6,0
80001538:	0240006f          	j	8000155c <getuint+0x94>
C:\Microsemi\SoftConsole_v5.3.0.30-20180629-171539\extras\workspace.examples\Dhrystone_RISCV/dhry_printf.c:29
  else
    return va_arg(*ap, unsigned int);
8000153c:	fec42703          	lw	a4,-20(s0)
80001540:	00072703          	lw	a4,0(a4)
80001544:	00470613          	addi	a2,a4,4
80001548:	fec42683          	lw	a3,-20(s0)
8000154c:	00c6a023          	sw	a2,0(a3)
80001550:	00072703          	lw	a4,0(a4)
80001554:	00070793          	mv	a5,a4
80001558:	00000813          	li	a6,0
C:\Microsemi\SoftConsole_v5.3.0.30-20180629-171539\extras\workspace.examples\Dhrystone_RISCV/dhry_printf.c:30
}
8000155c:	00078513          	mv	a0,a5
80001560:	00080593          	mv	a1,a6
80001564:	01c12403          	lw	s0,28(sp)
80001568:	02010113          	addi	sp,sp,32
8000156c:	00008067          	ret

80001570 <getint>:
getint():
C:\Microsemi\SoftConsole_v5.3.0.30-20180629-171539\extras\workspace.examples\Dhrystone_RISCV/dhry_printf.c:33

static long long getint(va_list *ap, int lflag)
{
80001570:	fe010113          	addi	sp,sp,-32
80001574:	00812e23          	sw	s0,28(sp)
80001578:	02010413          	addi	s0,sp,32
8000157c:	fea42623          	sw	a0,-20(s0)
80001580:	feb42423          	sw	a1,-24(s0)
C:\Microsemi\SoftConsole_v5.3.0.30-20180629-171539\extras\workspace.examples\Dhrystone_RISCV/dhry_printf.c:34
  if (lflag >= 2)
80001584:	fe842683          	lw	a3,-24(s0)
80001588:	00100713          	li	a4,1
8000158c:	02d75663          	ble	a3,a4,800015b8 <getint+0x48>
C:\Microsemi\SoftConsole_v5.3.0.30-20180629-171539\extras\workspace.examples\Dhrystone_RISCV/dhry_printf.c:35
    return va_arg(*ap, long long);
80001590:	fec42783          	lw	a5,-20(s0)
80001594:	0007a783          	lw	a5,0(a5)
80001598:	00778793          	addi	a5,a5,7
8000159c:	ff87f793          	andi	a5,a5,-8
800015a0:	00878693          	addi	a3,a5,8
800015a4:	fec42703          	lw	a4,-20(s0)
800015a8:	00d72023          	sw	a3,0(a4)
800015ac:	0047a803          	lw	a6,4(a5)
800015b0:	0007a783          	lw	a5,0(a5)
800015b4:	0580006f          	j	8000160c <getint+0x9c>
C:\Microsemi\SoftConsole_v5.3.0.30-20180629-171539\extras\workspace.examples\Dhrystone_RISCV/dhry_printf.c:36
  else if (lflag)
800015b8:	fe842703          	lw	a4,-24(s0)
800015bc:	02070663          	beqz	a4,800015e8 <getint+0x78>
C:\Microsemi\SoftConsole_v5.3.0.30-20180629-171539\extras\workspace.examples\Dhrystone_RISCV/dhry_printf.c:37
    return va_arg(*ap, long);
800015c0:	fec42703          	lw	a4,-20(s0)
800015c4:	00072703          	lw	a4,0(a4)
800015c8:	00470613          	addi	a2,a4,4
800015cc:	fec42683          	lw	a3,-20(s0)
800015d0:	00c6a023          	sw	a2,0(a3)
800015d4:	00072703          	lw	a4,0(a4)
800015d8:	00070793          	mv	a5,a4
800015dc:	41f75713          	srai	a4,a4,0x1f
800015e0:	00070813          	mv	a6,a4
800015e4:	0280006f          	j	8000160c <getint+0x9c>
C:\Microsemi\SoftConsole_v5.3.0.30-20180629-171539\extras\workspace.examples\Dhrystone_RISCV/dhry_printf.c:39
  else
    return va_arg(*ap, int);
800015e8:	fec42703          	lw	a4,-20(s0)
800015ec:	00072703          	lw	a4,0(a4)
800015f0:	00470613          	addi	a2,a4,4
800015f4:	fec42683          	lw	a3,-20(s0)
800015f8:	00c6a023          	sw	a2,0(a3)
800015fc:	00072703          	lw	a4,0(a4)
80001600:	00070793          	mv	a5,a4
80001604:	41f75713          	srai	a4,a4,0x1f
80001608:	00070813          	mv	a6,a4
C:\Microsemi\SoftConsole_v5.3.0.30-20180629-171539\extras\workspace.examples\Dhrystone_RISCV/dhry_printf.c:40
}
8000160c:	00078513          	mv	a0,a5
80001610:	00080593          	mv	a1,a6
80001614:	01c12403          	lw	s0,28(sp)
80001618:	02010113          	addi	sp,sp,32
8000161c:	00008067          	ret

80001620 <printnum>:
printnum():
C:\Microsemi\SoftConsole_v5.3.0.30-20180629-171539\extras\workspace.examples\Dhrystone_RISCV/dhry_printf.c:44

static inline void printnum(void (*putch)(int, void**), void **putdat,
                    unsigned long long num, unsigned base, int width, int padc)
{
80001620:	eb010113          	addi	sp,sp,-336
80001624:	14112623          	sw	ra,332(sp)
80001628:	14812423          	sw	s0,328(sp)
8000162c:	15212223          	sw	s2,324(sp)
80001630:	15312023          	sw	s3,320(sp)
80001634:	13412e23          	sw	s4,316(sp)
80001638:	13512c23          	sw	s5,312(sp)
8000163c:	13612a23          	sw	s6,308(sp)
80001640:	13712823          	sw	s7,304(sp)
80001644:	15010413          	addi	s0,sp,336
80001648:	eca42623          	sw	a0,-308(s0)
8000164c:	ecb42423          	sw	a1,-312(s0)
80001650:	ecc42023          	sw	a2,-320(s0)
80001654:	ecd42223          	sw	a3,-316(s0)
80001658:	eae42e23          	sw	a4,-324(s0)
8000165c:	eaf42c23          	sw	a5,-328(s0)
80001660:	eb042a23          	sw	a6,-332(s0)
C:\Microsemi\SoftConsole_v5.3.0.30-20180629-171539\extras\workspace.examples\Dhrystone_RISCV/dhry_printf.c:46
  unsigned digs[sizeof(num)*8];
  int pos = 0;
80001664:	fc042e23          	sw	zero,-36(s0)
C:\Microsemi\SoftConsole_v5.3.0.30-20180629-171539\extras\workspace.examples\Dhrystone_RISCV/dhry_printf.c:50

  while (1)
  {
    digs[pos++] = num % base;
80001668:	ebc42783          	lw	a5,-324(s0)
8000166c:	00078b13          	mv	s6,a5
80001670:	00000b93          	li	s7,0
80001674:	ec042783          	lw	a5,-320(s0)
80001678:	ec442803          	lw	a6,-316(s0)
8000167c:	000b0613          	mv	a2,s6
80001680:	000b8693          	mv	a3,s7
80001684:	00078513          	mv	a0,a5
80001688:	00080593          	mv	a1,a6
8000168c:	785020ef          	jal	ra,80004610 <__umoddi3>
80001690:	00050793          	mv	a5,a0
80001694:	00058813          	mv	a6,a1
80001698:	00078613          	mv	a2,a5
8000169c:	00080693          	mv	a3,a6
800016a0:	fdc42783          	lw	a5,-36(s0)
800016a4:	00178713          	addi	a4,a5,1
800016a8:	fce42e23          	sw	a4,-36(s0)
800016ac:	00060713          	mv	a4,a2
800016b0:	00279793          	slli	a5,a5,0x2
800016b4:	fe040693          	addi	a3,s0,-32
800016b8:	00f687b3          	add	a5,a3,a5
800016bc:	eee7ae23          	sw	a4,-260(a5)
C:\Microsemi\SoftConsole_v5.3.0.30-20180629-171539\extras\workspace.examples\Dhrystone_RISCV/dhry_printf.c:51
    if (num < base)
800016c0:	ebc42783          	lw	a5,-324(s0)
800016c4:	00078913          	mv	s2,a5
800016c8:	00000993          	li	s3,0
800016cc:	ec442783          	lw	a5,-316(s0)
800016d0:	00098713          	mv	a4,s3
800016d4:	04e7e863          	bltu	a5,a4,80001724 <printnum+0x104>
800016d8:	ec442783          	lw	a5,-316(s0)
800016dc:	00098713          	mv	a4,s3
800016e0:	00e79863          	bne	a5,a4,800016f0 <printnum+0xd0>
800016e4:	ec042783          	lw	a5,-320(s0)
800016e8:	00090713          	mv	a4,s2
800016ec:	02e7ec63          	bltu	a5,a4,80001724 <printnum+0x104>
C:\Microsemi\SoftConsole_v5.3.0.30-20180629-171539\extras\workspace.examples\Dhrystone_RISCV/dhry_printf.c:53
      break;
    num /= base;
800016f0:	ebc42783          	lw	a5,-324(s0)
800016f4:	00078a13          	mv	s4,a5
800016f8:	00000a93          	li	s5,0
800016fc:	000a0613          	mv	a2,s4
80001700:	000a8693          	mv	a3,s5
80001704:	ec042503          	lw	a0,-320(s0)
80001708:	ec442583          	lw	a1,-316(s0)
8000170c:	25d020ef          	jal	ra,80004168 <__udivdi3>
80001710:	00050793          	mv	a5,a0
80001714:	00058813          	mv	a6,a1
80001718:	ecf42023          	sw	a5,-320(s0)
8000171c:	ed042223          	sw	a6,-316(s0)
C:\Microsemi\SoftConsole_v5.3.0.30-20180629-171539\extras\workspace.examples\Dhrystone_RISCV/dhry_printf.c:50
    digs[pos++] = num % base;
80001720:	f49ff06f          	j	80001668 <printnum+0x48>
C:\Microsemi\SoftConsole_v5.3.0.30-20180629-171539\extras\workspace.examples\Dhrystone_RISCV/dhry_printf.c:52
      break;
80001724:	00000013          	nop
C:\Microsemi\SoftConsole_v5.3.0.30-20180629-171539\extras\workspace.examples\Dhrystone_RISCV/dhry_printf.c:56
  }

  while (width-- > pos)
80001728:	0140006f          	j	8000173c <printnum+0x11c>
C:\Microsemi\SoftConsole_v5.3.0.30-20180629-171539\extras\workspace.examples\Dhrystone_RISCV/dhry_printf.c:57
    putch(padc, putdat);
8000172c:	ecc42783          	lw	a5,-308(s0)
80001730:	ec842583          	lw	a1,-312(s0)
80001734:	eb442503          	lw	a0,-332(s0)
80001738:	000780e7          	jalr	a5
C:\Microsemi\SoftConsole_v5.3.0.30-20180629-171539\extras\workspace.examples\Dhrystone_RISCV/dhry_printf.c:56
  while (width-- > pos)
8000173c:	eb842783          	lw	a5,-328(s0)
80001740:	fff78713          	addi	a4,a5,-1
80001744:	eae42c23          	sw	a4,-328(s0)
80001748:	fdc42703          	lw	a4,-36(s0)
8000174c:	fef740e3          	blt	a4,a5,8000172c <printnum+0x10c>
C:\Microsemi\SoftConsole_v5.3.0.30-20180629-171539\extras\workspace.examples\Dhrystone_RISCV/dhry_printf.c:59

  while (pos-- > 0)
80001750:	0540006f          	j	800017a4 <printnum+0x184>
C:\Microsemi\SoftConsole_v5.3.0.30-20180629-171539\extras\workspace.examples\Dhrystone_RISCV/dhry_printf.c:60
    putch(digs[pos] + (digs[pos] >= 10 ? 'a' - 10 : '0'), putdat);
80001754:	fdc42783          	lw	a5,-36(s0)
80001758:	00279793          	slli	a5,a5,0x2
8000175c:	fe040713          	addi	a4,s0,-32
80001760:	00f707b3          	add	a5,a4,a5
80001764:	efc7a703          	lw	a4,-260(a5)
80001768:	fdc42783          	lw	a5,-36(s0)
8000176c:	00279793          	slli	a5,a5,0x2
80001770:	fe040693          	addi	a3,s0,-32
80001774:	00f687b3          	add	a5,a3,a5
80001778:	efc7a683          	lw	a3,-260(a5)
8000177c:	00900793          	li	a5,9
80001780:	00d7f663          	bleu	a3,a5,8000178c <printnum+0x16c>
C:\Microsemi\SoftConsole_v5.3.0.30-20180629-171539\extras\workspace.examples\Dhrystone_RISCV/dhry_printf.c:60 (discriminator 1)
80001784:	05700793          	li	a5,87
80001788:	0080006f          	j	80001790 <printnum+0x170>
C:\Microsemi\SoftConsole_v5.3.0.30-20180629-171539\extras\workspace.examples\Dhrystone_RISCV/dhry_printf.c:60 (discriminator 2)
8000178c:	03000793          	li	a5,48
C:\Microsemi\SoftConsole_v5.3.0.30-20180629-171539\extras\workspace.examples\Dhrystone_RISCV/dhry_printf.c:60 (discriminator 4)
80001790:	00e787b3          	add	a5,a5,a4
80001794:	ecc42703          	lw	a4,-308(s0)
80001798:	ec842583          	lw	a1,-312(s0)
8000179c:	00078513          	mv	a0,a5
800017a0:	000700e7          	jalr	a4
C:\Microsemi\SoftConsole_v5.3.0.30-20180629-171539\extras\workspace.examples\Dhrystone_RISCV/dhry_printf.c:59
  while (pos-- > 0)
800017a4:	fdc42783          	lw	a5,-36(s0)
800017a8:	fff78713          	addi	a4,a5,-1
800017ac:	fce42e23          	sw	a4,-36(s0)
800017b0:	faf042e3          	bgtz	a5,80001754 <printnum+0x134>
C:\Microsemi\SoftConsole_v5.3.0.30-20180629-171539\extras\workspace.examples\Dhrystone_RISCV/dhry_printf.c:61
}
800017b4:	00000013          	nop
800017b8:	14c12083          	lw	ra,332(sp)
800017bc:	14812403          	lw	s0,328(sp)
800017c0:	14412903          	lw	s2,324(sp)
800017c4:	14012983          	lw	s3,320(sp)
800017c8:	13c12a03          	lw	s4,316(sp)
800017cc:	13812a83          	lw	s5,312(sp)
800017d0:	13412b03          	lw	s6,308(sp)
800017d4:	13012b83          	lw	s7,304(sp)
800017d8:	15010113          	addi	sp,sp,336
800017dc:	00008067          	ret

800017e0 <print_double>:
print_double():
C:\Microsemi\SoftConsole_v5.3.0.30-20180629-171539\extras\workspace.examples\Dhrystone_RISCV/dhry_printf.c:65

static inline void print_double(void (*putch)(int, void**), void **putdat,
                                double num, int width, int prec)
{
800017e0:	fa010113          	addi	sp,sp,-96
800017e4:	04112e23          	sw	ra,92(sp)
800017e8:	04812c23          	sw	s0,88(sp)
800017ec:	06010413          	addi	s0,sp,96
800017f0:	faa42e23          	sw	a0,-68(s0)
800017f4:	fab42c23          	sw	a1,-72(s0)
800017f8:	fac42823          	sw	a2,-80(s0)
800017fc:	fad42a23          	sw	a3,-76(s0)
80001800:	fae42623          	sw	a4,-84(s0)
80001804:	faf42423          	sw	a5,-88(s0)
C:\Microsemi\SoftConsole_v5.3.0.30-20180629-171539\extras\workspace.examples\Dhrystone_RISCV/dhry_printf.c:66
  if (num < 0) {
80001808:	00000613          	li	a2,0
8000180c:	00000693          	li	a3,0
80001810:	fb042503          	lw	a0,-80(s0)
80001814:	fb442583          	lw	a1,-76(s0)
80001818:	269030ef          	jal	ra,80005280 <__ledf2>
8000181c:	00050793          	mv	a5,a0
80001820:	0207d663          	bgez	a5,8000184c <print_double+0x6c>
C:\Microsemi\SoftConsole_v5.3.0.30-20180629-171539\extras\workspace.examples\Dhrystone_RISCV/dhry_printf.c:67
    putch('-', putdat);
80001824:	fbc42783          	lw	a5,-68(s0)
80001828:	fb842583          	lw	a1,-72(s0)
8000182c:	02d00513          	li	a0,45
80001830:	000780e7          	jalr	a5
C:\Microsemi\SoftConsole_v5.3.0.30-20180629-171539\extras\workspace.examples\Dhrystone_RISCV/dhry_printf.c:68
    num = -num;
80001834:	fb042783          	lw	a5,-80(s0)
80001838:	faf42823          	sw	a5,-80(s0)
8000183c:	fb442703          	lw	a4,-76(s0)
80001840:	800007b7          	lui	a5,0x80000
80001844:	00f747b3          	xor	a5,a4,a5
80001848:	faf42a23          	sw	a5,-76(s0)
C:\Microsemi\SoftConsole_v5.3.0.30-20180629-171539\extras\workspace.examples\Dhrystone_RISCV/dhry_printf.c:71
  }

  for (int i = 0; i < prec; i++)
8000184c:	fe042623          	sw	zero,-20(s0)
80001850:	0380006f          	j	80001888 <print_double+0xa8>
C:\Microsemi\SoftConsole_v5.3.0.30-20180629-171539\extras\workspace.examples\Dhrystone_RISCV/dhry_printf.c:72 (discriminator 3)
    num *= 10;
80001854:	800077b7          	lui	a5,0x80007
80001858:	b587a603          	lw	a2,-1192(a5) # 80006b58 <__stack_top+0xffffc088>
8000185c:	b5c7a683          	lw	a3,-1188(a5)
80001860:	fb042503          	lw	a0,-80(s0)
80001864:	fb442583          	lw	a1,-76(s0)
80001868:	31d030ef          	jal	ra,80005384 <__muldf3>
8000186c:	00050793          	mv	a5,a0
80001870:	00058813          	mv	a6,a1
80001874:	faf42823          	sw	a5,-80(s0)
80001878:	fb042a23          	sw	a6,-76(s0)
C:\Microsemi\SoftConsole_v5.3.0.30-20180629-171539\extras\workspace.examples\Dhrystone_RISCV/dhry_printf.c:71 (discriminator 3)
  for (int i = 0; i < prec; i++)
8000187c:	fec42783          	lw	a5,-20(s0)
80001880:	00178793          	addi	a5,a5,1
80001884:	fef42623          	sw	a5,-20(s0)
C:\Microsemi\SoftConsole_v5.3.0.30-20180629-171539\extras\workspace.examples\Dhrystone_RISCV/dhry_printf.c:71 (discriminator 1)
80001888:	fec42703          	lw	a4,-20(s0)
8000188c:	fa842783          	lw	a5,-88(s0)
80001890:	fcf742e3          	blt	a4,a5,80001854 <print_double+0x74>
C:\Microsemi\SoftConsole_v5.3.0.30-20180629-171539\extras\workspace.examples\Dhrystone_RISCV/dhry_printf.c:74

  char buf[32], *pbuf = buf;
80001894:	fc440793          	addi	a5,s0,-60
80001898:	fcf42023          	sw	a5,-64(s0)
C:\Microsemi\SoftConsole_v5.3.0.30-20180629-171539\extras\workspace.examples\Dhrystone_RISCV/dhry_printf.c:75
  printnum(sprintf_putch, (void**)&pbuf, (unsigned long long)num, 10, 0, 0);
8000189c:	fb042503          	lw	a0,-80(s0)
800018a0:	fb442583          	lw	a1,-76(s0)
800018a4:	16c040ef          	jal	ra,80005a10 <__fixunsdfdi>
800018a8:	00050613          	mv	a2,a0
800018ac:	00058693          	mv	a3,a1
800018b0:	fc040593          	addi	a1,s0,-64
800018b4:	00000813          	li	a6,0
800018b8:	00000793          	li	a5,0
800018bc:	00a00713          	li	a4,10
800018c0:	80001537          	lui	a0,0x80001
800018c4:	47450513          	addi	a0,a0,1140 # 80001474 <__stack_top+0xffff69a4>
800018c8:	d59ff0ef          	jal	ra,80001620 <printnum>
C:\Microsemi\SoftConsole_v5.3.0.30-20180629-171539\extras\workspace.examples\Dhrystone_RISCV/dhry_printf.c:76
  if (prec > 0) {
800018cc:	fa842783          	lw	a5,-88(s0)
800018d0:	06f05863          	blez	a5,80001940 <print_double+0x160>
C:\Microsemi\SoftConsole_v5.3.0.30-20180629-171539\extras\workspace.examples\Dhrystone_RISCV/dhry_printf.c:77
    for (int i = 0; i < prec; i++) {
800018d4:	fe042423          	sw	zero,-24(s0)
800018d8:	0380006f          	j	80001910 <print_double+0x130>
C:\Microsemi\SoftConsole_v5.3.0.30-20180629-171539\extras\workspace.examples\Dhrystone_RISCV/dhry_printf.c:78 (discriminator 3)
      pbuf[-i] = pbuf[-i-1];
800018dc:	fc042703          	lw	a4,-64(s0)
800018e0:	fe842783          	lw	a5,-24(s0)
800018e4:	fff7c793          	not	a5,a5
800018e8:	00f70733          	add	a4,a4,a5
800018ec:	fc042783          	lw	a5,-64(s0)
800018f0:	fe842683          	lw	a3,-24(s0)
800018f4:	40d006b3          	neg	a3,a3
800018f8:	00d787b3          	add	a5,a5,a3
800018fc:	00074703          	lbu	a4,0(a4)
80001900:	00e78023          	sb	a4,0(a5)
C:\Microsemi\SoftConsole_v5.3.0.30-20180629-171539\extras\workspace.examples\Dhrystone_RISCV/dhry_printf.c:77 (discriminator 3)
    for (int i = 0; i < prec; i++) {
80001904:	fe842783          	lw	a5,-24(s0)
80001908:	00178793          	addi	a5,a5,1
8000190c:	fef42423          	sw	a5,-24(s0)
C:\Microsemi\SoftConsole_v5.3.0.30-20180629-171539\extras\workspace.examples\Dhrystone_RISCV/dhry_printf.c:77 (discriminator 1)
80001910:	fe842703          	lw	a4,-24(s0)
80001914:	fa842783          	lw	a5,-88(s0)
80001918:	fcf742e3          	blt	a4,a5,800018dc <print_double+0xfc>
C:\Microsemi\SoftConsole_v5.3.0.30-20180629-171539\extras\workspace.examples\Dhrystone_RISCV/dhry_printf.c:80
    }
    pbuf[-prec] = '.';
8000191c:	fc042783          	lw	a5,-64(s0)
80001920:	fa842703          	lw	a4,-88(s0)
80001924:	40e00733          	neg	a4,a4
80001928:	00e787b3          	add	a5,a5,a4
8000192c:	02e00713          	li	a4,46
80001930:	00e78023          	sb	a4,0(a5)
C:\Microsemi\SoftConsole_v5.3.0.30-20180629-171539\extras\workspace.examples\Dhrystone_RISCV/dhry_printf.c:81
    pbuf++;
80001934:	fc042783          	lw	a5,-64(s0)
80001938:	00178793          	addi	a5,a5,1
8000193c:	fcf42023          	sw	a5,-64(s0)
C:\Microsemi\SoftConsole_v5.3.0.30-20180629-171539\extras\workspace.examples\Dhrystone_RISCV/dhry_printf.c:84
  }

  for (char* p = buf; p < pbuf; p++)
80001940:	fc440793          	addi	a5,s0,-60
80001944:	fef42223          	sw	a5,-28(s0)
80001948:	0280006f          	j	80001970 <print_double+0x190>
C:\Microsemi\SoftConsole_v5.3.0.30-20180629-171539\extras\workspace.examples\Dhrystone_RISCV/dhry_printf.c:85 (discriminator 3)
    putch(*p, putdat);
8000194c:	fe442783          	lw	a5,-28(s0)
80001950:	0007c783          	lbu	a5,0(a5)
80001954:	fbc42703          	lw	a4,-68(s0)
80001958:	fb842583          	lw	a1,-72(s0)
8000195c:	00078513          	mv	a0,a5
80001960:	000700e7          	jalr	a4
C:\Microsemi\SoftConsole_v5.3.0.30-20180629-171539\extras\workspace.examples\Dhrystone_RISCV/dhry_printf.c:84 (discriminator 3)
  for (char* p = buf; p < pbuf; p++)
80001964:	fe442783          	lw	a5,-28(s0)
80001968:	00178793          	addi	a5,a5,1
8000196c:	fef42223          	sw	a5,-28(s0)
C:\Microsemi\SoftConsole_v5.3.0.30-20180629-171539\extras\workspace.examples\Dhrystone_RISCV/dhry_printf.c:84 (discriminator 1)
80001970:	fc042783          	lw	a5,-64(s0)
80001974:	fe442703          	lw	a4,-28(s0)
80001978:	fcf76ae3          	bltu	a4,a5,8000194c <print_double+0x16c>
C:\Microsemi\SoftConsole_v5.3.0.30-20180629-171539\extras\workspace.examples\Dhrystone_RISCV/dhry_printf.c:86
}
8000197c:	00000013          	nop
80001980:	05c12083          	lw	ra,92(sp)
80001984:	05812403          	lw	s0,88(sp)
80001988:	06010113          	addi	sp,sp,96
8000198c:	00008067          	ret

80001990 <vprintfmt>:
vprintfmt():
C:\Microsemi\SoftConsole_v5.3.0.30-20180629-171539\extras\workspace.examples\Dhrystone_RISCV/dhry_printf.c:89

static void vprintfmt(void (*putch)(int, void**), void **putdat, const char *fmt, va_list ap)
{
80001990:	fb010113          	addi	sp,sp,-80
80001994:	04112623          	sw	ra,76(sp)
80001998:	04812423          	sw	s0,72(sp)
8000199c:	04912223          	sw	s1,68(sp)
800019a0:	05212023          	sw	s2,64(sp)
800019a4:	05010413          	addi	s0,sp,80
800019a8:	faa42e23          	sw	a0,-68(s0)
800019ac:	fab42c23          	sw	a1,-72(s0)
800019b0:	fac42a23          	sw	a2,-76(s0)
800019b4:	fad42823          	sw	a3,-80(s0)
C:\Microsemi\SoftConsole_v5.3.0.30-20180629-171539\extras\workspace.examples\Dhrystone_RISCV/dhry_printf.c:98
  unsigned long long num;
  int base, lflag, width, precision, altflag;
  char padc;

  while (1) {
    while ((ch = *(unsigned char *) fmt) != '%') {
800019b8:	0240006f          	j	800019dc <vprintfmt+0x4c>
C:\Microsemi\SoftConsole_v5.3.0.30-20180629-171539\extras\workspace.examples\Dhrystone_RISCV/dhry_printf.c:99
      if (ch == '\0')
800019bc:	3e048a63          	beqz	s1,80001db0 <vprintfmt+0x420>
C:\Microsemi\SoftConsole_v5.3.0.30-20180629-171539\extras\workspace.examples\Dhrystone_RISCV/dhry_printf.c:101
        return;
      fmt++;
800019c0:	fb442783          	lw	a5,-76(s0)
800019c4:	00178793          	addi	a5,a5,1
800019c8:	faf42a23          	sw	a5,-76(s0)
C:\Microsemi\SoftConsole_v5.3.0.30-20180629-171539\extras\workspace.examples\Dhrystone_RISCV/dhry_printf.c:102
      putch(ch, putdat);
800019cc:	fbc42783          	lw	a5,-68(s0)
800019d0:	fb842583          	lw	a1,-72(s0)
800019d4:	00048513          	mv	a0,s1
800019d8:	000780e7          	jalr	a5
C:\Microsemi\SoftConsole_v5.3.0.30-20180629-171539\extras\workspace.examples\Dhrystone_RISCV/dhry_printf.c:98
    while ((ch = *(unsigned char *) fmt) != '%') {
800019dc:	fb442783          	lw	a5,-76(s0)
800019e0:	0007c783          	lbu	a5,0(a5)
800019e4:	00078493          	mv	s1,a5
800019e8:	02500793          	li	a5,37
800019ec:	fcf498e3          	bne	s1,a5,800019bc <vprintfmt+0x2c>
C:\Microsemi\SoftConsole_v5.3.0.30-20180629-171539\extras\workspace.examples\Dhrystone_RISCV/dhry_printf.c:104
    }
    fmt++;
800019f0:	fb442783          	lw	a5,-76(s0)
800019f4:	00178793          	addi	a5,a5,1
800019f8:	faf42a23          	sw	a5,-76(s0)
C:\Microsemi\SoftConsole_v5.3.0.30-20180629-171539\extras\workspace.examples\Dhrystone_RISCV/dhry_printf.c:107

    // Process a %-escape sequence
    last_fmt = fmt;
800019fc:	fb442783          	lw	a5,-76(s0)
80001a00:	fcf42823          	sw	a5,-48(s0)
C:\Microsemi\SoftConsole_v5.3.0.30-20180629-171539\extras\workspace.examples\Dhrystone_RISCV/dhry_printf.c:108
    padc = ' ';
80001a04:	02000793          	li	a5,32
80001a08:	fcf40ba3          	sb	a5,-41(s0)
C:\Microsemi\SoftConsole_v5.3.0.30-20180629-171539\extras\workspace.examples\Dhrystone_RISCV/dhry_printf.c:109
    width = -1;
80001a0c:	fff00793          	li	a5,-1
80001a10:	fcf42e23          	sw	a5,-36(s0)
C:\Microsemi\SoftConsole_v5.3.0.30-20180629-171539\extras\workspace.examples\Dhrystone_RISCV/dhry_printf.c:110
    precision = -1;
80001a14:	fff00793          	li	a5,-1
80001a18:	fcf42c23          	sw	a5,-40(s0)
C:\Microsemi\SoftConsole_v5.3.0.30-20180629-171539\extras\workspace.examples\Dhrystone_RISCV/dhry_printf.c:111
    lflag = 0;
80001a1c:	fe042023          	sw	zero,-32(s0)
C:\Microsemi\SoftConsole_v5.3.0.30-20180629-171539\extras\workspace.examples\Dhrystone_RISCV/dhry_printf.c:112
    altflag = 0;
80001a20:	fc042623          	sw	zero,-52(s0)
C:\Microsemi\SoftConsole_v5.3.0.30-20180629-171539\extras\workspace.examples\Dhrystone_RISCV/dhry_printf.c:114
  reswitch:
    switch (ch = *(unsigned char *) fmt++) {
80001a24:	fb442783          	lw	a5,-76(s0)
80001a28:	00178713          	addi	a4,a5,1
80001a2c:	fae42a23          	sw	a4,-76(s0)
80001a30:	0007c783          	lbu	a5,0(a5)
80001a34:	00078493          	mv	s1,a5
80001a38:	fdd48793          	addi	a5,s1,-35
80001a3c:	05500713          	li	a4,85
80001a40:	34f76863          	bltu	a4,a5,80001d90 <vprintfmt+0x400>
80001a44:	00279713          	slli	a4,a5,0x2
80001a48:	800077b7          	lui	a5,0x80007
80001a4c:	a0078793          	addi	a5,a5,-1536 # 80006a00 <__stack_top+0xffffbf30>
80001a50:	00f707b3          	add	a5,a4,a5
80001a54:	0007a783          	lw	a5,0(a5)
80001a58:	00078067          	jr	a5
C:\Microsemi\SoftConsole_v5.3.0.30-20180629-171539\extras\workspace.examples\Dhrystone_RISCV/dhry_printf.c:118

    // flag to pad on the right
    case '-':
      padc = '-';
80001a5c:	02d00793          	li	a5,45
80001a60:	fcf40ba3          	sb	a5,-41(s0)
C:\Microsemi\SoftConsole_v5.3.0.30-20180629-171539\extras\workspace.examples\Dhrystone_RISCV/dhry_printf.c:119
      goto reswitch;
80001a64:	fc1ff06f          	j	80001a24 <vprintfmt+0x94>
C:\Microsemi\SoftConsole_v5.3.0.30-20180629-171539\extras\workspace.examples\Dhrystone_RISCV/dhry_printf.c:123
      
    // flag to pad with 0's instead of spaces
    case '0':
      padc = '0';
80001a68:	03000793          	li	a5,48
80001a6c:	fcf40ba3          	sb	a5,-41(s0)
C:\Microsemi\SoftConsole_v5.3.0.30-20180629-171539\extras\workspace.examples\Dhrystone_RISCV/dhry_printf.c:124
      goto reswitch;
80001a70:	fb5ff06f          	j	80001a24 <vprintfmt+0x94>
C:\Microsemi\SoftConsole_v5.3.0.30-20180629-171539\extras\workspace.examples\Dhrystone_RISCV/dhry_printf.c:136
    case '5':
    case '6':
    case '7':
    case '8':
    case '9':
      for (precision = 0; ; ++fmt) {
80001a74:	fc042c23          	sw	zero,-40(s0)
C:\Microsemi\SoftConsole_v5.3.0.30-20180629-171539\extras\workspace.examples\Dhrystone_RISCV/dhry_printf.c:137
        precision = precision * 10 + ch - '0';
80001a78:	fd842703          	lw	a4,-40(s0)
80001a7c:	00070793          	mv	a5,a4
80001a80:	00279793          	slli	a5,a5,0x2
80001a84:	00e787b3          	add	a5,a5,a4
80001a88:	00179793          	slli	a5,a5,0x1
80001a8c:	00f487b3          	add	a5,s1,a5
80001a90:	fd078793          	addi	a5,a5,-48
80001a94:	fcf42c23          	sw	a5,-40(s0)
C:\Microsemi\SoftConsole_v5.3.0.30-20180629-171539\extras\workspace.examples\Dhrystone_RISCV/dhry_printf.c:138
        ch = *fmt;
80001a98:	fb442783          	lw	a5,-76(s0)
80001a9c:	0007c783          	lbu	a5,0(a5)
80001aa0:	00078493          	mv	s1,a5
C:\Microsemi\SoftConsole_v5.3.0.30-20180629-171539\extras\workspace.examples\Dhrystone_RISCV/dhry_printf.c:139
        if (ch < '0' || ch > '9')
80001aa4:	02f00793          	li	a5,47
80001aa8:	0497d863          	ble	s1,a5,80001af8 <vprintfmt+0x168>
C:\Microsemi\SoftConsole_v5.3.0.30-20180629-171539\extras\workspace.examples\Dhrystone_RISCV/dhry_printf.c:139 (discriminator 1)
80001aac:	03900793          	li	a5,57
80001ab0:	0497c463          	blt	a5,s1,80001af8 <vprintfmt+0x168>
C:\Microsemi\SoftConsole_v5.3.0.30-20180629-171539\extras\workspace.examples\Dhrystone_RISCV/dhry_printf.c:136
      for (precision = 0; ; ++fmt) {
80001ab4:	fb442783          	lw	a5,-76(s0)
80001ab8:	00178793          	addi	a5,a5,1
80001abc:	faf42a23          	sw	a5,-76(s0)
C:\Microsemi\SoftConsole_v5.3.0.30-20180629-171539\extras\workspace.examples\Dhrystone_RISCV/dhry_printf.c:137
        precision = precision * 10 + ch - '0';
80001ac0:	fb9ff06f          	j	80001a78 <vprintfmt+0xe8>
C:\Microsemi\SoftConsole_v5.3.0.30-20180629-171539\extras\workspace.examples\Dhrystone_RISCV/dhry_printf.c:145
          break;
      }
      goto process_precision;

    case '*':
      precision = va_arg(ap, int);
80001ac4:	fb042783          	lw	a5,-80(s0)
80001ac8:	00478713          	addi	a4,a5,4
80001acc:	fae42823          	sw	a4,-80(s0)
80001ad0:	0007a783          	lw	a5,0(a5)
80001ad4:	fcf42c23          	sw	a5,-40(s0)
C:\Microsemi\SoftConsole_v5.3.0.30-20180629-171539\extras\workspace.examples\Dhrystone_RISCV/dhry_printf.c:146
      goto process_precision;
80001ad8:	0240006f          	j	80001afc <vprintfmt+0x16c>
C:\Microsemi\SoftConsole_v5.3.0.30-20180629-171539\extras\workspace.examples\Dhrystone_RISCV/dhry_printf.c:149

    case '.':
      if (width < 0)
80001adc:	fdc42783          	lw	a5,-36(s0)
80001ae0:	f407d2e3          	bgez	a5,80001a24 <vprintfmt+0x94>
C:\Microsemi\SoftConsole_v5.3.0.30-20180629-171539\extras\workspace.examples\Dhrystone_RISCV/dhry_printf.c:150
        width = 0;
80001ae4:	fc042e23          	sw	zero,-36(s0)
C:\Microsemi\SoftConsole_v5.3.0.30-20180629-171539\extras\workspace.examples\Dhrystone_RISCV/dhry_printf.c:151
      goto reswitch;
80001ae8:	f3dff06f          	j	80001a24 <vprintfmt+0x94>
C:\Microsemi\SoftConsole_v5.3.0.30-20180629-171539\extras\workspace.examples\Dhrystone_RISCV/dhry_printf.c:154

    case '#':
      altflag = 1;
80001aec:	00100793          	li	a5,1
80001af0:	fcf42623          	sw	a5,-52(s0)
C:\Microsemi\SoftConsole_v5.3.0.30-20180629-171539\extras\workspace.examples\Dhrystone_RISCV/dhry_printf.c:155
      goto reswitch;
80001af4:	f31ff06f          	j	80001a24 <vprintfmt+0x94>
C:\Microsemi\SoftConsole_v5.3.0.30-20180629-171539\extras\workspace.examples\Dhrystone_RISCV/dhry_printf.c:142
      goto process_precision;
80001af8:	00000013          	nop
C:\Microsemi\SoftConsole_v5.3.0.30-20180629-171539\extras\workspace.examples\Dhrystone_RISCV/dhry_printf.c:158

    process_precision:
      if (width < 0)
80001afc:	fdc42783          	lw	a5,-36(s0)
80001b00:	f207d2e3          	bgez	a5,80001a24 <vprintfmt+0x94>
C:\Microsemi\SoftConsole_v5.3.0.30-20180629-171539\extras\workspace.examples\Dhrystone_RISCV/dhry_printf.c:159
        width = precision, precision = -1;
80001b04:	fd842783          	lw	a5,-40(s0)
80001b08:	fcf42e23          	sw	a5,-36(s0)
80001b0c:	fff00793          	li	a5,-1
80001b10:	fcf42c23          	sw	a5,-40(s0)
C:\Microsemi\SoftConsole_v5.3.0.30-20180629-171539\extras\workspace.examples\Dhrystone_RISCV/dhry_printf.c:160
      goto reswitch;
80001b14:	f11ff06f          	j	80001a24 <vprintfmt+0x94>
C:\Microsemi\SoftConsole_v5.3.0.30-20180629-171539\extras\workspace.examples\Dhrystone_RISCV/dhry_printf.c:164

    // long flag (doubled for long long)
    case 'l':
      lflag++;
80001b18:	fe042783          	lw	a5,-32(s0)
80001b1c:	00178793          	addi	a5,a5,1
80001b20:	fef42023          	sw	a5,-32(s0)
C:\Microsemi\SoftConsole_v5.3.0.30-20180629-171539\extras\workspace.examples\Dhrystone_RISCV/dhry_printf.c:165
      goto reswitch;
80001b24:	f01ff06f          	j	80001a24 <vprintfmt+0x94>
C:\Microsemi\SoftConsole_v5.3.0.30-20180629-171539\extras\workspace.examples\Dhrystone_RISCV/dhry_printf.c:169

    // character
    case 'c':
      putch(va_arg(ap, int), putdat);
80001b28:	fb042783          	lw	a5,-80(s0)
80001b2c:	00478713          	addi	a4,a5,4
80001b30:	fae42823          	sw	a4,-80(s0)
80001b34:	0007a783          	lw	a5,0(a5)
80001b38:	fbc42703          	lw	a4,-68(s0)
80001b3c:	fb842583          	lw	a1,-72(s0)
80001b40:	00078513          	mv	a0,a5
80001b44:	000700e7          	jalr	a4
C:\Microsemi\SoftConsole_v5.3.0.30-20180629-171539\extras\workspace.examples\Dhrystone_RISCV/dhry_printf.c:170
      break;
80001b48:	2640006f          	j	80001dac <vprintfmt+0x41c>
C:\Microsemi\SoftConsole_v5.3.0.30-20180629-171539\extras\workspace.examples\Dhrystone_RISCV/dhry_printf.c:174

    // double
    case 'f':
      print_double(putch, putdat, va_arg(ap, double), width, precision);
80001b4c:	fb042783          	lw	a5,-80(s0)
80001b50:	00778793          	addi	a5,a5,7
80001b54:	ff87f793          	andi	a5,a5,-8
80001b58:	00878713          	addi	a4,a5,8
80001b5c:	fae42823          	sw	a4,-80(s0)
80001b60:	0007a603          	lw	a2,0(a5)
80001b64:	0047a683          	lw	a3,4(a5)
80001b68:	fd842783          	lw	a5,-40(s0)
80001b6c:	fdc42703          	lw	a4,-36(s0)
80001b70:	fb842583          	lw	a1,-72(s0)
80001b74:	fbc42503          	lw	a0,-68(s0)
80001b78:	c69ff0ef          	jal	ra,800017e0 <print_double>
C:\Microsemi\SoftConsole_v5.3.0.30-20180629-171539\extras\workspace.examples\Dhrystone_RISCV/dhry_printf.c:175
      break;
80001b7c:	2300006f          	j	80001dac <vprintfmt+0x41c>
C:\Microsemi\SoftConsole_v5.3.0.30-20180629-171539\extras\workspace.examples\Dhrystone_RISCV/dhry_printf.c:179

    // string
    case 's':
      if ((p = va_arg(ap, char *)) == NULL)
80001b80:	fb042783          	lw	a5,-80(s0)
80001b84:	00478713          	addi	a4,a5,4
80001b88:	fae42823          	sw	a4,-80(s0)
80001b8c:	0007a903          	lw	s2,0(a5)
80001b90:	00091663          	bnez	s2,80001b9c <vprintfmt+0x20c>
C:\Microsemi\SoftConsole_v5.3.0.30-20180629-171539\extras\workspace.examples\Dhrystone_RISCV/dhry_printf.c:180
        p = "(null)";
80001b94:	800077b7          	lui	a5,0x80007
80001b98:	9f878913          	addi	s2,a5,-1544 # 800069f8 <__stack_top+0xffffbf28>
C:\Microsemi\SoftConsole_v5.3.0.30-20180629-171539\extras\workspace.examples\Dhrystone_RISCV/dhry_printf.c:181
      if (width > 0 && padc != '-')
80001b9c:	fdc42783          	lw	a5,-36(s0)
80001ba0:	06f05e63          	blez	a5,80001c1c <vprintfmt+0x28c>
C:\Microsemi\SoftConsole_v5.3.0.30-20180629-171539\extras\workspace.examples\Dhrystone_RISCV/dhry_printf.c:181 (discriminator 1)
80001ba4:	fd744703          	lbu	a4,-41(s0)
80001ba8:	02d00793          	li	a5,45
80001bac:	06f70863          	beq	a4,a5,80001c1c <vprintfmt+0x28c>
C:\Microsemi\SoftConsole_v5.3.0.30-20180629-171539\extras\workspace.examples\Dhrystone_RISCV/dhry_printf.c:182
        for (width -= strnlen(p, precision); width > 0; width--)
80001bb0:	fd842583          	lw	a1,-40(s0)
80001bb4:	00090513          	mv	a0,s2
80001bb8:	490020ef          	jal	ra,80004048 <strnlen>
80001bbc:	00050713          	mv	a4,a0
80001bc0:	fdc42783          	lw	a5,-36(s0)
80001bc4:	40e787b3          	sub	a5,a5,a4
80001bc8:	fcf42e23          	sw	a5,-36(s0)
80001bcc:	0240006f          	j	80001bf0 <vprintfmt+0x260>
C:\Microsemi\SoftConsole_v5.3.0.30-20180629-171539\extras\workspace.examples\Dhrystone_RISCV/dhry_printf.c:183 (discriminator 3)
          putch(padc, putdat);
80001bd0:	fd744783          	lbu	a5,-41(s0)
80001bd4:	fbc42703          	lw	a4,-68(s0)
80001bd8:	fb842583          	lw	a1,-72(s0)
80001bdc:	00078513          	mv	a0,a5
80001be0:	000700e7          	jalr	a4
C:\Microsemi\SoftConsole_v5.3.0.30-20180629-171539\extras\workspace.examples\Dhrystone_RISCV/dhry_printf.c:182 (discriminator 3)
        for (width -= strnlen(p, precision); width > 0; width--)
80001be4:	fdc42783          	lw	a5,-36(s0)
80001be8:	fff78793          	addi	a5,a5,-1
80001bec:	fcf42e23          	sw	a5,-36(s0)
C:\Microsemi\SoftConsole_v5.3.0.30-20180629-171539\extras\workspace.examples\Dhrystone_RISCV/dhry_printf.c:182 (discriminator 1)
80001bf0:	fdc42783          	lw	a5,-36(s0)
80001bf4:	fcf04ee3          	bgtz	a5,80001bd0 <vprintfmt+0x240>
C:\Microsemi\SoftConsole_v5.3.0.30-20180629-171539\extras\workspace.examples\Dhrystone_RISCV/dhry_printf.c:184
      for (; (ch = *p) != '\0' && (precision < 0 || --precision >= 0); width--) {
80001bf8:	0240006f          	j	80001c1c <vprintfmt+0x28c>
C:\Microsemi\SoftConsole_v5.3.0.30-20180629-171539\extras\workspace.examples\Dhrystone_RISCV/dhry_printf.c:185 (discriminator 5)
        putch(ch, putdat);
80001bfc:	fbc42783          	lw	a5,-68(s0)
80001c00:	fb842583          	lw	a1,-72(s0)
80001c04:	00048513          	mv	a0,s1
80001c08:	000780e7          	jalr	a5
C:\Microsemi\SoftConsole_v5.3.0.30-20180629-171539\extras\workspace.examples\Dhrystone_RISCV/dhry_printf.c:186 (discriminator 5)
        p++;
80001c0c:	00190913          	addi	s2,s2,1
C:\Microsemi\SoftConsole_v5.3.0.30-20180629-171539\extras\workspace.examples\Dhrystone_RISCV/dhry_printf.c:184 (discriminator 5)
      for (; (ch = *p) != '\0' && (precision < 0 || --precision >= 0); width--) {
80001c10:	fdc42783          	lw	a5,-36(s0)
80001c14:	fff78793          	addi	a5,a5,-1
80001c18:	fcf42e23          	sw	a5,-36(s0)
C:\Microsemi\SoftConsole_v5.3.0.30-20180629-171539\extras\workspace.examples\Dhrystone_RISCV/dhry_printf.c:184 (discriminator 1)
80001c1c:	00094783          	lbu	a5,0(s2)
80001c20:	00078493          	mv	s1,a5
80001c24:	04048063          	beqz	s1,80001c64 <vprintfmt+0x2d4>
C:\Microsemi\SoftConsole_v5.3.0.30-20180629-171539\extras\workspace.examples\Dhrystone_RISCV/dhry_printf.c:184 (discriminator 2)
80001c28:	fd842783          	lw	a5,-40(s0)
80001c2c:	fc07c8e3          	bltz	a5,80001bfc <vprintfmt+0x26c>
C:\Microsemi\SoftConsole_v5.3.0.30-20180629-171539\extras\workspace.examples\Dhrystone_RISCV/dhry_printf.c:184 (discriminator 4)
80001c30:	fd842783          	lw	a5,-40(s0)
80001c34:	fff78793          	addi	a5,a5,-1
80001c38:	fcf42c23          	sw	a5,-40(s0)
80001c3c:	fd842783          	lw	a5,-40(s0)
80001c40:	fa07dee3          	bgez	a5,80001bfc <vprintfmt+0x26c>
C:\Microsemi\SoftConsole_v5.3.0.30-20180629-171539\extras\workspace.examples\Dhrystone_RISCV/dhry_printf.c:188
      }
      for (; width > 0; width--)
80001c44:	0200006f          	j	80001c64 <vprintfmt+0x2d4>
C:\Microsemi\SoftConsole_v5.3.0.30-20180629-171539\extras\workspace.examples\Dhrystone_RISCV/dhry_printf.c:189 (discriminator 2)
        putch(' ', putdat);
80001c48:	fbc42783          	lw	a5,-68(s0)
80001c4c:	fb842583          	lw	a1,-72(s0)
80001c50:	02000513          	li	a0,32
80001c54:	000780e7          	jalr	a5
C:\Microsemi\SoftConsole_v5.3.0.30-20180629-171539\extras\workspace.examples\Dhrystone_RISCV/dhry_printf.c:188 (discriminator 2)
      for (; width > 0; width--)
80001c58:	fdc42783          	lw	a5,-36(s0)
80001c5c:	fff78793          	addi	a5,a5,-1
80001c60:	fcf42e23          	sw	a5,-36(s0)
C:\Microsemi\SoftConsole_v5.3.0.30-20180629-171539\extras\workspace.examples\Dhrystone_RISCV/dhry_printf.c:188 (discriminator 1)
80001c64:	fdc42783          	lw	a5,-36(s0)
80001c68:	fef040e3          	bgtz	a5,80001c48 <vprintfmt+0x2b8>
C:\Microsemi\SoftConsole_v5.3.0.30-20180629-171539\extras\workspace.examples\Dhrystone_RISCV/dhry_printf.c:190
      break;
80001c6c:	1400006f          	j	80001dac <vprintfmt+0x41c>
C:\Microsemi\SoftConsole_v5.3.0.30-20180629-171539\extras\workspace.examples\Dhrystone_RISCV/dhry_printf.c:194

    // (signed) decimal
    case 'd':
      num = getint(&ap, lflag);
80001c70:	fb040793          	addi	a5,s0,-80
80001c74:	fe042583          	lw	a1,-32(s0)
80001c78:	00078513          	mv	a0,a5
80001c7c:	8f5ff0ef          	jal	ra,80001570 <getint>
80001c80:	00050793          	mv	a5,a0
80001c84:	00058813          	mv	a6,a1
80001c88:	fef42423          	sw	a5,-24(s0)
80001c8c:	ff042623          	sw	a6,-20(s0)
C:\Microsemi\SoftConsole_v5.3.0.30-20180629-171539\extras\workspace.examples\Dhrystone_RISCV/dhry_printf.c:195
      if ((long long) num < 0) {
80001c90:	fe842783          	lw	a5,-24(s0)
80001c94:	fec42803          	lw	a6,-20(s0)
80001c98:	00080793          	mv	a5,a6
80001c9c:	0407d663          	bgez	a5,80001ce8 <vprintfmt+0x358>
C:\Microsemi\SoftConsole_v5.3.0.30-20180629-171539\extras\workspace.examples\Dhrystone_RISCV/dhry_printf.c:196
        putch('-', putdat);
80001ca0:	fbc42783          	lw	a5,-68(s0)
80001ca4:	fb842583          	lw	a1,-72(s0)
80001ca8:	02d00513          	li	a0,45
80001cac:	000780e7          	jalr	a5
C:\Microsemi\SoftConsole_v5.3.0.30-20180629-171539\extras\workspace.examples\Dhrystone_RISCV/dhry_printf.c:197
        num = -(long long) num;
80001cb0:	fe842583          	lw	a1,-24(s0)
80001cb4:	fec42603          	lw	a2,-20(s0)
80001cb8:	00000793          	li	a5,0
80001cbc:	00000813          	li	a6,0
80001cc0:	40b786b3          	sub	a3,a5,a1
80001cc4:	00068513          	mv	a0,a3
80001cc8:	00a7b533          	sltu	a0,a5,a0
80001ccc:	40c80733          	sub	a4,a6,a2
80001cd0:	40a707b3          	sub	a5,a4,a0
80001cd4:	00078713          	mv	a4,a5
80001cd8:	00068793          	mv	a5,a3
80001cdc:	00070813          	mv	a6,a4
80001ce0:	fef42423          	sw	a5,-24(s0)
80001ce4:	ff042623          	sw	a6,-20(s0)
C:\Microsemi\SoftConsole_v5.3.0.30-20180629-171539\extras\workspace.examples\Dhrystone_RISCV/dhry_printf.c:199
      }
      base = 10;
80001ce8:	00a00793          	li	a5,10
80001cec:	fef42223          	sw	a5,-28(s0)
C:\Microsemi\SoftConsole_v5.3.0.30-20180629-171539\extras\workspace.examples\Dhrystone_RISCV/dhry_printf.c:200
      goto signed_number;
80001cf0:	0640006f          	j	80001d54 <vprintfmt+0x3c4>
C:\Microsemi\SoftConsole_v5.3.0.30-20180629-171539\extras\workspace.examples\Dhrystone_RISCV/dhry_printf.c:204

    // unsigned decimal
    case 'u':
      base = 10;
80001cf4:	00a00793          	li	a5,10
80001cf8:	fef42223          	sw	a5,-28(s0)
C:\Microsemi\SoftConsole_v5.3.0.30-20180629-171539\extras\workspace.examples\Dhrystone_RISCV/dhry_printf.c:205
      goto unsigned_number;
80001cfc:	0400006f          	j	80001d3c <vprintfmt+0x3ac>
C:\Microsemi\SoftConsole_v5.3.0.30-20180629-171539\extras\workspace.examples\Dhrystone_RISCV/dhry_printf.c:210

    // (unsigned) octal
    case 'o':
      // should do something with padding so it's always 3 octits
      base = 8;
80001d00:	00800793          	li	a5,8
80001d04:	fef42223          	sw	a5,-28(s0)
C:\Microsemi\SoftConsole_v5.3.0.30-20180629-171539\extras\workspace.examples\Dhrystone_RISCV/dhry_printf.c:211
      goto unsigned_number;
80001d08:	0340006f          	j	80001d3c <vprintfmt+0x3ac>
C:\Microsemi\SoftConsole_v5.3.0.30-20180629-171539\extras\workspace.examples\Dhrystone_RISCV/dhry_printf.c:215

    // pointer
    case 'p':
      lflag = 1;
80001d0c:	00100793          	li	a5,1
80001d10:	fef42023          	sw	a5,-32(s0)
C:\Microsemi\SoftConsole_v5.3.0.30-20180629-171539\extras\workspace.examples\Dhrystone_RISCV/dhry_printf.c:216
      putch('0', putdat);
80001d14:	fbc42783          	lw	a5,-68(s0)
80001d18:	fb842583          	lw	a1,-72(s0)
80001d1c:	03000513          	li	a0,48
80001d20:	000780e7          	jalr	a5
C:\Microsemi\SoftConsole_v5.3.0.30-20180629-171539\extras\workspace.examples\Dhrystone_RISCV/dhry_printf.c:217
      putch('x', putdat);
80001d24:	fbc42783          	lw	a5,-68(s0)
80001d28:	fb842583          	lw	a1,-72(s0)
80001d2c:	07800513          	li	a0,120
80001d30:	000780e7          	jalr	a5
C:\Microsemi\SoftConsole_v5.3.0.30-20180629-171539\extras\workspace.examples\Dhrystone_RISCV/dhry_printf.c:222
      /* fall through to 'x' */

    // (unsigned) hexadecimal
    case 'x':
      base = 16;
80001d34:	01000793          	li	a5,16
80001d38:	fef42223          	sw	a5,-28(s0)
C:\Microsemi\SoftConsole_v5.3.0.30-20180629-171539\extras\workspace.examples\Dhrystone_RISCV/dhry_printf.c:224
    unsigned_number:
      num = getuint(&ap, lflag);
80001d3c:	fb040793          	addi	a5,s0,-80
80001d40:	fe042583          	lw	a1,-32(s0)
80001d44:	00078513          	mv	a0,a5
80001d48:	f80ff0ef          	jal	ra,800014c8 <getuint>
80001d4c:	fea42423          	sw	a0,-24(s0)
80001d50:	feb42623          	sw	a1,-20(s0)
C:\Microsemi\SoftConsole_v5.3.0.30-20180629-171539\extras\workspace.examples\Dhrystone_RISCV/dhry_printf.c:226
    signed_number:
      printnum(putch, putdat, num, base, width, padc);
80001d54:	fe442703          	lw	a4,-28(s0)
80001d58:	fd744783          	lbu	a5,-41(s0)
80001d5c:	00078813          	mv	a6,a5
80001d60:	fdc42783          	lw	a5,-36(s0)
80001d64:	fe842603          	lw	a2,-24(s0)
80001d68:	fec42683          	lw	a3,-20(s0)
80001d6c:	fb842583          	lw	a1,-72(s0)
80001d70:	fbc42503          	lw	a0,-68(s0)
80001d74:	8adff0ef          	jal	ra,80001620 <printnum>
C:\Microsemi\SoftConsole_v5.3.0.30-20180629-171539\extras\workspace.examples\Dhrystone_RISCV/dhry_printf.c:227
      break;
80001d78:	0340006f          	j	80001dac <vprintfmt+0x41c>
C:\Microsemi\SoftConsole_v5.3.0.30-20180629-171539\extras\workspace.examples\Dhrystone_RISCV/dhry_printf.c:231

    // escaped '%' character
    case '%':
      putch(ch, putdat);
80001d7c:	fbc42783          	lw	a5,-68(s0)
80001d80:	fb842583          	lw	a1,-72(s0)
80001d84:	00048513          	mv	a0,s1
80001d88:	000780e7          	jalr	a5
C:\Microsemi\SoftConsole_v5.3.0.30-20180629-171539\extras\workspace.examples\Dhrystone_RISCV/dhry_printf.c:232
      break;
80001d8c:	0200006f          	j	80001dac <vprintfmt+0x41c>
C:\Microsemi\SoftConsole_v5.3.0.30-20180629-171539\extras\workspace.examples\Dhrystone_RISCV/dhry_printf.c:236
      
    // unrecognized escape sequence - just print it literally
    default:
      putch('%', putdat);
80001d90:	fbc42783          	lw	a5,-68(s0)
80001d94:	fb842583          	lw	a1,-72(s0)
80001d98:	02500513          	li	a0,37
80001d9c:	000780e7          	jalr	a5
C:\Microsemi\SoftConsole_v5.3.0.30-20180629-171539\extras\workspace.examples\Dhrystone_RISCV/dhry_printf.c:237
      fmt = last_fmt;
80001da0:	fd042783          	lw	a5,-48(s0)
80001da4:	faf42a23          	sw	a5,-76(s0)
C:\Microsemi\SoftConsole_v5.3.0.30-20180629-171539\extras\workspace.examples\Dhrystone_RISCV/dhry_printf.c:238
      break;
80001da8:	00000013          	nop
C:\Microsemi\SoftConsole_v5.3.0.30-20180629-171539\extras\workspace.examples\Dhrystone_RISCV/dhry_printf.c:98
    while ((ch = *(unsigned char *) fmt) != '%') {
80001dac:	c31ff06f          	j	800019dc <vprintfmt+0x4c>
C:\Microsemi\SoftConsole_v5.3.0.30-20180629-171539\extras\workspace.examples\Dhrystone_RISCV/dhry_printf.c:100
        return;
80001db0:	00000013          	nop
C:\Microsemi\SoftConsole_v5.3.0.30-20180629-171539\extras\workspace.examples\Dhrystone_RISCV/dhry_printf.c:241
    }
  }
}
80001db4:	04c12083          	lw	ra,76(sp)
80001db8:	04812403          	lw	s0,72(sp)
80001dbc:	04412483          	lw	s1,68(sp)
80001dc0:	04012903          	lw	s2,64(sp)
80001dc4:	05010113          	addi	sp,sp,80
80001dc8:	00008067          	ret

80001dcc <printf>:
printf():
C:\Microsemi\SoftConsole_v5.3.0.30-20180629-171539\extras\workspace.examples\Dhrystone_RISCV/dhry_printf.c:244

int printf(const char* fmt, ...)
{
80001dcc:	fb010113          	addi	sp,sp,-80
80001dd0:	02112623          	sw	ra,44(sp)
80001dd4:	02812423          	sw	s0,40(sp)
80001dd8:	03010413          	addi	s0,sp,48
80001ddc:	fca42e23          	sw	a0,-36(s0)
80001de0:	00b42223          	sw	a1,4(s0)
80001de4:	00c42423          	sw	a2,8(s0)
80001de8:	00d42623          	sw	a3,12(s0)
80001dec:	00e42823          	sw	a4,16(s0)
80001df0:	00f42a23          	sw	a5,20(s0)
80001df4:	01042c23          	sw	a6,24(s0)
80001df8:	01142e23          	sw	a7,28(s0)
C:\Microsemi\SoftConsole_v5.3.0.30-20180629-171539\extras\workspace.examples\Dhrystone_RISCV/dhry_printf.c:246
  va_list ap;
  va_start(ap, fmt);
80001dfc:	02040793          	addi	a5,s0,32
80001e00:	fe478793          	addi	a5,a5,-28
80001e04:	fef42623          	sw	a5,-20(s0)
C:\Microsemi\SoftConsole_v5.3.0.30-20180629-171539\extras\workspace.examples\Dhrystone_RISCV/dhry_printf.c:248

  vprintfmt((void*)putchar, 0, fmt, ap);
80001e08:	fec42783          	lw	a5,-20(s0)
80001e0c:	00078693          	mv	a3,a5
80001e10:	fdc42603          	lw	a2,-36(s0)
80001e14:	00000593          	li	a1,0
80001e18:	800017b7          	lui	a5,0x80001
80001e1c:	42078513          	addi	a0,a5,1056 # 80001420 <__stack_top+0xffff6950>
80001e20:	b71ff0ef          	jal	ra,80001990 <vprintfmt>
C:\Microsemi\SoftConsole_v5.3.0.30-20180629-171539\extras\workspace.examples\Dhrystone_RISCV/dhry_printf.c:251

  va_end(ap);
  return 0; // incorrect return value, but who cares, anyway?
80001e24:	00000793          	li	a5,0
C:\Microsemi\SoftConsole_v5.3.0.30-20180629-171539\extras\workspace.examples\Dhrystone_RISCV/dhry_printf.c:252
}
80001e28:	00078513          	mv	a0,a5
80001e2c:	02c12083          	lw	ra,44(sp)
80001e30:	02812403          	lw	s0,40(sp)
80001e34:	05010113          	addi	sp,sp,80
80001e38:	00008067          	ret

80001e3c <sprintf>:
sprintf():
C:\Microsemi\SoftConsole_v5.3.0.30-20180629-171539\extras\workspace.examples\Dhrystone_RISCV/dhry_printf.c:255

int sprintf(char* str, const char* fmt, ...)
{
80001e3c:	fb010113          	addi	sp,sp,-80
80001e40:	02112623          	sw	ra,44(sp)
80001e44:	02812423          	sw	s0,40(sp)
80001e48:	03010413          	addi	s0,sp,48
80001e4c:	fca42e23          	sw	a0,-36(s0)
80001e50:	fcb42c23          	sw	a1,-40(s0)
80001e54:	00c42423          	sw	a2,8(s0)
80001e58:	00d42623          	sw	a3,12(s0)
80001e5c:	00e42823          	sw	a4,16(s0)
80001e60:	00f42a23          	sw	a5,20(s0)
80001e64:	01042c23          	sw	a6,24(s0)
80001e68:	01142e23          	sw	a7,28(s0)
C:\Microsemi\SoftConsole_v5.3.0.30-20180629-171539\extras\workspace.examples\Dhrystone_RISCV/dhry_printf.c:257
  va_list ap;
  char* str0 = str;
80001e6c:	fdc42783          	lw	a5,-36(s0)
80001e70:	fef42623          	sw	a5,-20(s0)
C:\Microsemi\SoftConsole_v5.3.0.30-20180629-171539\extras\workspace.examples\Dhrystone_RISCV/dhry_printf.c:258
  va_start(ap, fmt);
80001e74:	02040793          	addi	a5,s0,32
80001e78:	fe878793          	addi	a5,a5,-24
80001e7c:	fef42423          	sw	a5,-24(s0)
C:\Microsemi\SoftConsole_v5.3.0.30-20180629-171539\extras\workspace.examples\Dhrystone_RISCV/dhry_printf.c:260

  vprintfmt(sprintf_putch, (void**)&str, fmt, ap);
80001e80:	fe842703          	lw	a4,-24(s0)
80001e84:	fdc40793          	addi	a5,s0,-36
80001e88:	00070693          	mv	a3,a4
80001e8c:	fd842603          	lw	a2,-40(s0)
80001e90:	00078593          	mv	a1,a5
80001e94:	800017b7          	lui	a5,0x80001
80001e98:	47478513          	addi	a0,a5,1140 # 80001474 <__stack_top+0xffff69a4>
80001e9c:	af5ff0ef          	jal	ra,80001990 <vprintfmt>
C:\Microsemi\SoftConsole_v5.3.0.30-20180629-171539\extras\workspace.examples\Dhrystone_RISCV/dhry_printf.c:261
  *str = 0;
80001ea0:	fdc42783          	lw	a5,-36(s0)
80001ea4:	00078023          	sb	zero,0(a5)
C:\Microsemi\SoftConsole_v5.3.0.30-20180629-171539\extras\workspace.examples\Dhrystone_RISCV/dhry_printf.c:264

  va_end(ap);
  return str - str0;
80001ea8:	fdc42783          	lw	a5,-36(s0)
80001eac:	00078713          	mv	a4,a5
80001eb0:	fec42783          	lw	a5,-20(s0)
80001eb4:	40f707b3          	sub	a5,a4,a5
C:\Microsemi\SoftConsole_v5.3.0.30-20180629-171539\extras\workspace.examples\Dhrystone_RISCV/dhry_printf.c:265
}
80001eb8:	00078513          	mv	a0,a5
80001ebc:	02c12083          	lw	ra,44(sp)
80001ec0:	02812403          	lw	s0,40(sp)
80001ec4:	05010113          	addi	sp,sp,80
80001ec8:	00008067          	ret

80001ecc <HW_set_32bit_reg>:
HW_set_32bit_reg():
C:\Microsemi\SoftConsole_v5.3.0.30-20180629-171539\extras\workspace.examples\Dhrystone/hal/hw_reg_access.c:33
80001ecc:	00b52023          	sw	a1,0(a0)
C:\Microsemi\SoftConsole_v5.3.0.30-20180629-171539\extras\workspace.examples\Dhrystone/hal/hw_reg_access.c:35
80001ed0:	00008067          	ret

80001ed4 <HW_get_32bit_reg>:
HW_get_32bit_reg():
C:\Microsemi\SoftConsole_v5.3.0.30-20180629-171539\extras\workspace.examples\Dhrystone/hal/hw_reg_access.c:51
80001ed4:	00052503          	lw	a0,0(a0)
C:\Microsemi\SoftConsole_v5.3.0.30-20180629-171539\extras\workspace.examples\Dhrystone/hal/hw_reg_access.c:53
80001ed8:	00008067          	ret

80001edc <HW_set_32bit_reg_field>:
HW_set_32bit_reg_field():
C:\Microsemi\SoftConsole_v5.3.0.30-20180629-171539\extras\workspace.examples\Dhrystone/hal/hw_reg_access.c:78
80001edc:	00052783          	lw	a5,0(a0)
C:\Microsemi\SoftConsole_v5.3.0.30-20180629-171539\extras\workspace.examples\Dhrystone/hal/hw_reg_access.c:79
80001ee0:	00b696b3          	sll	a3,a3,a1
C:\Microsemi\SoftConsole_v5.3.0.30-20180629-171539\extras\workspace.examples\Dhrystone/hal/hw_reg_access.c:80
80001ee4:	00d7c6b3          	xor	a3,a5,a3
80001ee8:	00c6f6b3          	and	a3,a3,a2
80001eec:	00f6c6b3          	xor	a3,a3,a5
80001ef0:	00d52023          	sw	a3,0(a0)
C:\Microsemi\SoftConsole_v5.3.0.30-20180629-171539\extras\workspace.examples\Dhrystone/hal/hw_reg_access.c:82
80001ef4:	00008067          	ret

80001ef8 <HW_get_32bit_reg_field>:
HW_get_32bit_reg_field():
C:\Microsemi\SoftConsole_v5.3.0.30-20180629-171539\extras\workspace.examples\Dhrystone/hal/hw_reg_access.c:107
80001ef8:	00052503          	lw	a0,0(a0)
80001efc:	00c57533          	and	a0,a0,a2
C:\Microsemi\SoftConsole_v5.3.0.30-20180629-171539\extras\workspace.examples\Dhrystone/hal/hw_reg_access.c:109
80001f00:	00b55533          	srl	a0,a0,a1
80001f04:	00008067          	ret

80001f08 <HW_set_16bit_reg>:
HW_set_16bit_reg():
C:\Microsemi\SoftConsole_v5.3.0.30-20180629-171539\extras\workspace.examples\Dhrystone/hal/hw_reg_access.c:126
80001f08:	01059593          	slli	a1,a1,0x10
80001f0c:	0105d593          	srli	a1,a1,0x10
80001f10:	00b51023          	sh	a1,0(a0)
C:\Microsemi\SoftConsole_v5.3.0.30-20180629-171539\extras\workspace.examples\Dhrystone/hal/hw_reg_access.c:127
80001f14:	00008067          	ret

80001f18 <HW_get_16bit_reg>:
HW_get_16bit_reg():
C:\Microsemi\SoftConsole_v5.3.0.30-20180629-171539\extras\workspace.examples\Dhrystone/hal/hw_reg_access.c:143
80001f18:	00055503          	lhu	a0,0(a0)
C:\Microsemi\SoftConsole_v5.3.0.30-20180629-171539\extras\workspace.examples\Dhrystone/hal/hw_reg_access.c:144
80001f1c:	00008067          	ret

80001f20 <HW_set_16bit_reg_field>:
HW_set_16bit_reg_field():
C:\Microsemi\SoftConsole_v5.3.0.30-20180629-171539\extras\workspace.examples\Dhrystone/hal/hw_reg_access.c:167
80001f20:	00055783          	lhu	a5,0(a0)
C:\Microsemi\SoftConsole_v5.3.0.30-20180629-171539\extras\workspace.examples\Dhrystone/hal/hw_reg_access.c:168
80001f24:	00b696b3          	sll	a3,a3,a1
C:\Microsemi\SoftConsole_v5.3.0.30-20180629-171539\extras\workspace.examples\Dhrystone/hal/hw_reg_access.c:169
80001f28:	01061613          	slli	a2,a2,0x10
80001f2c:	01065613          	srli	a2,a2,0x10
80001f30:	00c6f6b3          	and	a3,a3,a2
80001f34:	fff64613          	not	a2,a2
80001f38:	00f67633          	and	a2,a2,a5
80001f3c:	00c6e633          	or	a2,a3,a2
80001f40:	00c51023          	sh	a2,0(a0)
C:\Microsemi\SoftConsole_v5.3.0.30-20180629-171539\extras\workspace.examples\Dhrystone/hal/hw_reg_access.c:170
80001f44:	00008067          	ret

80001f48 <HW_get_16bit_reg_field>:
HW_get_16bit_reg_field():
C:\Microsemi\SoftConsole_v5.3.0.30-20180629-171539\extras\workspace.examples\Dhrystone/hal/hw_reg_access.c:193
80001f48:	00055503          	lhu	a0,0(a0)
80001f4c:	00a67533          	and	a0,a2,a0
80001f50:	00b55533          	srl	a0,a0,a1
C:\Microsemi\SoftConsole_v5.3.0.30-20180629-171539\extras\workspace.examples\Dhrystone/hal/hw_reg_access.c:195
80001f54:	01051513          	slli	a0,a0,0x10
80001f58:	01055513          	srli	a0,a0,0x10
80001f5c:	00008067          	ret

80001f60 <HW_set_8bit_reg>:
HW_set_8bit_reg():
C:\Microsemi\SoftConsole_v5.3.0.30-20180629-171539\extras\workspace.examples\Dhrystone/hal/hw_reg_access.c:213
80001f60:	0ff5f593          	andi	a1,a1,255
80001f64:	00b50023          	sb	a1,0(a0)
C:\Microsemi\SoftConsole_v5.3.0.30-20180629-171539\extras\workspace.examples\Dhrystone/hal/hw_reg_access.c:215
80001f68:	00008067          	ret

80001f6c <HW_get_8bit_reg>:
HW_get_8bit_reg():
C:\Microsemi\SoftConsole_v5.3.0.30-20180629-171539\extras\workspace.examples\Dhrystone/hal/hw_reg_access.c:231
80001f6c:	00054503          	lbu	a0,0(a0)
C:\Microsemi\SoftConsole_v5.3.0.30-20180629-171539\extras\workspace.examples\Dhrystone/hal/hw_reg_access.c:232
80001f70:	00008067          	ret

80001f74 <HW_set_8bit_reg_field>:
HW_set_8bit_reg_field():
C:\Microsemi\SoftConsole_v5.3.0.30-20180629-171539\extras\workspace.examples\Dhrystone/hal/hw_reg_access.c:256
80001f74:	00054783          	lbu	a5,0(a0)
C:\Microsemi\SoftConsole_v5.3.0.30-20180629-171539\extras\workspace.examples\Dhrystone/hal/hw_reg_access.c:257
80001f78:	00b696b3          	sll	a3,a3,a1
C:\Microsemi\SoftConsole_v5.3.0.30-20180629-171539\extras\workspace.examples\Dhrystone/hal/hw_reg_access.c:258
80001f7c:	0ff67613          	andi	a2,a2,255
80001f80:	00c6f6b3          	and	a3,a3,a2
80001f84:	fff64613          	not	a2,a2
80001f88:	00f67633          	and	a2,a2,a5
80001f8c:	00c6e633          	or	a2,a3,a2
80001f90:	00c50023          	sb	a2,0(a0)
C:\Microsemi\SoftConsole_v5.3.0.30-20180629-171539\extras\workspace.examples\Dhrystone/hal/hw_reg_access.c:261
80001f94:	00008067          	ret

80001f98 <HW_get_8bit_reg_field>:
HW_get_8bit_reg_field():
C:\Microsemi\SoftConsole_v5.3.0.30-20180629-171539\extras\workspace.examples\Dhrystone/hal/hw_reg_access.c:285
80001f98:	00054503          	lbu	a0,0(a0)
80001f9c:	00a67533          	and	a0,a2,a0
80001fa0:	00b55533          	srl	a0,a0,a1
C:\Microsemi\SoftConsole_v5.3.0.30-20180629-171539\extras\workspace.examples\Dhrystone/hal/hw_reg_access.c:288
80001fa4:	0ff57513          	andi	a0,a0,255
80001fa8:	00008067          	ret

80001fac <GPIO_init>:
GPIO_init():
C:\Microsemi\SoftConsole_v5.3.0.30-20180629-171539\extras\workspace.examples\Dhrystone/drivers/CoreGPIO/core_gpio.c:37
80001fac:	ff010113          	addi	sp,sp,-16
80001fb0:	00112623          	sw	ra,12(sp)
80001fb4:	00812423          	sw	s0,8(sp)
80001fb8:	00912223          	sw	s1,4(sp)
80001fbc:	01212023          	sw	s2,0(sp)
80001fc0:	00050913          	mv	s2,a0
80001fc4:	00058493          	mv	s1,a1
C:\Microsemi\SoftConsole_v5.3.0.30-20180629-171539\extras\workspace.examples\Dhrystone/drivers/CoreGPIO/core_gpio.c:41
80001fc8:	00b52023          	sw	a1,0(a0)
C:\Microsemi\SoftConsole_v5.3.0.30-20180629-171539\extras\workspace.examples\Dhrystone/drivers/CoreGPIO/core_gpio.c:42
80001fcc:	00c52223          	sw	a2,4(a0)
C:\Microsemi\SoftConsole_v5.3.0.30-20180629-171539\extras\workspace.examples\Dhrystone/drivers/CoreGPIO/core_gpio.c:45
80001fd0:	00000413          	li	s0,0
80001fd4:	01c0006f          	j	80001ff0 <GPIO_init+0x44>
C:\Microsemi\SoftConsole_v5.3.0.30-20180629-171539\extras\workspace.examples\Dhrystone/drivers/CoreGPIO/core_gpio.c:47 (discriminator 3)
80001fd8:	00000593          	li	a1,0
80001fdc:	00048513          	mv	a0,s1
80001fe0:	f81ff0ef          	jal	ra,80001f60 <HW_set_8bit_reg>
C:\Microsemi\SoftConsole_v5.3.0.30-20180629-171539\extras\workspace.examples\Dhrystone/drivers/CoreGPIO/core_gpio.c:48 (discriminator 3)
80001fe4:	00448493          	addi	s1,s1,4
C:\Microsemi\SoftConsole_v5.3.0.30-20180629-171539\extras\workspace.examples\Dhrystone/drivers/CoreGPIO/core_gpio.c:45 (discriminator 3)
80001fe8:	00140413          	addi	s0,s0,1
80001fec:	0ff47413          	andi	s0,s0,255
C:\Microsemi\SoftConsole_v5.3.0.30-20180629-171539\extras\workspace.examples\Dhrystone/drivers/CoreGPIO/core_gpio.c:45 (discriminator 1)
80001ff0:	01f00793          	li	a5,31
80001ff4:	fe87f2e3          	bleu	s0,a5,80001fd8 <GPIO_init+0x2c>
C:\Microsemi\SoftConsole_v5.3.0.30-20180629-171539\extras\workspace.examples\Dhrystone/drivers/CoreGPIO/core_gpio.c:51
80001ff8:	00492783          	lw	a5,4(s2)
80001ffc:	00100713          	li	a4,1
80002000:	02e78c63          	beq	a5,a4,80002038 <GPIO_init+0x8c>
80002004:	04078e63          	beqz	a5,80002060 <GPIO_init+0xb4>
80002008:	00200713          	li	a4,2
8000200c:	00e79a63          	bne	a5,a4,80002020 <GPIO_init+0x74>
C:\Microsemi\SoftConsole_v5.3.0.30-20180629-171539\extras\workspace.examples\Dhrystone/drivers/CoreGPIO/core_gpio.c:54
80002010:	00092503          	lw	a0,0(s2)
80002014:	fff00593          	li	a1,-1
80002018:	08050513          	addi	a0,a0,128
8000201c:	eb1ff0ef          	jal	ra,80001ecc <HW_set_32bit_reg>
C:\Microsemi\SoftConsole_v5.3.0.30-20180629-171539\extras\workspace.examples\Dhrystone/drivers/CoreGPIO/core_gpio.c:73
80002020:	00c12083          	lw	ra,12(sp)
80002024:	00812403          	lw	s0,8(sp)
80002028:	00412483          	lw	s1,4(sp)
8000202c:	00012903          	lw	s2,0(sp)
80002030:	01010113          	addi	sp,sp,16
80002034:	00008067          	ret
C:\Microsemi\SoftConsole_v5.3.0.30-20180629-171539\extras\workspace.examples\Dhrystone/drivers/CoreGPIO/core_gpio.c:58
80002038:	00092503          	lw	a0,0(s2)
8000203c:	00010437          	lui	s0,0x10
80002040:	fff40593          	addi	a1,s0,-1 # ffff <HEAP_SIZE+0xf7ff>
80002044:	08050513          	addi	a0,a0,128
80002048:	ec1ff0ef          	jal	ra,80001f08 <HW_set_16bit_reg>
C:\Microsemi\SoftConsole_v5.3.0.30-20180629-171539\extras\workspace.examples\Dhrystone/drivers/CoreGPIO/core_gpio.c:59
8000204c:	00092503          	lw	a0,0(s2)
80002050:	fff40593          	addi	a1,s0,-1
80002054:	08450513          	addi	a0,a0,132
80002058:	eb1ff0ef          	jal	ra,80001f08 <HW_set_16bit_reg>
C:\Microsemi\SoftConsole_v5.3.0.30-20180629-171539\extras\workspace.examples\Dhrystone/drivers/CoreGPIO/core_gpio.c:60
8000205c:	fc5ff06f          	j	80002020 <GPIO_init+0x74>
C:\Microsemi\SoftConsole_v5.3.0.30-20180629-171539\extras\workspace.examples\Dhrystone/drivers/CoreGPIO/core_gpio.c:63
80002060:	00092503          	lw	a0,0(s2)
80002064:	0ff00593          	li	a1,255
80002068:	08050513          	addi	a0,a0,128
8000206c:	ef5ff0ef          	jal	ra,80001f60 <HW_set_8bit_reg>
C:\Microsemi\SoftConsole_v5.3.0.30-20180629-171539\extras\workspace.examples\Dhrystone/drivers/CoreGPIO/core_gpio.c:64
80002070:	00092503          	lw	a0,0(s2)
80002074:	0ff00593          	li	a1,255
80002078:	08450513          	addi	a0,a0,132
8000207c:	ee5ff0ef          	jal	ra,80001f60 <HW_set_8bit_reg>
C:\Microsemi\SoftConsole_v5.3.0.30-20180629-171539\extras\workspace.examples\Dhrystone/drivers/CoreGPIO/core_gpio.c:65
80002080:	00092503          	lw	a0,0(s2)
80002084:	0ff00593          	li	a1,255
80002088:	08850513          	addi	a0,a0,136
8000208c:	ed5ff0ef          	jal	ra,80001f60 <HW_set_8bit_reg>
C:\Microsemi\SoftConsole_v5.3.0.30-20180629-171539\extras\workspace.examples\Dhrystone/drivers/CoreGPIO/core_gpio.c:66
80002090:	00092503          	lw	a0,0(s2)
80002094:	0ff00593          	li	a1,255
80002098:	08c50513          	addi	a0,a0,140
8000209c:	ec5ff0ef          	jal	ra,80001f60 <HW_set_8bit_reg>
C:\Microsemi\SoftConsole_v5.3.0.30-20180629-171539\extras\workspace.examples\Dhrystone/drivers/CoreGPIO/core_gpio.c:73
800020a0:	f81ff06f          	j	80002020 <GPIO_init+0x74>

800020a4 <GPIO_config>:
GPIO_config():
C:\Microsemi\SoftConsole_v5.3.0.30-20180629-171539\extras\workspace.examples\Dhrystone/drivers/CoreGPIO/core_gpio.c:88
800020a4:	01f00793          	li	a5,31
800020a8:	00b7f463          	bleu	a1,a5,800020b0 <GPIO_config+0xc>
800020ac:	00008067          	ret
C:\Microsemi\SoftConsole_v5.3.0.30-20180629-171539\extras\workspace.examples\Dhrystone/drivers/CoreGPIO/core_gpio.c:85
800020b0:	ff010113          	addi	sp,sp,-16
800020b4:	00112623          	sw	ra,12(sp)
C:\Microsemi\SoftConsole_v5.3.0.30-20180629-171539\extras\workspace.examples\Dhrystone/drivers/CoreGPIO/core_gpio.c:90
800020b8:	00052703          	lw	a4,0(a0)
C:\Microsemi\SoftConsole_v5.3.0.30-20180629-171539\extras\workspace.examples\Dhrystone/drivers/CoreGPIO/core_gpio.c:91
800020bc:	00259513          	slli	a0,a1,0x2
C:\Microsemi\SoftConsole_v5.3.0.30-20180629-171539\extras\workspace.examples\Dhrystone/drivers/CoreGPIO/core_gpio.c:92
800020c0:	00060593          	mv	a1,a2
800020c4:	00e50533          	add	a0,a0,a4
800020c8:	e05ff0ef          	jal	ra,80001ecc <HW_set_32bit_reg>
C:\Microsemi\SoftConsole_v5.3.0.30-20180629-171539\extras\workspace.examples\Dhrystone/drivers/CoreGPIO/core_gpio.c:103
800020cc:	00c12083          	lw	ra,12(sp)
800020d0:	01010113          	addi	sp,sp,16
800020d4:	00008067          	ret

800020d8 <GPIO_set_outputs>:
GPIO_set_outputs():
C:\Microsemi\SoftConsole_v5.3.0.30-20180629-171539\extras\workspace.examples\Dhrystone/drivers/CoreGPIO/core_gpio.c:114
800020d8:	ff010113          	addi	sp,sp,-16
800020dc:	00112623          	sw	ra,12(sp)
800020e0:	00812423          	sw	s0,8(sp)
800020e4:	00912223          	sw	s1,4(sp)
800020e8:	00050413          	mv	s0,a0
800020ec:	00058493          	mv	s1,a1
C:\Microsemi\SoftConsole_v5.3.0.30-20180629-171539\extras\workspace.examples\Dhrystone/drivers/CoreGPIO/core_gpio.c:115
800020f0:	00452783          	lw	a5,4(a0)
800020f4:	00100713          	li	a4,1
800020f8:	02e78863          	beq	a5,a4,80002128 <GPIO_set_outputs+0x50>
800020fc:	04078a63          	beqz	a5,80002150 <GPIO_set_outputs+0x78>
80002100:	00200713          	li	a4,2
80002104:	00e79863          	bne	a5,a4,80002114 <GPIO_set_outputs+0x3c>
C:\Microsemi\SoftConsole_v5.3.0.30-20180629-171539\extras\workspace.examples\Dhrystone/drivers/CoreGPIO/core_gpio.c:118
80002108:	00052503          	lw	a0,0(a0)
8000210c:	0a050513          	addi	a0,a0,160
80002110:	dbdff0ef          	jal	ra,80001ecc <HW_set_32bit_reg>
C:\Microsemi\SoftConsole_v5.3.0.30-20180629-171539\extras\workspace.examples\Dhrystone/drivers/CoreGPIO/core_gpio.c:146
80002114:	00c12083          	lw	ra,12(sp)
80002118:	00812403          	lw	s0,8(sp)
8000211c:	00412483          	lw	s1,4(sp)
80002120:	01010113          	addi	sp,sp,16
80002124:	00008067          	ret
C:\Microsemi\SoftConsole_v5.3.0.30-20180629-171539\extras\workspace.examples\Dhrystone/drivers/CoreGPIO/core_gpio.c:122
80002128:	00052503          	lw	a0,0(a0)
8000212c:	01059593          	slli	a1,a1,0x10
80002130:	0105d593          	srli	a1,a1,0x10
80002134:	0a050513          	addi	a0,a0,160
80002138:	dd1ff0ef          	jal	ra,80001f08 <HW_set_16bit_reg>
C:\Microsemi\SoftConsole_v5.3.0.30-20180629-171539\extras\workspace.examples\Dhrystone/drivers/CoreGPIO/core_gpio.c:123
8000213c:	00042503          	lw	a0,0(s0)
80002140:	0104d593          	srli	a1,s1,0x10
80002144:	0a450513          	addi	a0,a0,164
80002148:	dc1ff0ef          	jal	ra,80001f08 <HW_set_16bit_reg>
C:\Microsemi\SoftConsole_v5.3.0.30-20180629-171539\extras\workspace.examples\Dhrystone/drivers/CoreGPIO/core_gpio.c:124
8000214c:	fc9ff06f          	j	80002114 <GPIO_set_outputs+0x3c>
C:\Microsemi\SoftConsole_v5.3.0.30-20180629-171539\extras\workspace.examples\Dhrystone/drivers/CoreGPIO/core_gpio.c:127
80002150:	00052503          	lw	a0,0(a0)
80002154:	0ff5f593          	andi	a1,a1,255
80002158:	0a050513          	addi	a0,a0,160
8000215c:	e05ff0ef          	jal	ra,80001f60 <HW_set_8bit_reg>
C:\Microsemi\SoftConsole_v5.3.0.30-20180629-171539\extras\workspace.examples\Dhrystone/drivers/CoreGPIO/core_gpio.c:128
80002160:	00042503          	lw	a0,0(s0)
80002164:	0084d593          	srli	a1,s1,0x8
80002168:	0ff5f593          	andi	a1,a1,255
8000216c:	0a450513          	addi	a0,a0,164
80002170:	df1ff0ef          	jal	ra,80001f60 <HW_set_8bit_reg>
C:\Microsemi\SoftConsole_v5.3.0.30-20180629-171539\extras\workspace.examples\Dhrystone/drivers/CoreGPIO/core_gpio.c:129
80002174:	00042503          	lw	a0,0(s0)
80002178:	0104d593          	srli	a1,s1,0x10
8000217c:	0ff5f593          	andi	a1,a1,255
80002180:	0a850513          	addi	a0,a0,168
80002184:	dddff0ef          	jal	ra,80001f60 <HW_set_8bit_reg>
C:\Microsemi\SoftConsole_v5.3.0.30-20180629-171539\extras\workspace.examples\Dhrystone/drivers/CoreGPIO/core_gpio.c:130
80002188:	00042503          	lw	a0,0(s0)
8000218c:	0184d593          	srli	a1,s1,0x18
80002190:	0ac50513          	addi	a0,a0,172
80002194:	dcdff0ef          	jal	ra,80001f60 <HW_set_8bit_reg>
C:\Microsemi\SoftConsole_v5.3.0.30-20180629-171539\extras\workspace.examples\Dhrystone/drivers/CoreGPIO/core_gpio.c:146
80002198:	f7dff06f          	j	80002114 <GPIO_set_outputs+0x3c>

8000219c <GPIO_get_inputs>:
GPIO_get_inputs():
C:\Microsemi\SoftConsole_v5.3.0.30-20180629-171539\extras\workspace.examples\Dhrystone/drivers/CoreGPIO/core_gpio.c:156
8000219c:	ff010113          	addi	sp,sp,-16
800021a0:	00112623          	sw	ra,12(sp)
800021a4:	00812423          	sw	s0,8(sp)
800021a8:	00912223          	sw	s1,4(sp)
800021ac:	00050413          	mv	s0,a0
C:\Microsemi\SoftConsole_v5.3.0.30-20180629-171539\extras\workspace.examples\Dhrystone/drivers/CoreGPIO/core_gpio.c:159
800021b0:	00452783          	lw	a5,4(a0)
800021b4:	00100713          	li	a4,1
800021b8:	02e78863          	beq	a5,a4,800021e8 <GPIO_get_inputs+0x4c>
800021bc:	04078a63          	beqz	a5,80002210 <GPIO_get_inputs+0x74>
800021c0:	00200713          	li	a4,2
800021c4:	08e79e63          	bne	a5,a4,80002260 <GPIO_get_inputs+0xc4>
C:\Microsemi\SoftConsole_v5.3.0.30-20180629-171539\extras\workspace.examples\Dhrystone/drivers/CoreGPIO/core_gpio.c:162
800021c8:	00052503          	lw	a0,0(a0)
800021cc:	09050513          	addi	a0,a0,144
800021d0:	d05ff0ef          	jal	ra,80001ed4 <HW_get_32bit_reg>
C:\Microsemi\SoftConsole_v5.3.0.30-20180629-171539\extras\workspace.examples\Dhrystone/drivers/CoreGPIO/core_gpio.c:183
800021d4:	00c12083          	lw	ra,12(sp)
800021d8:	00812403          	lw	s0,8(sp)
800021dc:	00412483          	lw	s1,4(sp)
800021e0:	01010113          	addi	sp,sp,16
800021e4:	00008067          	ret
C:\Microsemi\SoftConsole_v5.3.0.30-20180629-171539\extras\workspace.examples\Dhrystone/drivers/CoreGPIO/core_gpio.c:166
800021e8:	00052503          	lw	a0,0(a0)
800021ec:	09050513          	addi	a0,a0,144
800021f0:	d29ff0ef          	jal	ra,80001f18 <HW_get_16bit_reg>
800021f4:	00050493          	mv	s1,a0
C:\Microsemi\SoftConsole_v5.3.0.30-20180629-171539\extras\workspace.examples\Dhrystone/drivers/CoreGPIO/core_gpio.c:167
800021f8:	00042503          	lw	a0,0(s0)
800021fc:	09450513          	addi	a0,a0,148
80002200:	d19ff0ef          	jal	ra,80001f18 <HW_get_16bit_reg>
80002204:	01051513          	slli	a0,a0,0x10
80002208:	00a4e533          	or	a0,s1,a0
C:\Microsemi\SoftConsole_v5.3.0.30-20180629-171539\extras\workspace.examples\Dhrystone/drivers/CoreGPIO/core_gpio.c:168
8000220c:	fc9ff06f          	j	800021d4 <GPIO_get_inputs+0x38>
C:\Microsemi\SoftConsole_v5.3.0.30-20180629-171539\extras\workspace.examples\Dhrystone/drivers/CoreGPIO/core_gpio.c:171
80002210:	00052503          	lw	a0,0(a0)
80002214:	09050513          	addi	a0,a0,144
80002218:	d55ff0ef          	jal	ra,80001f6c <HW_get_8bit_reg>
8000221c:	00050493          	mv	s1,a0
C:\Microsemi\SoftConsole_v5.3.0.30-20180629-171539\extras\workspace.examples\Dhrystone/drivers/CoreGPIO/core_gpio.c:172
80002220:	00042503          	lw	a0,0(s0)
80002224:	09450513          	addi	a0,a0,148
80002228:	d45ff0ef          	jal	ra,80001f6c <HW_get_8bit_reg>
8000222c:	00851513          	slli	a0,a0,0x8
80002230:	00a4e4b3          	or	s1,s1,a0
C:\Microsemi\SoftConsole_v5.3.0.30-20180629-171539\extras\workspace.examples\Dhrystone/drivers/CoreGPIO/core_gpio.c:173
80002234:	00042503          	lw	a0,0(s0)
80002238:	09850513          	addi	a0,a0,152
8000223c:	d31ff0ef          	jal	ra,80001f6c <HW_get_8bit_reg>
80002240:	01051513          	slli	a0,a0,0x10
80002244:	009564b3          	or	s1,a0,s1
C:\Microsemi\SoftConsole_v5.3.0.30-20180629-171539\extras\workspace.examples\Dhrystone/drivers/CoreGPIO/core_gpio.c:174
80002248:	00042503          	lw	a0,0(s0)
8000224c:	09c50513          	addi	a0,a0,156
80002250:	d1dff0ef          	jal	ra,80001f6c <HW_get_8bit_reg>
80002254:	01851513          	slli	a0,a0,0x18
80002258:	00956533          	or	a0,a0,s1
C:\Microsemi\SoftConsole_v5.3.0.30-20180629-171539\extras\workspace.examples\Dhrystone/drivers/CoreGPIO/core_gpio.c:175
8000225c:	f79ff06f          	j	800021d4 <GPIO_get_inputs+0x38>
C:\Microsemi\SoftConsole_v5.3.0.30-20180629-171539\extras\workspace.examples\Dhrystone/drivers/CoreGPIO/core_gpio.c:157
80002260:	00000513          	li	a0,0
C:\Microsemi\SoftConsole_v5.3.0.30-20180629-171539\extras\workspace.examples\Dhrystone/drivers/CoreGPIO/core_gpio.c:182
80002264:	f71ff06f          	j	800021d4 <GPIO_get_inputs+0x38>

80002268 <GPIO_get_outputs>:
GPIO_get_outputs():
C:\Microsemi\SoftConsole_v5.3.0.30-20180629-171539\extras\workspace.examples\Dhrystone/drivers/CoreGPIO/core_gpio.c:193
80002268:	ff010113          	addi	sp,sp,-16
8000226c:	00112623          	sw	ra,12(sp)
80002270:	00812423          	sw	s0,8(sp)
80002274:	00912223          	sw	s1,4(sp)
80002278:	00050413          	mv	s0,a0
C:\Microsemi\SoftConsole_v5.3.0.30-20180629-171539\extras\workspace.examples\Dhrystone/drivers/CoreGPIO/core_gpio.c:196
8000227c:	00452783          	lw	a5,4(a0)
80002280:	00100713          	li	a4,1
80002284:	02e78863          	beq	a5,a4,800022b4 <GPIO_get_outputs+0x4c>
80002288:	04078a63          	beqz	a5,800022dc <GPIO_get_outputs+0x74>
8000228c:	00200713          	li	a4,2
80002290:	08e79e63          	bne	a5,a4,8000232c <GPIO_get_outputs+0xc4>
C:\Microsemi\SoftConsole_v5.3.0.30-20180629-171539\extras\workspace.examples\Dhrystone/drivers/CoreGPIO/core_gpio.c:199
80002294:	00052503          	lw	a0,0(a0)
80002298:	0a050513          	addi	a0,a0,160
8000229c:	c39ff0ef          	jal	ra,80001ed4 <HW_get_32bit_reg>
C:\Microsemi\SoftConsole_v5.3.0.30-20180629-171539\extras\workspace.examples\Dhrystone/drivers/CoreGPIO/core_gpio.c:220
800022a0:	00c12083          	lw	ra,12(sp)
800022a4:	00812403          	lw	s0,8(sp)
800022a8:	00412483          	lw	s1,4(sp)
800022ac:	01010113          	addi	sp,sp,16
800022b0:	00008067          	ret
C:\Microsemi\SoftConsole_v5.3.0.30-20180629-171539\extras\workspace.examples\Dhrystone/drivers/CoreGPIO/core_gpio.c:203
800022b4:	00052503          	lw	a0,0(a0)
800022b8:	0a050513          	addi	a0,a0,160
800022bc:	c5dff0ef          	jal	ra,80001f18 <HW_get_16bit_reg>
800022c0:	00050493          	mv	s1,a0
C:\Microsemi\SoftConsole_v5.3.0.30-20180629-171539\extras\workspace.examples\Dhrystone/drivers/CoreGPIO/core_gpio.c:204
800022c4:	00042503          	lw	a0,0(s0)
800022c8:	0a450513          	addi	a0,a0,164
800022cc:	c4dff0ef          	jal	ra,80001f18 <HW_get_16bit_reg>
800022d0:	01051513          	slli	a0,a0,0x10
800022d4:	00a4e533          	or	a0,s1,a0
C:\Microsemi\SoftConsole_v5.3.0.30-20180629-171539\extras\workspace.examples\Dhrystone/drivers/CoreGPIO/core_gpio.c:205
800022d8:	fc9ff06f          	j	800022a0 <GPIO_get_outputs+0x38>
C:\Microsemi\SoftConsole_v5.3.0.30-20180629-171539\extras\workspace.examples\Dhrystone/drivers/CoreGPIO/core_gpio.c:208
800022dc:	00052503          	lw	a0,0(a0)
800022e0:	0a050513          	addi	a0,a0,160
800022e4:	c35ff0ef          	jal	ra,80001f18 <HW_get_16bit_reg>
800022e8:	00050493          	mv	s1,a0
C:\Microsemi\SoftConsole_v5.3.0.30-20180629-171539\extras\workspace.examples\Dhrystone/drivers/CoreGPIO/core_gpio.c:209
800022ec:	00042503          	lw	a0,0(s0)
800022f0:	0a450513          	addi	a0,a0,164
800022f4:	c25ff0ef          	jal	ra,80001f18 <HW_get_16bit_reg>
800022f8:	00851513          	slli	a0,a0,0x8
800022fc:	00a4e4b3          	or	s1,s1,a0
C:\Microsemi\SoftConsole_v5.3.0.30-20180629-171539\extras\workspace.examples\Dhrystone/drivers/CoreGPIO/core_gpio.c:210
80002300:	00042503          	lw	a0,0(s0)
80002304:	0a850513          	addi	a0,a0,168
80002308:	c11ff0ef          	jal	ra,80001f18 <HW_get_16bit_reg>
8000230c:	01051513          	slli	a0,a0,0x10
80002310:	009564b3          	or	s1,a0,s1
C:\Microsemi\SoftConsole_v5.3.0.30-20180629-171539\extras\workspace.examples\Dhrystone/drivers/CoreGPIO/core_gpio.c:211
80002314:	00042503          	lw	a0,0(s0)
80002318:	0ac50513          	addi	a0,a0,172
8000231c:	bfdff0ef          	jal	ra,80001f18 <HW_get_16bit_reg>
80002320:	01851513          	slli	a0,a0,0x18
80002324:	00956533          	or	a0,a0,s1
C:\Microsemi\SoftConsole_v5.3.0.30-20180629-171539\extras\workspace.examples\Dhrystone/drivers/CoreGPIO/core_gpio.c:212
80002328:	f79ff06f          	j	800022a0 <GPIO_get_outputs+0x38>
C:\Microsemi\SoftConsole_v5.3.0.30-20180629-171539\extras\workspace.examples\Dhrystone/drivers/CoreGPIO/core_gpio.c:194
8000232c:	00000513          	li	a0,0
C:\Microsemi\SoftConsole_v5.3.0.30-20180629-171539\extras\workspace.examples\Dhrystone/drivers/CoreGPIO/core_gpio.c:219
80002330:	f71ff06f          	j	800022a0 <GPIO_get_outputs+0x38>

80002334 <GPIO_set_output>:
GPIO_set_output():
C:\Microsemi\SoftConsole_v5.3.0.30-20180629-171539\extras\workspace.examples\Dhrystone/drivers/CoreGPIO/core_gpio.c:232
80002334:	ff010113          	addi	sp,sp,-16
80002338:	00112623          	sw	ra,12(sp)
8000233c:	00812423          	sw	s0,8(sp)
80002340:	00912223          	sw	s1,4(sp)
80002344:	01212023          	sw	s2,0(sp)
80002348:	00050493          	mv	s1,a0
8000234c:	00058413          	mv	s0,a1
80002350:	00060913          	mv	s2,a2
C:\Microsemi\SoftConsole_v5.3.0.30-20180629-171539\extras\workspace.examples\Dhrystone/drivers/CoreGPIO/core_gpio.c:236
80002354:	00452783          	lw	a5,4(a0)
80002358:	00100713          	li	a4,1
8000235c:	06e78263          	beq	a5,a4,800023c0 <GPIO_set_output+0x8c>
80002360:	0c078263          	beqz	a5,80002424 <GPIO_set_output+0xf0>
80002364:	00200713          	li	a4,2
80002368:	02e79863          	bne	a5,a4,80002398 <GPIO_set_output+0x64>
C:\Microsemi\SoftConsole_v5.3.0.30-20180629-171539\extras\workspace.examples\Dhrystone/drivers/CoreGPIO/core_gpio.c:242
8000236c:	00052503          	lw	a0,0(a0)
80002370:	0a050513          	addi	a0,a0,160
80002374:	b61ff0ef          	jal	ra,80001ed4 <HW_get_32bit_reg>
C:\Microsemi\SoftConsole_v5.3.0.30-20180629-171539\extras\workspace.examples\Dhrystone/drivers/CoreGPIO/core_gpio.c:243
80002378:	02091c63          	bnez	s2,800023b0 <GPIO_set_output+0x7c>
C:\Microsemi\SoftConsole_v5.3.0.30-20180629-171539\extras\workspace.examples\Dhrystone/drivers/CoreGPIO/core_gpio.c:245
8000237c:	00100593          	li	a1,1
80002380:	008595b3          	sll	a1,a1,s0
80002384:	fff5c593          	not	a1,a1
80002388:	00a5f5b3          	and	a1,a1,a0
C:\Microsemi\SoftConsole_v5.3.0.30-20180629-171539\extras\workspace.examples\Dhrystone/drivers/CoreGPIO/core_gpio.c:251
8000238c:	0004a503          	lw	a0,0(s1)
80002390:	0a050513          	addi	a0,a0,160
80002394:	b39ff0ef          	jal	ra,80001ecc <HW_set_32bit_reg>
C:\Microsemi\SoftConsole_v5.3.0.30-20180629-171539\extras\workspace.examples\Dhrystone/drivers/CoreGPIO/core_gpio.c:322
80002398:	00c12083          	lw	ra,12(sp)
8000239c:	00812403          	lw	s0,8(sp)
800023a0:	00412483          	lw	s1,4(sp)
800023a4:	00012903          	lw	s2,0(sp)
800023a8:	01010113          	addi	sp,sp,16
800023ac:	00008067          	ret
C:\Microsemi\SoftConsole_v5.3.0.30-20180629-171539\extras\workspace.examples\Dhrystone/drivers/CoreGPIO/core_gpio.c:249
800023b0:	00100593          	li	a1,1
800023b4:	008595b3          	sll	a1,a1,s0
800023b8:	00a5e5b3          	or	a1,a1,a0
800023bc:	fd1ff06f          	j	8000238c <GPIO_set_output+0x58>
C:\Microsemi\SoftConsole_v5.3.0.30-20180629-171539\extras\workspace.examples\Dhrystone/drivers/CoreGPIO/core_gpio.c:267
800023c0:	00052483          	lw	s1,0(a0)
800023c4:	0045d793          	srli	a5,a1,0x4
800023c8:	00279793          	slli	a5,a5,0x2
800023cc:	00f484b3          	add	s1,s1,a5
800023d0:	0a048493          	addi	s1,s1,160
C:\Microsemi\SoftConsole_v5.3.0.30-20180629-171539\extras\workspace.examples\Dhrystone/drivers/CoreGPIO/core_gpio.c:269
800023d4:	00048513          	mv	a0,s1
800023d8:	b41ff0ef          	jal	ra,80001f18 <HW_get_16bit_reg>
C:\Microsemi\SoftConsole_v5.3.0.30-20180629-171539\extras\workspace.examples\Dhrystone/drivers/CoreGPIO/core_gpio.c:270
800023dc:	02091663          	bnez	s2,80002408 <GPIO_set_output+0xd4>
C:\Microsemi\SoftConsole_v5.3.0.30-20180629-171539\extras\workspace.examples\Dhrystone/drivers/CoreGPIO/core_gpio.c:272
800023e0:	00f47413          	andi	s0,s0,15
800023e4:	00100593          	li	a1,1
800023e8:	008595b3          	sll	a1,a1,s0
800023ec:	fff5c593          	not	a1,a1
800023f0:	00a5f5b3          	and	a1,a1,a0
800023f4:	01059593          	slli	a1,a1,0x10
800023f8:	0105d593          	srli	a1,a1,0x10
C:\Microsemi\SoftConsole_v5.3.0.30-20180629-171539\extras\workspace.examples\Dhrystone/drivers/CoreGPIO/core_gpio.c:278
800023fc:	00048513          	mv	a0,s1
80002400:	b09ff0ef          	jal	ra,80001f08 <HW_set_16bit_reg>
C:\Microsemi\SoftConsole_v5.3.0.30-20180629-171539\extras\workspace.examples\Dhrystone/drivers/CoreGPIO/core_gpio.c:289
80002404:	f95ff06f          	j	80002398 <GPIO_set_output+0x64>
C:\Microsemi\SoftConsole_v5.3.0.30-20180629-171539\extras\workspace.examples\Dhrystone/drivers/CoreGPIO/core_gpio.c:276
80002408:	00f47413          	andi	s0,s0,15
8000240c:	00100593          	li	a1,1
80002410:	008595b3          	sll	a1,a1,s0
80002414:	00a5e5b3          	or	a1,a1,a0
80002418:	01059593          	slli	a1,a1,0x10
8000241c:	0105d593          	srli	a1,a1,0x10
80002420:	fddff06f          	j	800023fc <GPIO_set_output+0xc8>
C:\Microsemi\SoftConsole_v5.3.0.30-20180629-171539\extras\workspace.examples\Dhrystone/drivers/CoreGPIO/core_gpio.c:294
80002424:	00052483          	lw	s1,0(a0)
80002428:	0035d793          	srli	a5,a1,0x3
8000242c:	00279793          	slli	a5,a5,0x2
80002430:	00f484b3          	add	s1,s1,a5
80002434:	0a048493          	addi	s1,s1,160
C:\Microsemi\SoftConsole_v5.3.0.30-20180629-171539\extras\workspace.examples\Dhrystone/drivers/CoreGPIO/core_gpio.c:296
80002438:	00048513          	mv	a0,s1
8000243c:	b31ff0ef          	jal	ra,80001f6c <HW_get_8bit_reg>
C:\Microsemi\SoftConsole_v5.3.0.30-20180629-171539\extras\workspace.examples\Dhrystone/drivers/CoreGPIO/core_gpio.c:297
80002440:	02091463          	bnez	s2,80002468 <GPIO_set_output+0x134>
C:\Microsemi\SoftConsole_v5.3.0.30-20180629-171539\extras\workspace.examples\Dhrystone/drivers/CoreGPIO/core_gpio.c:299
80002444:	00747413          	andi	s0,s0,7
80002448:	00100593          	li	a1,1
8000244c:	008595b3          	sll	a1,a1,s0
80002450:	fff5c593          	not	a1,a1
80002454:	00a5f5b3          	and	a1,a1,a0
80002458:	0ff5f593          	andi	a1,a1,255
C:\Microsemi\SoftConsole_v5.3.0.30-20180629-171539\extras\workspace.examples\Dhrystone/drivers/CoreGPIO/core_gpio.c:305
8000245c:	00048513          	mv	a0,s1
80002460:	b01ff0ef          	jal	ra,80001f60 <HW_set_8bit_reg>
C:\Microsemi\SoftConsole_v5.3.0.30-20180629-171539\extras\workspace.examples\Dhrystone/drivers/CoreGPIO/core_gpio.c:322
80002464:	f35ff06f          	j	80002398 <GPIO_set_output+0x64>
C:\Microsemi\SoftConsole_v5.3.0.30-20180629-171539\extras\workspace.examples\Dhrystone/drivers/CoreGPIO/core_gpio.c:303
80002468:	00747413          	andi	s0,s0,7
8000246c:	00100593          	li	a1,1
80002470:	00859433          	sll	s0,a1,s0
80002474:	00a465b3          	or	a1,s0,a0
80002478:	0ff5f593          	andi	a1,a1,255
8000247c:	fe1ff06f          	j	8000245c <GPIO_set_output+0x128>

80002480 <GPIO_drive_inout>:
GPIO_drive_inout():
C:\Microsemi\SoftConsole_v5.3.0.30-20180629-171539\extras\workspace.examples\Dhrystone/drivers/CoreGPIO/core_gpio.c:334
80002480:	ff010113          	addi	sp,sp,-16
80002484:	00112623          	sw	ra,12(sp)
80002488:	00812423          	sw	s0,8(sp)
8000248c:	00912223          	sw	s1,4(sp)
80002490:	00050493          	mv	s1,a0
80002494:	00058413          	mv	s0,a1
C:\Microsemi\SoftConsole_v5.3.0.30-20180629-171539\extras\workspace.examples\Dhrystone/drivers/CoreGPIO/core_gpio.c:336
80002498:	00052703          	lw	a4,0(a0)
C:\Microsemi\SoftConsole_v5.3.0.30-20180629-171539\extras\workspace.examples\Dhrystone/drivers/CoreGPIO/core_gpio.c:340
8000249c:	00100793          	li	a5,1
800024a0:	02f60263          	beq	a2,a5,800024c4 <GPIO_drive_inout+0x44>
800024a4:	04060863          	beqz	a2,800024f4 <GPIO_drive_inout+0x74>
800024a8:	00200793          	li	a5,2
800024ac:	06f60c63          	beq	a2,a5,80002524 <GPIO_drive_inout+0xa4>
C:\Microsemi\SoftConsole_v5.3.0.30-20180629-171539\extras\workspace.examples\Dhrystone/drivers/CoreGPIO/core_gpio.c:376
800024b0:	00c12083          	lw	ra,12(sp)
800024b4:	00812403          	lw	s0,8(sp)
800024b8:	00412483          	lw	s1,4(sp)
800024bc:	01010113          	addi	sp,sp,16
800024c0:	00008067          	ret
C:\Microsemi\SoftConsole_v5.3.0.30-20180629-171539\extras\workspace.examples\Dhrystone/drivers/CoreGPIO/core_gpio.c:344
800024c4:	00100613          	li	a2,1
800024c8:	e6dff0ef          	jal	ra,80002334 <GPIO_set_output>
C:\Microsemi\SoftConsole_v5.3.0.30-20180629-171539\extras\workspace.examples\Dhrystone/drivers/CoreGPIO/core_gpio.c:347
800024cc:	0004a783          	lw	a5,0(s1)
800024d0:	00241413          	slli	s0,s0,0x2
800024d4:	00878433          	add	s0,a5,s0
C:\Microsemi\SoftConsole_v5.3.0.30-20180629-171539\extras\workspace.examples\Dhrystone/drivers/CoreGPIO/core_gpio.c:348
800024d8:	00040513          	mv	a0,s0
800024dc:	a91ff0ef          	jal	ra,80001f6c <HW_get_8bit_reg>
C:\Microsemi\SoftConsole_v5.3.0.30-20180629-171539\extras\workspace.examples\Dhrystone/drivers/CoreGPIO/core_gpio.c:349
800024e0:	00456593          	ori	a1,a0,4
C:\Microsemi\SoftConsole_v5.3.0.30-20180629-171539\extras\workspace.examples\Dhrystone/drivers/CoreGPIO/core_gpio.c:350
800024e4:	0ff5f593          	andi	a1,a1,255
800024e8:	00040513          	mv	a0,s0
800024ec:	a75ff0ef          	jal	ra,80001f60 <HW_set_8bit_reg>
C:\Microsemi\SoftConsole_v5.3.0.30-20180629-171539\extras\workspace.examples\Dhrystone/drivers/CoreGPIO/core_gpio.c:351
800024f0:	fc1ff06f          	j	800024b0 <GPIO_drive_inout+0x30>
C:\Microsemi\SoftConsole_v5.3.0.30-20180629-171539\extras\workspace.examples\Dhrystone/drivers/CoreGPIO/core_gpio.c:355
800024f4:	00000613          	li	a2,0
800024f8:	e3dff0ef          	jal	ra,80002334 <GPIO_set_output>
C:\Microsemi\SoftConsole_v5.3.0.30-20180629-171539\extras\workspace.examples\Dhrystone/drivers/CoreGPIO/core_gpio.c:358
800024fc:	0004a783          	lw	a5,0(s1)
80002500:	00241413          	slli	s0,s0,0x2
80002504:	00878433          	add	s0,a5,s0
C:\Microsemi\SoftConsole_v5.3.0.30-20180629-171539\extras\workspace.examples\Dhrystone/drivers/CoreGPIO/core_gpio.c:359
80002508:	00040513          	mv	a0,s0
8000250c:	a61ff0ef          	jal	ra,80001f6c <HW_get_8bit_reg>
C:\Microsemi\SoftConsole_v5.3.0.30-20180629-171539\extras\workspace.examples\Dhrystone/drivers/CoreGPIO/core_gpio.c:360
80002510:	00456593          	ori	a1,a0,4
C:\Microsemi\SoftConsole_v5.3.0.30-20180629-171539\extras\workspace.examples\Dhrystone/drivers/CoreGPIO/core_gpio.c:361
80002514:	0ff5f593          	andi	a1,a1,255
80002518:	00040513          	mv	a0,s0
8000251c:	a45ff0ef          	jal	ra,80001f60 <HW_set_8bit_reg>
C:\Microsemi\SoftConsole_v5.3.0.30-20180629-171539\extras\workspace.examples\Dhrystone/drivers/CoreGPIO/core_gpio.c:362
80002520:	f91ff06f          	j	800024b0 <GPIO_drive_inout+0x30>
C:\Microsemi\SoftConsole_v5.3.0.30-20180629-171539\extras\workspace.examples\Dhrystone/drivers/CoreGPIO/core_gpio.c:366
80002524:	00259413          	slli	s0,a1,0x2
80002528:	00e40433          	add	s0,s0,a4
C:\Microsemi\SoftConsole_v5.3.0.30-20180629-171539\extras\workspace.examples\Dhrystone/drivers/CoreGPIO/core_gpio.c:367
8000252c:	00040513          	mv	a0,s0
80002530:	a3dff0ef          	jal	ra,80001f6c <HW_get_8bit_reg>
C:\Microsemi\SoftConsole_v5.3.0.30-20180629-171539\extras\workspace.examples\Dhrystone/drivers/CoreGPIO/core_gpio.c:369
80002534:	ffb57593          	andi	a1,a0,-5
80002538:	00040513          	mv	a0,s0
8000253c:	a25ff0ef          	jal	ra,80001f60 <HW_set_8bit_reg>
C:\Microsemi\SoftConsole_v5.3.0.30-20180629-171539\extras\workspace.examples\Dhrystone/drivers/CoreGPIO/core_gpio.c:376
80002540:	f71ff06f          	j	800024b0 <GPIO_drive_inout+0x30>

80002544 <GPIO_enable_irq>:
GPIO_enable_irq():
C:\Microsemi\SoftConsole_v5.3.0.30-20180629-171539\extras\workspace.examples\Dhrystone/drivers/CoreGPIO/core_gpio.c:389
80002544:	00052703          	lw	a4,0(a0)
C:\Microsemi\SoftConsole_v5.3.0.30-20180629-171539\extras\workspace.examples\Dhrystone/drivers/CoreGPIO/core_gpio.c:393
80002548:	01f00793          	li	a5,31
8000254c:	00b7f463          	bleu	a1,a5,80002554 <GPIO_enable_irq+0x10>
80002550:	00008067          	ret
C:\Microsemi\SoftConsole_v5.3.0.30-20180629-171539\extras\workspace.examples\Dhrystone/drivers/CoreGPIO/core_gpio.c:387
80002554:	ff010113          	addi	sp,sp,-16
80002558:	00112623          	sw	ra,12(sp)
8000255c:	00812423          	sw	s0,8(sp)
C:\Microsemi\SoftConsole_v5.3.0.30-20180629-171539\extras\workspace.examples\Dhrystone/drivers/CoreGPIO/core_gpio.c:395
80002560:	00259413          	slli	s0,a1,0x2
80002564:	00e40433          	add	s0,s0,a4
C:\Microsemi\SoftConsole_v5.3.0.30-20180629-171539\extras\workspace.examples\Dhrystone/drivers/CoreGPIO/core_gpio.c:396
80002568:	00040513          	mv	a0,s0
8000256c:	a01ff0ef          	jal	ra,80001f6c <HW_get_8bit_reg>
C:\Microsemi\SoftConsole_v5.3.0.30-20180629-171539\extras\workspace.examples\Dhrystone/drivers/CoreGPIO/core_gpio.c:397
80002570:	00856593          	ori	a1,a0,8
C:\Microsemi\SoftConsole_v5.3.0.30-20180629-171539\extras\workspace.examples\Dhrystone/drivers/CoreGPIO/core_gpio.c:398
80002574:	0ff5f593          	andi	a1,a1,255
80002578:	00040513          	mv	a0,s0
8000257c:	9e5ff0ef          	jal	ra,80001f60 <HW_set_8bit_reg>
C:\Microsemi\SoftConsole_v5.3.0.30-20180629-171539\extras\workspace.examples\Dhrystone/drivers/CoreGPIO/core_gpio.c:400
80002580:	00c12083          	lw	ra,12(sp)
80002584:	00812403          	lw	s0,8(sp)
80002588:	01010113          	addi	sp,sp,16
8000258c:	00008067          	ret

80002590 <GPIO_disable_irq>:
GPIO_disable_irq():
C:\Microsemi\SoftConsole_v5.3.0.30-20180629-171539\extras\workspace.examples\Dhrystone/drivers/CoreGPIO/core_gpio.c:413
80002590:	00052703          	lw	a4,0(a0)
C:\Microsemi\SoftConsole_v5.3.0.30-20180629-171539\extras\workspace.examples\Dhrystone/drivers/CoreGPIO/core_gpio.c:417
80002594:	01f00793          	li	a5,31
80002598:	00b7f463          	bleu	a1,a5,800025a0 <GPIO_disable_irq+0x10>
8000259c:	00008067          	ret
C:\Microsemi\SoftConsole_v5.3.0.30-20180629-171539\extras\workspace.examples\Dhrystone/drivers/CoreGPIO/core_gpio.c:411
800025a0:	ff010113          	addi	sp,sp,-16
800025a4:	00112623          	sw	ra,12(sp)
800025a8:	00812423          	sw	s0,8(sp)
C:\Microsemi\SoftConsole_v5.3.0.30-20180629-171539\extras\workspace.examples\Dhrystone/drivers/CoreGPIO/core_gpio.c:419
800025ac:	00259413          	slli	s0,a1,0x2
800025b0:	00e40433          	add	s0,s0,a4
C:\Microsemi\SoftConsole_v5.3.0.30-20180629-171539\extras\workspace.examples\Dhrystone/drivers/CoreGPIO/core_gpio.c:420
800025b4:	00040513          	mv	a0,s0
800025b8:	9b5ff0ef          	jal	ra,80001f6c <HW_get_8bit_reg>
C:\Microsemi\SoftConsole_v5.3.0.30-20180629-171539\extras\workspace.examples\Dhrystone/drivers/CoreGPIO/core_gpio.c:422
800025bc:	ff757593          	andi	a1,a0,-9
800025c0:	00040513          	mv	a0,s0
800025c4:	99dff0ef          	jal	ra,80001f60 <HW_set_8bit_reg>
C:\Microsemi\SoftConsole_v5.3.0.30-20180629-171539\extras\workspace.examples\Dhrystone/drivers/CoreGPIO/core_gpio.c:424
800025c8:	00c12083          	lw	ra,12(sp)
800025cc:	00812403          	lw	s0,8(sp)
800025d0:	01010113          	addi	sp,sp,16
800025d4:	00008067          	ret

800025d8 <GPIO_clear_irq>:
GPIO_clear_irq():
C:\Microsemi\SoftConsole_v5.3.0.30-20180629-171539\extras\workspace.examples\Dhrystone/drivers/CoreGPIO/core_gpio.c:435
800025d8:	ff010113          	addi	sp,sp,-16
800025dc:	00112623          	sw	ra,12(sp)
800025e0:	00812423          	sw	s0,8(sp)
800025e4:	00912223          	sw	s1,4(sp)
800025e8:	00050413          	mv	s0,a0
C:\Microsemi\SoftConsole_v5.3.0.30-20180629-171539\extras\workspace.examples\Dhrystone/drivers/CoreGPIO/core_gpio.c:436
800025ec:	00100713          	li	a4,1
800025f0:	00b714b3          	sll	s1,a4,a1
C:\Microsemi\SoftConsole_v5.3.0.30-20180629-171539\extras\workspace.examples\Dhrystone/drivers/CoreGPIO/core_gpio.c:438
800025f4:	00452783          	lw	a5,4(a0)
800025f8:	02e78a63          	beq	a5,a4,8000262c <GPIO_clear_irq+0x54>
800025fc:	04078a63          	beqz	a5,80002650 <GPIO_clear_irq+0x78>
80002600:	00200713          	li	a4,2
80002604:	00e79a63          	bne	a5,a4,80002618 <GPIO_clear_irq+0x40>
C:\Microsemi\SoftConsole_v5.3.0.30-20180629-171539\extras\workspace.examples\Dhrystone/drivers/CoreGPIO/core_gpio.c:441
80002608:	00052503          	lw	a0,0(a0)
8000260c:	00048593          	mv	a1,s1
80002610:	08050513          	addi	a0,a0,128
80002614:	8b9ff0ef          	jal	ra,80001ecc <HW_set_32bit_reg>
C:\Microsemi\SoftConsole_v5.3.0.30-20180629-171539\extras\workspace.examples\Dhrystone/drivers/CoreGPIO/core_gpio.c:460
80002618:	00c12083          	lw	ra,12(sp)
8000261c:	00812403          	lw	s0,8(sp)
80002620:	00412483          	lw	s1,4(sp)
80002624:	01010113          	addi	sp,sp,16
80002628:	00008067          	ret
C:\Microsemi\SoftConsole_v5.3.0.30-20180629-171539\extras\workspace.examples\Dhrystone/drivers/CoreGPIO/core_gpio.c:445
8000262c:	00052503          	lw	a0,0(a0)
80002630:	00048593          	mv	a1,s1
80002634:	08050513          	addi	a0,a0,128
80002638:	8d1ff0ef          	jal	ra,80001f08 <HW_set_16bit_reg>
C:\Microsemi\SoftConsole_v5.3.0.30-20180629-171539\extras\workspace.examples\Dhrystone/drivers/CoreGPIO/core_gpio.c:446
8000263c:	00042503          	lw	a0,0(s0)
80002640:	0104d593          	srli	a1,s1,0x10
80002644:	08450513          	addi	a0,a0,132
80002648:	8c1ff0ef          	jal	ra,80001f08 <HW_set_16bit_reg>
C:\Microsemi\SoftConsole_v5.3.0.30-20180629-171539\extras\workspace.examples\Dhrystone/drivers/CoreGPIO/core_gpio.c:447
8000264c:	fcdff06f          	j	80002618 <GPIO_clear_irq+0x40>
C:\Microsemi\SoftConsole_v5.3.0.30-20180629-171539\extras\workspace.examples\Dhrystone/drivers/CoreGPIO/core_gpio.c:450
80002650:	00052503          	lw	a0,0(a0)
80002654:	00048593          	mv	a1,s1
80002658:	08050513          	addi	a0,a0,128
8000265c:	905ff0ef          	jal	ra,80001f60 <HW_set_8bit_reg>
C:\Microsemi\SoftConsole_v5.3.0.30-20180629-171539\extras\workspace.examples\Dhrystone/drivers/CoreGPIO/core_gpio.c:451
80002660:	00042503          	lw	a0,0(s0)
80002664:	0084d593          	srli	a1,s1,0x8
80002668:	08450513          	addi	a0,a0,132
8000266c:	8f5ff0ef          	jal	ra,80001f60 <HW_set_8bit_reg>
C:\Microsemi\SoftConsole_v5.3.0.30-20180629-171539\extras\workspace.examples\Dhrystone/drivers/CoreGPIO/core_gpio.c:452
80002670:	00042503          	lw	a0,0(s0)
80002674:	0104d593          	srli	a1,s1,0x10
80002678:	08850513          	addi	a0,a0,136
8000267c:	8e5ff0ef          	jal	ra,80001f60 <HW_set_8bit_reg>
C:\Microsemi\SoftConsole_v5.3.0.30-20180629-171539\extras\workspace.examples\Dhrystone/drivers/CoreGPIO/core_gpio.c:453
80002680:	00042503          	lw	a0,0(s0)
80002684:	0184d593          	srli	a1,s1,0x18
80002688:	08c50513          	addi	a0,a0,140
8000268c:	8d5ff0ef          	jal	ra,80001f60 <HW_set_8bit_reg>
C:\Microsemi\SoftConsole_v5.3.0.30-20180629-171539\extras\workspace.examples\Dhrystone/drivers/CoreGPIO/core_gpio.c:460
80002690:	f89ff06f          	j	80002618 <GPIO_clear_irq+0x40>

80002694 <GPIO_get_irq_sources>:
GPIO_get_irq_sources():
C:\Microsemi\SoftConsole_v5.3.0.30-20180629-171539\extras\workspace.examples\Dhrystone/drivers/CoreGPIO/core_gpio.c:470
80002694:	ff010113          	addi	sp,sp,-16
80002698:	00112623          	sw	ra,12(sp)
8000269c:	00812423          	sw	s0,8(sp)
800026a0:	00912223          	sw	s1,4(sp)
800026a4:	00050413          	mv	s0,a0
C:\Microsemi\SoftConsole_v5.3.0.30-20180629-171539\extras\workspace.examples\Dhrystone/drivers/CoreGPIO/core_gpio.c:473
800026a8:	00452783          	lw	a5,4(a0)
800026ac:	00100713          	li	a4,1
800026b0:	02e78863          	beq	a5,a4,800026e0 <GPIO_get_irq_sources+0x4c>
800026b4:	04078a63          	beqz	a5,80002708 <GPIO_get_irq_sources+0x74>
800026b8:	00200713          	li	a4,2
800026bc:	08e79e63          	bne	a5,a4,80002758 <GPIO_get_irq_sources+0xc4>
C:\Microsemi\SoftConsole_v5.3.0.30-20180629-171539\extras\workspace.examples\Dhrystone/drivers/CoreGPIO/core_gpio.c:476
800026c0:	00052503          	lw	a0,0(a0)
800026c4:	08050513          	addi	a0,a0,128
800026c8:	80dff0ef          	jal	ra,80001ed4 <HW_get_32bit_reg>
C:\Microsemi\SoftConsole_v5.3.0.30-20180629-171539\extras\workspace.examples\Dhrystone/drivers/CoreGPIO/core_gpio.c:497
800026cc:	00c12083          	lw	ra,12(sp)
800026d0:	00812403          	lw	s0,8(sp)
800026d4:	00412483          	lw	s1,4(sp)
800026d8:	01010113          	addi	sp,sp,16
800026dc:	00008067          	ret
C:\Microsemi\SoftConsole_v5.3.0.30-20180629-171539\extras\workspace.examples\Dhrystone/drivers/CoreGPIO/core_gpio.c:480
800026e0:	00052503          	lw	a0,0(a0)
800026e4:	08050513          	addi	a0,a0,128
800026e8:	831ff0ef          	jal	ra,80001f18 <HW_get_16bit_reg>
800026ec:	00050493          	mv	s1,a0
C:\Microsemi\SoftConsole_v5.3.0.30-20180629-171539\extras\workspace.examples\Dhrystone/drivers/CoreGPIO/core_gpio.c:481
800026f0:	00042503          	lw	a0,0(s0)
800026f4:	08450513          	addi	a0,a0,132
800026f8:	821ff0ef          	jal	ra,80001f18 <HW_get_16bit_reg>
800026fc:	01051513          	slli	a0,a0,0x10
80002700:	00a4e533          	or	a0,s1,a0
C:\Microsemi\SoftConsole_v5.3.0.30-20180629-171539\extras\workspace.examples\Dhrystone/drivers/CoreGPIO/core_gpio.c:482
80002704:	fc9ff06f          	j	800026cc <GPIO_get_irq_sources+0x38>
C:\Microsemi\SoftConsole_v5.3.0.30-20180629-171539\extras\workspace.examples\Dhrystone/drivers/CoreGPIO/core_gpio.c:485
80002708:	00052503          	lw	a0,0(a0)
8000270c:	08050513          	addi	a0,a0,128
80002710:	809ff0ef          	jal	ra,80001f18 <HW_get_16bit_reg>
80002714:	00050493          	mv	s1,a0
C:\Microsemi\SoftConsole_v5.3.0.30-20180629-171539\extras\workspace.examples\Dhrystone/drivers/CoreGPIO/core_gpio.c:486
80002718:	00042503          	lw	a0,0(s0)
8000271c:	08450513          	addi	a0,a0,132
80002720:	ff8ff0ef          	jal	ra,80001f18 <HW_get_16bit_reg>
80002724:	00851513          	slli	a0,a0,0x8
80002728:	00a4e4b3          	or	s1,s1,a0
C:\Microsemi\SoftConsole_v5.3.0.30-20180629-171539\extras\workspace.examples\Dhrystone/drivers/CoreGPIO/core_gpio.c:487
8000272c:	00042503          	lw	a0,0(s0)
80002730:	08850513          	addi	a0,a0,136
80002734:	fe4ff0ef          	jal	ra,80001f18 <HW_get_16bit_reg>
80002738:	01051513          	slli	a0,a0,0x10
8000273c:	009564b3          	or	s1,a0,s1
C:\Microsemi\SoftConsole_v5.3.0.30-20180629-171539\extras\workspace.examples\Dhrystone/drivers/CoreGPIO/core_gpio.c:488
80002740:	00042503          	lw	a0,0(s0)
80002744:	08c50513          	addi	a0,a0,140
80002748:	fd0ff0ef          	jal	ra,80001f18 <HW_get_16bit_reg>
8000274c:	01851513          	slli	a0,a0,0x18
80002750:	00956533          	or	a0,a0,s1
C:\Microsemi\SoftConsole_v5.3.0.30-20180629-171539\extras\workspace.examples\Dhrystone/drivers/CoreGPIO/core_gpio.c:489
80002754:	f79ff06f          	j	800026cc <GPIO_get_irq_sources+0x38>
C:\Microsemi\SoftConsole_v5.3.0.30-20180629-171539\extras\workspace.examples\Dhrystone/drivers/CoreGPIO/core_gpio.c:471
80002758:	00000513          	li	a0,0
C:\Microsemi\SoftConsole_v5.3.0.30-20180629-171539\extras\workspace.examples\Dhrystone/drivers/CoreGPIO/core_gpio.c:496
8000275c:	f71ff06f          	j	800026cc <GPIO_get_irq_sources+0x38>

80002760 <GPIO_clear_all_irq_sources>:
GPIO_clear_all_irq_sources():
C:\Microsemi\SoftConsole_v5.3.0.30-20180629-171539\extras\workspace.examples\Dhrystone/drivers/CoreGPIO/core_gpio.c:508
80002760:	ff010113          	addi	sp,sp,-16
80002764:	00112623          	sw	ra,12(sp)
80002768:	00812423          	sw	s0,8(sp)
8000276c:	00912223          	sw	s1,4(sp)
80002770:	00050413          	mv	s0,a0
80002774:	00058493          	mv	s1,a1
C:\Microsemi\SoftConsole_v5.3.0.30-20180629-171539\extras\workspace.examples\Dhrystone/drivers/CoreGPIO/core_gpio.c:511
80002778:	00452783          	lw	a5,4(a0)
8000277c:	00100713          	li	a4,1
80002780:	02e78863          	beq	a5,a4,800027b0 <GPIO_clear_all_irq_sources+0x50>
80002784:	04078663          	beqz	a5,800027d0 <GPIO_clear_all_irq_sources+0x70>
80002788:	00200713          	li	a4,2
8000278c:	00e79863          	bne	a5,a4,8000279c <GPIO_clear_all_irq_sources+0x3c>
C:\Microsemi\SoftConsole_v5.3.0.30-20180629-171539\extras\workspace.examples\Dhrystone/drivers/CoreGPIO/core_gpio.c:514
80002790:	00052503          	lw	a0,0(a0)
80002794:	08050513          	addi	a0,a0,128
80002798:	f34ff0ef          	jal	ra,80001ecc <HW_set_32bit_reg>
C:\Microsemi\SoftConsole_v5.3.0.30-20180629-171539\extras\workspace.examples\Dhrystone/drivers/CoreGPIO/core_gpio.c:533
8000279c:	00c12083          	lw	ra,12(sp)
800027a0:	00812403          	lw	s0,8(sp)
800027a4:	00412483          	lw	s1,4(sp)
800027a8:	01010113          	addi	sp,sp,16
800027ac:	00008067          	ret
C:\Microsemi\SoftConsole_v5.3.0.30-20180629-171539\extras\workspace.examples\Dhrystone/drivers/CoreGPIO/core_gpio.c:518
800027b0:	00052503          	lw	a0,0(a0)
800027b4:	08050513          	addi	a0,a0,128
800027b8:	f50ff0ef          	jal	ra,80001f08 <HW_set_16bit_reg>
C:\Microsemi\SoftConsole_v5.3.0.30-20180629-171539\extras\workspace.examples\Dhrystone/drivers/CoreGPIO/core_gpio.c:519
800027bc:	00042503          	lw	a0,0(s0)
800027c0:	0104d593          	srli	a1,s1,0x10
800027c4:	08450513          	addi	a0,a0,132
800027c8:	f40ff0ef          	jal	ra,80001f08 <HW_set_16bit_reg>
C:\Microsemi\SoftConsole_v5.3.0.30-20180629-171539\extras\workspace.examples\Dhrystone/drivers/CoreGPIO/core_gpio.c:520
800027cc:	fd1ff06f          	j	8000279c <GPIO_clear_all_irq_sources+0x3c>
C:\Microsemi\SoftConsole_v5.3.0.30-20180629-171539\extras\workspace.examples\Dhrystone/drivers/CoreGPIO/core_gpio.c:523
800027d0:	00052503          	lw	a0,0(a0)
800027d4:	08050513          	addi	a0,a0,128
800027d8:	f88ff0ef          	jal	ra,80001f60 <HW_set_8bit_reg>
C:\Microsemi\SoftConsole_v5.3.0.30-20180629-171539\extras\workspace.examples\Dhrystone/drivers/CoreGPIO/core_gpio.c:524
800027dc:	00042503          	lw	a0,0(s0)
800027e0:	0084d593          	srli	a1,s1,0x8
800027e4:	08450513          	addi	a0,a0,132
800027e8:	f78ff0ef          	jal	ra,80001f60 <HW_set_8bit_reg>
C:\Microsemi\SoftConsole_v5.3.0.30-20180629-171539\extras\workspace.examples\Dhrystone/drivers/CoreGPIO/core_gpio.c:525
800027ec:	00042503          	lw	a0,0(s0)
800027f0:	0104d593          	srli	a1,s1,0x10
800027f4:	08850513          	addi	a0,a0,136
800027f8:	f68ff0ef          	jal	ra,80001f60 <HW_set_8bit_reg>
C:\Microsemi\SoftConsole_v5.3.0.30-20180629-171539\extras\workspace.examples\Dhrystone/drivers/CoreGPIO/core_gpio.c:526
800027fc:	00042503          	lw	a0,0(s0)
80002800:	0184d593          	srli	a1,s1,0x18
80002804:	08c50513          	addi	a0,a0,140
80002808:	f58ff0ef          	jal	ra,80001f60 <HW_set_8bit_reg>
C:\Microsemi\SoftConsole_v5.3.0.30-20180629-171539\extras\workspace.examples\Dhrystone/drivers/CoreGPIO/core_gpio.c:533
8000280c:	f91ff06f          	j	8000279c <GPIO_clear_all_irq_sources+0x3c>

80002810 <UART_init>:
UART_init():
C:\Microsemi\SoftConsole_v5.3.0.30-20180629-171539\extras\workspace.examples\Dhrystone/drivers/CoreUARTapb/core_uart_apb.c:52
80002810:	00050a63          	beqz	a0,80002824 <UART_init+0x14>
C:\Microsemi\SoftConsole_v5.3.0.30-20180629-171539\extras\workspace.examples\Dhrystone/drivers/CoreUARTapb/core_uart_apb.c:52 (discriminator 1)
80002814:	00700793          	li	a5,7
80002818:	00d7e663          	bltu	a5,a3,80002824 <UART_init+0x14>
C:\Microsemi\SoftConsole_v5.3.0.30-20180629-171539\extras\workspace.examples\Dhrystone/drivers/CoreUARTapb/core_uart_apb.c:53
8000281c:	000027b7          	lui	a5,0x2
80002820:	00f66463          	bltu	a2,a5,80002828 <UART_init+0x18>
80002824:	00008067          	ret
C:\Microsemi\SoftConsole_v5.3.0.30-20180629-171539\extras\workspace.examples\Dhrystone/drivers/CoreUARTapb/core_uart_apb.c:45
80002828:	fe010113          	addi	sp,sp,-32
8000282c:	00112e23          	sw	ra,28(sp)
80002830:	00812c23          	sw	s0,24(sp)
80002834:	00912a23          	sw	s1,20(sp)
80002838:	01212823          	sw	s2,16(sp)
8000283c:	01312623          	sw	s3,12(sp)
80002840:	00068913          	mv	s2,a3
80002844:	00060493          	mv	s1,a2
80002848:	00058993          	mv	s3,a1
8000284c:	00050413          	mv	s0,a0
C:\Microsemi\SoftConsole_v5.3.0.30-20180629-171539\extras\workspace.examples\Dhrystone/drivers/CoreUARTapb/core_uart_apb.c:59
80002850:	0ff67593          	andi	a1,a2,255
80002854:	00898513          	addi	a0,s3,8
80002858:	f08ff0ef          	jal	ra,80001f60 <HW_set_8bit_reg>
C:\Microsemi\SoftConsole_v5.3.0.30-20180629-171539\extras\workspace.examples\Dhrystone/drivers/CoreUARTapb/core_uart_apb.c:66
8000285c:	4054d613          	srai	a2,s1,0x5
80002860:	7f867613          	andi	a2,a2,2040
80002864:	00c965b3          	or	a1,s2,a2
80002868:	00c98513          	addi	a0,s3,12
8000286c:	ef4ff0ef          	jal	ra,80001f60 <HW_set_8bit_reg>
C:\Microsemi\SoftConsole_v5.3.0.30-20180629-171539\extras\workspace.examples\Dhrystone/drivers/CoreUARTapb/core_uart_apb.c:70
80002870:	01342023          	sw	s3,0(s0)
C:\Microsemi\SoftConsole_v5.3.0.30-20180629-171539\extras\workspace.examples\Dhrystone/drivers/CoreUARTapb/core_uart_apb.c:93
80002874:	01098513          	addi	a0,s3,16
80002878:	ef4ff0ef          	jal	ra,80001f6c <HW_get_8bit_reg>
8000287c:	00257513          	andi	a0,a0,2
C:\Microsemi\SoftConsole_v5.3.0.30-20180629-171539\extras\workspace.examples\Dhrystone/drivers/CoreUARTapb/core_uart_apb.c:95
80002880:	0200006f          	j	800028a0 <UART_init+0x90>
C:\Microsemi\SoftConsole_v5.3.0.30-20180629-171539\extras\workspace.examples\Dhrystone/drivers/CoreUARTapb/core_uart_apb.c:97
80002884:	00042503          	lw	a0,0(s0)
80002888:	00450513          	addi	a0,a0,4
8000288c:	ee0ff0ef          	jal	ra,80001f6c <HW_get_8bit_reg>
C:\Microsemi\SoftConsole_v5.3.0.30-20180629-171539\extras\workspace.examples\Dhrystone/drivers/CoreUARTapb/core_uart_apb.c:98
80002890:	00042503          	lw	a0,0(s0)
80002894:	01050513          	addi	a0,a0,16
80002898:	ed4ff0ef          	jal	ra,80001f6c <HW_get_8bit_reg>
8000289c:	00257513          	andi	a0,a0,2
C:\Microsemi\SoftConsole_v5.3.0.30-20180629-171539\extras\workspace.examples\Dhrystone/drivers/CoreUARTapb/core_uart_apb.c:95
800028a0:	fe0512e3          	bnez	a0,80002884 <UART_init+0x74>
C:\Microsemi\SoftConsole_v5.3.0.30-20180629-171539\extras\workspace.examples\Dhrystone/drivers/CoreUARTapb/core_uart_apb.c:105
800028a4:	00040223          	sb	zero,4(s0)
C:\Microsemi\SoftConsole_v5.3.0.30-20180629-171539\extras\workspace.examples\Dhrystone/drivers/CoreUARTapb/core_uart_apb.c:107
800028a8:	01c12083          	lw	ra,28(sp)
800028ac:	01812403          	lw	s0,24(sp)
800028b0:	01412483          	lw	s1,20(sp)
800028b4:	01012903          	lw	s2,16(sp)
800028b8:	00c12983          	lw	s3,12(sp)
800028bc:	02010113          	addi	sp,sp,32
800028c0:	00008067          	ret

800028c4 <UART_send>:
UART_send():
C:\Microsemi\SoftConsole_v5.3.0.30-20180629-171539\extras\workspace.examples\Dhrystone/drivers/CoreUARTapb/core_uart_apb.c:128
800028c4:	08050263          	beqz	a0,80002948 <UART_send+0x84>
C:\Microsemi\SoftConsole_v5.3.0.30-20180629-171539\extras\workspace.examples\Dhrystone/drivers/CoreUARTapb/core_uart_apb.c:128 (discriminator 1)
800028c8:	08058063          	beqz	a1,80002948 <UART_send+0x84>
C:\Microsemi\SoftConsole_v5.3.0.30-20180629-171539\extras\workspace.examples\Dhrystone/drivers/CoreUARTapb/core_uart_apb.c:129
800028cc:	02060863          	beqz	a2,800028fc <UART_send+0x38>
C:\Microsemi\SoftConsole_v5.3.0.30-20180629-171539\extras\workspace.examples\Dhrystone/drivers/CoreUARTapb/core_uart_apb.c:120
800028d0:	fe010113          	addi	sp,sp,-32
800028d4:	00112e23          	sw	ra,28(sp)
800028d8:	00812c23          	sw	s0,24(sp)
800028dc:	00912a23          	sw	s1,20(sp)
800028e0:	01212823          	sw	s2,16(sp)
800028e4:	01312623          	sw	s3,12(sp)
800028e8:	00060913          	mv	s2,a2
800028ec:	00058993          	mv	s3,a1
800028f0:	00050413          	mv	s0,a0
C:\Microsemi\SoftConsole_v5.3.0.30-20180629-171539\extras\workspace.examples\Dhrystone/drivers/CoreUARTapb/core_uart_apb.c:132
800028f4:	00000493          	li	s1,0
800028f8:	0300006f          	j	80002928 <UART_send+0x64>
800028fc:	00008067          	ret
C:\Microsemi\SoftConsole_v5.3.0.30-20180629-171539\extras\workspace.examples\Dhrystone/drivers/CoreUARTapb/core_uart_apb.c:136 (discriminator 1)
80002900:	00042503          	lw	a0,0(s0)
80002904:	01050513          	addi	a0,a0,16
80002908:	e64ff0ef          	jal	ra,80001f6c <HW_get_8bit_reg>
8000290c:	00157513          	andi	a0,a0,1
C:\Microsemi\SoftConsole_v5.3.0.30-20180629-171539\extras\workspace.examples\Dhrystone/drivers/CoreUARTapb/core_uart_apb.c:138 (discriminator 1)
80002910:	fe0508e3          	beqz	a0,80002900 <UART_send+0x3c>
C:\Microsemi\SoftConsole_v5.3.0.30-20180629-171539\extras\workspace.examples\Dhrystone/drivers/CoreUARTapb/core_uart_apb.c:140 (discriminator 2)
80002914:	009987b3          	add	a5,s3,s1
80002918:	0007c583          	lbu	a1,0(a5) # 2000 <HEAP_SIZE+0x1800>
8000291c:	00042503          	lw	a0,0(s0)
80002920:	e40ff0ef          	jal	ra,80001f60 <HW_set_8bit_reg>
C:\Microsemi\SoftConsole_v5.3.0.30-20180629-171539\extras\workspace.examples\Dhrystone/drivers/CoreUARTapb/core_uart_apb.c:132 (discriminator 2)
80002924:	00148493          	addi	s1,s1,1
C:\Microsemi\SoftConsole_v5.3.0.30-20180629-171539\extras\workspace.examples\Dhrystone/drivers/CoreUARTapb/core_uart_apb.c:132 (discriminator 1)
80002928:	fd24ece3          	bltu	s1,s2,80002900 <UART_send+0x3c>
C:\Microsemi\SoftConsole_v5.3.0.30-20180629-171539\extras\workspace.examples\Dhrystone/drivers/CoreUARTapb/core_uart_apb.c:144
8000292c:	01c12083          	lw	ra,28(sp)
80002930:	01812403          	lw	s0,24(sp)
80002934:	01412483          	lw	s1,20(sp)
80002938:	01012903          	lw	s2,16(sp)
8000293c:	00c12983          	lw	s3,12(sp)
80002940:	02010113          	addi	sp,sp,32
80002944:	00008067          	ret
80002948:	00008067          	ret

8000294c <UART_fill_tx_fifo>:
UART_fill_tx_fifo():
C:\Microsemi\SoftConsole_v5.3.0.30-20180629-171539\extras\workspace.examples\Dhrystone/drivers/CoreUARTapb/core_uart_apb.c:157
8000294c:	fe010113          	addi	sp,sp,-32
80002950:	00112e23          	sw	ra,28(sp)
80002954:	00812c23          	sw	s0,24(sp)
80002958:	00912a23          	sw	s1,20(sp)
8000295c:	01212823          	sw	s2,16(sp)
80002960:	01312623          	sw	s3,12(sp)
C:\Microsemi\SoftConsole_v5.3.0.30-20180629-171539\extras\workspace.examples\Dhrystone/drivers/CoreUARTapb/core_uart_apb.c:167
80002964:	08050263          	beqz	a0,800029e8 <UART_fill_tx_fifo+0x9c>
C:\Microsemi\SoftConsole_v5.3.0.30-20180629-171539\extras\workspace.examples\Dhrystone/drivers/CoreUARTapb/core_uart_apb.c:167 (discriminator 1)
80002968:	08058463          	beqz	a1,800029f0 <UART_fill_tx_fifo+0xa4>
C:\Microsemi\SoftConsole_v5.3.0.30-20180629-171539\extras\workspace.examples\Dhrystone/drivers/CoreUARTapb/core_uart_apb.c:168
8000296c:	02061463          	bnez	a2,80002994 <UART_fill_tx_fifo+0x48>
C:\Microsemi\SoftConsole_v5.3.0.30-20180629-171539\extras\workspace.examples\Dhrystone/drivers/CoreUARTapb/core_uart_apb.c:159
80002970:	00000413          	li	s0,0
C:\Microsemi\SoftConsole_v5.3.0.30-20180629-171539\extras\workspace.examples\Dhrystone/drivers/CoreUARTapb/core_uart_apb.c:185
80002974:	00040513          	mv	a0,s0
80002978:	01c12083          	lw	ra,28(sp)
8000297c:	01812403          	lw	s0,24(sp)
80002980:	01412483          	lw	s1,20(sp)
80002984:	01012903          	lw	s2,16(sp)
80002988:	00c12983          	lw	s3,12(sp)
8000298c:	02010113          	addi	sp,sp,32
80002990:	00008067          	ret
80002994:	00060993          	mv	s3,a2
80002998:	00058913          	mv	s2,a1
8000299c:	00050493          	mv	s1,a0
C:\Microsemi\SoftConsole_v5.3.0.30-20180629-171539\extras\workspace.examples\Dhrystone/drivers/CoreUARTapb/core_uart_apb.c:171
800029a0:	00052503          	lw	a0,0(a0)
800029a4:	01050513          	addi	a0,a0,16
800029a8:	dc4ff0ef          	jal	ra,80001f6c <HW_get_8bit_reg>
800029ac:	00157513          	andi	a0,a0,1
C:\Microsemi\SoftConsole_v5.3.0.30-20180629-171539\extras\workspace.examples\Dhrystone/drivers/CoreUARTapb/core_uart_apb.c:173
800029b0:	04050463          	beqz	a0,800029f8 <UART_fill_tx_fifo+0xac>
C:\Microsemi\SoftConsole_v5.3.0.30-20180629-171539\extras\workspace.examples\Dhrystone/drivers/CoreUARTapb/core_uart_apb.c:159
800029b4:	00000413          	li	s0,0
C:\Microsemi\SoftConsole_v5.3.0.30-20180629-171539\extras\workspace.examples\Dhrystone/drivers/CoreUARTapb/core_uart_apb.c:176 (discriminator 2)
800029b8:	008907b3          	add	a5,s2,s0
800029bc:	0007c583          	lbu	a1,0(a5)
800029c0:	0004a503          	lw	a0,0(s1)
800029c4:	d9cff0ef          	jal	ra,80001f60 <HW_set_8bit_reg>
C:\Microsemi\SoftConsole_v5.3.0.30-20180629-171539\extras\workspace.examples\Dhrystone/drivers/CoreUARTapb/core_uart_apb.c:178 (discriminator 2)
800029c8:	00140413          	addi	s0,s0,1
C:\Microsemi\SoftConsole_v5.3.0.30-20180629-171539\extras\workspace.examples\Dhrystone/drivers/CoreUARTapb/core_uart_apb.c:179 (discriminator 2)
800029cc:	0004a503          	lw	a0,0(s1)
800029d0:	01050513          	addi	a0,a0,16
800029d4:	d98ff0ef          	jal	ra,80001f6c <HW_get_8bit_reg>
800029d8:	00157513          	andi	a0,a0,1
C:\Microsemi\SoftConsole_v5.3.0.30-20180629-171539\extras\workspace.examples\Dhrystone/drivers/CoreUARTapb/core_uart_apb.c:181 (discriminator 2)
800029dc:	f8050ce3          	beqz	a0,80002974 <UART_fill_tx_fifo+0x28>
C:\Microsemi\SoftConsole_v5.3.0.30-20180629-171539\extras\workspace.examples\Dhrystone/drivers/CoreUARTapb/core_uart_apb.c:181 (discriminator 1)
800029e0:	fd346ce3          	bltu	s0,s3,800029b8 <UART_fill_tx_fifo+0x6c>
800029e4:	f91ff06f          	j	80002974 <UART_fill_tx_fifo+0x28>
C:\Microsemi\SoftConsole_v5.3.0.30-20180629-171539\extras\workspace.examples\Dhrystone/drivers/CoreUARTapb/core_uart_apb.c:159
800029e8:	00000413          	li	s0,0
800029ec:	f89ff06f          	j	80002974 <UART_fill_tx_fifo+0x28>
800029f0:	00000413          	li	s0,0
800029f4:	f81ff06f          	j	80002974 <UART_fill_tx_fifo+0x28>
800029f8:	00000413          	li	s0,0
C:\Microsemi\SoftConsole_v5.3.0.30-20180629-171539\extras\workspace.examples\Dhrystone/drivers/CoreUARTapb/core_uart_apb.c:184
800029fc:	f79ff06f          	j	80002974 <UART_fill_tx_fifo+0x28>

80002a00 <UART_get_rx>:
UART_get_rx():
C:\Microsemi\SoftConsole_v5.3.0.30-20180629-171539\extras\workspace.examples\Dhrystone/drivers/CoreUARTapb/core_uart_apb.c:198
80002a00:	fe010113          	addi	sp,sp,-32
80002a04:	00112e23          	sw	ra,28(sp)
80002a08:	00812c23          	sw	s0,24(sp)
80002a0c:	00912a23          	sw	s1,20(sp)
80002a10:	01212823          	sw	s2,16(sp)
80002a14:	01312623          	sw	s3,12(sp)
80002a18:	01412423          	sw	s4,8(sp)
C:\Microsemi\SoftConsole_v5.3.0.30-20180629-171539\extras\workspace.examples\Dhrystone/drivers/CoreUARTapb/core_uart_apb.c:207
80002a1c:	0a050263          	beqz	a0,80002ac0 <UART_get_rx+0xc0>
C:\Microsemi\SoftConsole_v5.3.0.30-20180629-171539\extras\workspace.examples\Dhrystone/drivers/CoreUARTapb/core_uart_apb.c:207 (discriminator 1)
80002a20:	0a058463          	beqz	a1,80002ac8 <UART_get_rx+0xc8>
C:\Microsemi\SoftConsole_v5.3.0.30-20180629-171539\extras\workspace.examples\Dhrystone/drivers/CoreUARTapb/core_uart_apb.c:208
80002a24:	02061663          	bnez	a2,80002a50 <UART_get_rx+0x50>
C:\Microsemi\SoftConsole_v5.3.0.30-20180629-171539\extras\workspace.examples\Dhrystone/drivers/CoreUARTapb/core_uart_apb.c:201
80002a28:	00000493          	li	s1,0
C:\Microsemi\SoftConsole_v5.3.0.30-20180629-171539\extras\workspace.examples\Dhrystone/drivers/CoreUARTapb/core_uart_apb.c:226
80002a2c:	00048513          	mv	a0,s1
80002a30:	01c12083          	lw	ra,28(sp)
80002a34:	01812403          	lw	s0,24(sp)
80002a38:	01412483          	lw	s1,20(sp)
80002a3c:	01012903          	lw	s2,16(sp)
80002a40:	00c12983          	lw	s3,12(sp)
80002a44:	00812a03          	lw	s4,8(sp)
80002a48:	02010113          	addi	sp,sp,32
80002a4c:	00008067          	ret
80002a50:	00060993          	mv	s3,a2
80002a54:	00058913          	mv	s2,a1
80002a58:	00050413          	mv	s0,a0
C:\Microsemi\SoftConsole_v5.3.0.30-20180629-171539\extras\workspace.examples\Dhrystone/drivers/CoreUARTapb/core_uart_apb.c:212
80002a5c:	00052503          	lw	a0,0(a0)
80002a60:	01050513          	addi	a0,a0,16
80002a64:	d08ff0ef          	jal	ra,80001f6c <HW_get_8bit_reg>
C:\Microsemi\SoftConsole_v5.3.0.30-20180629-171539\extras\workspace.examples\Dhrystone/drivers/CoreUARTapb/core_uart_apb.c:213
80002a68:	00444783          	lbu	a5,4(s0)
80002a6c:	00f567b3          	or	a5,a0,a5
80002a70:	00f40223          	sb	a5,4(s0)
C:\Microsemi\SoftConsole_v5.3.0.30-20180629-171539\extras\workspace.examples\Dhrystone/drivers/CoreUARTapb/core_uart_apb.c:214
80002a74:	00257513          	andi	a0,a0,2
C:\Microsemi\SoftConsole_v5.3.0.30-20180629-171539\extras\workspace.examples\Dhrystone/drivers/CoreUARTapb/core_uart_apb.c:211
80002a78:	00000493          	li	s1,0
C:\Microsemi\SoftConsole_v5.3.0.30-20180629-171539\extras\workspace.examples\Dhrystone/drivers/CoreUARTapb/core_uart_apb.c:215
80002a7c:	0380006f          	j	80002ab4 <UART_get_rx+0xb4>
C:\Microsemi\SoftConsole_v5.3.0.30-20180629-171539\extras\workspace.examples\Dhrystone/drivers/CoreUARTapb/core_uart_apb.c:217
80002a80:	00042503          	lw	a0,0(s0)
80002a84:	00990a33          	add	s4,s2,s1
80002a88:	00450513          	addi	a0,a0,4
80002a8c:	ce0ff0ef          	jal	ra,80001f6c <HW_get_8bit_reg>
80002a90:	00aa0023          	sb	a0,0(s4)
C:\Microsemi\SoftConsole_v5.3.0.30-20180629-171539\extras\workspace.examples\Dhrystone/drivers/CoreUARTapb/core_uart_apb.c:219
80002a94:	00148493          	addi	s1,s1,1
C:\Microsemi\SoftConsole_v5.3.0.30-20180629-171539\extras\workspace.examples\Dhrystone/drivers/CoreUARTapb/core_uart_apb.c:220
80002a98:	00042503          	lw	a0,0(s0)
80002a9c:	01050513          	addi	a0,a0,16
80002aa0:	cccff0ef          	jal	ra,80001f6c <HW_get_8bit_reg>
C:\Microsemi\SoftConsole_v5.3.0.30-20180629-171539\extras\workspace.examples\Dhrystone/drivers/CoreUARTapb/core_uart_apb.c:221
80002aa4:	00444783          	lbu	a5,4(s0)
80002aa8:	00f567b3          	or	a5,a0,a5
80002aac:	00f40223          	sb	a5,4(s0)
C:\Microsemi\SoftConsole_v5.3.0.30-20180629-171539\extras\workspace.examples\Dhrystone/drivers/CoreUARTapb/core_uart_apb.c:222
80002ab0:	00257513          	andi	a0,a0,2
C:\Microsemi\SoftConsole_v5.3.0.30-20180629-171539\extras\workspace.examples\Dhrystone/drivers/CoreUARTapb/core_uart_apb.c:215
80002ab4:	f6050ce3          	beqz	a0,80002a2c <UART_get_rx+0x2c>
C:\Microsemi\SoftConsole_v5.3.0.30-20180629-171539\extras\workspace.examples\Dhrystone/drivers/CoreUARTapb/core_uart_apb.c:215 (discriminator 1)
80002ab8:	fd34e4e3          	bltu	s1,s3,80002a80 <UART_get_rx+0x80>
80002abc:	f71ff06f          	j	80002a2c <UART_get_rx+0x2c>
C:\Microsemi\SoftConsole_v5.3.0.30-20180629-171539\extras\workspace.examples\Dhrystone/drivers/CoreUARTapb/core_uart_apb.c:201
80002ac0:	00000493          	li	s1,0
80002ac4:	f69ff06f          	j	80002a2c <UART_get_rx+0x2c>
80002ac8:	00000493          	li	s1,0
80002acc:	f61ff06f          	j	80002a2c <UART_get_rx+0x2c>

80002ad0 <UART_polled_tx_string>:
UART_polled_tx_string():
C:\Microsemi\SoftConsole_v5.3.0.30-20180629-171539\extras\workspace.examples\Dhrystone/drivers/CoreUARTapb/core_uart_apb.c:245
80002ad0:	08050063          	beqz	a0,80002b50 <UART_polled_tx_string+0x80>
C:\Microsemi\SoftConsole_v5.3.0.30-20180629-171539\extras\workspace.examples\Dhrystone/drivers/CoreUARTapb/core_uart_apb.c:245 (discriminator 1)
80002ad4:	02058663          	beqz	a1,80002b00 <UART_polled_tx_string+0x30>
C:\Microsemi\SoftConsole_v5.3.0.30-20180629-171539\extras\workspace.examples\Dhrystone/drivers/CoreUARTapb/core_uart_apb.c:238
80002ad8:	fe010113          	addi	sp,sp,-32
80002adc:	00112e23          	sw	ra,28(sp)
80002ae0:	00812c23          	sw	s0,24(sp)
80002ae4:	00912a23          	sw	s1,20(sp)
80002ae8:	01212823          	sw	s2,16(sp)
80002aec:	01312623          	sw	s3,12(sp)
80002af0:	00058993          	mv	s3,a1
80002af4:	00050413          	mv	s0,a0
C:\Microsemi\SoftConsole_v5.3.0.30-20180629-171539\extras\workspace.examples\Dhrystone/drivers/CoreUARTapb/core_uart_apb.c:247
80002af8:	00000493          	li	s1,0
80002afc:	02c0006f          	j	80002b28 <UART_polled_tx_string+0x58>
80002b00:	00008067          	ret
C:\Microsemi\SoftConsole_v5.3.0.30-20180629-171539\extras\workspace.examples\Dhrystone/drivers/CoreUARTapb/core_uart_apb.c:252 (discriminator 1)
80002b04:	00042503          	lw	a0,0(s0)
80002b08:	01050513          	addi	a0,a0,16
80002b0c:	c60ff0ef          	jal	ra,80001f6c <HW_get_8bit_reg>
80002b10:	00157513          	andi	a0,a0,1
C:\Microsemi\SoftConsole_v5.3.0.30-20180629-171539\extras\workspace.examples\Dhrystone/drivers/CoreUARTapb/core_uart_apb.c:254 (discriminator 1)
80002b14:	fe0508e3          	beqz	a0,80002b04 <UART_polled_tx_string+0x34>
C:\Microsemi\SoftConsole_v5.3.0.30-20180629-171539\extras\workspace.examples\Dhrystone/drivers/CoreUARTapb/core_uart_apb.c:256
80002b18:	00094583          	lbu	a1,0(s2)
80002b1c:	00042503          	lw	a0,0(s0)
80002b20:	c40ff0ef          	jal	ra,80001f60 <HW_set_8bit_reg>
C:\Microsemi\SoftConsole_v5.3.0.30-20180629-171539\extras\workspace.examples\Dhrystone/drivers/CoreUARTapb/core_uart_apb.c:258
80002b24:	00148493          	addi	s1,s1,1
C:\Microsemi\SoftConsole_v5.3.0.30-20180629-171539\extras\workspace.examples\Dhrystone/drivers/CoreUARTapb/core_uart_apb.c:248
80002b28:	00998933          	add	s2,s3,s1
80002b2c:	00094783          	lbu	a5,0(s2)
80002b30:	fc079ae3          	bnez	a5,80002b04 <UART_polled_tx_string+0x34>
C:\Microsemi\SoftConsole_v5.3.0.30-20180629-171539\extras\workspace.examples\Dhrystone/drivers/CoreUARTapb/core_uart_apb.c:261
80002b34:	01c12083          	lw	ra,28(sp)
80002b38:	01812403          	lw	s0,24(sp)
80002b3c:	01412483          	lw	s1,20(sp)
80002b40:	01012903          	lw	s2,16(sp)
80002b44:	00c12983          	lw	s3,12(sp)
80002b48:	02010113          	addi	sp,sp,32
80002b4c:	00008067          	ret
80002b50:	00008067          	ret

80002b54 <UART_get_rx_status>:
UART_get_rx_status():
C:\Microsemi\SoftConsole_v5.3.0.30-20180629-171539\extras\workspace.examples\Dhrystone/drivers/CoreUARTapb/core_uart_apb.c:282
80002b54:	00050e63          	beqz	a0,80002b70 <UART_get_rx_status+0x1c>
C:\Microsemi\SoftConsole_v5.3.0.30-20180629-171539\extras\workspace.examples\Dhrystone/drivers/CoreUARTapb/core_uart_apb.c:284
80002b58:	00454783          	lbu	a5,4(a0)
80002b5c:	0027d793          	srli	a5,a5,0x2
80002b60:	0077f793          	andi	a5,a5,7
C:\Microsemi\SoftConsole_v5.3.0.30-20180629-171539\extras\workspace.examples\Dhrystone/drivers/CoreUARTapb/core_uart_apb.c:289
80002b64:	00050223          	sb	zero,4(a0)
C:\Microsemi\SoftConsole_v5.3.0.30-20180629-171539\extras\workspace.examples\Dhrystone/drivers/CoreUARTapb/core_uart_apb.c:292
80002b68:	00078513          	mv	a0,a5
80002b6c:	00008067          	ret
C:\Microsemi\SoftConsole_v5.3.0.30-20180629-171539\extras\workspace.examples\Dhrystone/drivers/CoreUARTapb/core_uart_apb.c:273
80002b70:	0ff00793          	li	a5,255
80002b74:	ff5ff06f          	j	80002b68 <UART_get_rx_status+0x14>

80002b78 <TMR_init>:
TMR_init():
C:\Microsemi\SoftConsole_v5.3.0.30-20180629-171539\extras\workspace.examples\Dhrystone/drivers/CoreTimer/core_timer.c:32
80002b78:	fe010113          	addi	sp,sp,-32
80002b7c:	00112e23          	sw	ra,28(sp)
80002b80:	00812c23          	sw	s0,24(sp)
80002b84:	00912a23          	sw	s1,20(sp)
80002b88:	01212823          	sw	s2,16(sp)
80002b8c:	01312623          	sw	s3,12(sp)
80002b90:	01412423          	sw	s4,8(sp)
80002b94:	00058413          	mv	s0,a1
80002b98:	00060913          	mv	s2,a2
80002b9c:	00068a13          	mv	s4,a3
80002ba0:	00070993          	mv	s3,a4
C:\Microsemi\SoftConsole_v5.3.0.30-20180629-171539\extras\workspace.examples\Dhrystone/drivers/CoreTimer/core_timer.c:37
80002ba4:	00b52023          	sw	a1,0(a0)
C:\Microsemi\SoftConsole_v5.3.0.30-20180629-171539\extras\workspace.examples\Dhrystone/drivers/CoreTimer/core_timer.c:40
80002ba8:	00858493          	addi	s1,a1,8
80002bac:	00000693          	li	a3,0
80002bb0:	00200613          	li	a2,2
80002bb4:	00100593          	li	a1,1
80002bb8:	00048513          	mv	a0,s1
80002bbc:	b20ff0ef          	jal	ra,80001edc <HW_set_32bit_reg_field>
C:\Microsemi\SoftConsole_v5.3.0.30-20180629-171539\extras\workspace.examples\Dhrystone/drivers/CoreTimer/core_timer.c:43
80002bc0:	00000693          	li	a3,0
80002bc4:	00100613          	li	a2,1
80002bc8:	00000593          	li	a1,0
80002bcc:	00048513          	mv	a0,s1
80002bd0:	b0cff0ef          	jal	ra,80001edc <HW_set_32bit_reg_field>
C:\Microsemi\SoftConsole_v5.3.0.30-20180629-171539\extras\workspace.examples\Dhrystone/drivers/CoreTimer/core_timer.c:46
80002bd4:	00100593          	li	a1,1
80002bd8:	01040513          	addi	a0,s0,16
80002bdc:	af0ff0ef          	jal	ra,80001ecc <HW_set_32bit_reg>
C:\Microsemi\SoftConsole_v5.3.0.30-20180629-171539\extras\workspace.examples\Dhrystone/drivers/CoreTimer/core_timer.c:49
80002be0:	000a0593          	mv	a1,s4
80002be4:	00c40513          	addi	a0,s0,12
80002be8:	ae4ff0ef          	jal	ra,80001ecc <HW_set_32bit_reg>
C:\Microsemi\SoftConsole_v5.3.0.30-20180629-171539\extras\workspace.examples\Dhrystone/drivers/CoreTimer/core_timer.c:50
80002bec:	00098593          	mv	a1,s3
80002bf0:	00040513          	mv	a0,s0
80002bf4:	ad8ff0ef          	jal	ra,80001ecc <HW_set_32bit_reg>
C:\Microsemi\SoftConsole_v5.3.0.30-20180629-171539\extras\workspace.examples\Dhrystone/drivers/CoreTimer/core_timer.c:53
80002bf8:	02090c63          	beqz	s2,80002c30 <TMR_init+0xb8>
C:\Microsemi\SoftConsole_v5.3.0.30-20180629-171539\extras\workspace.examples\Dhrystone/drivers/CoreTimer/core_timer.c:60
80002bfc:	00100693          	li	a3,1
80002c00:	00400613          	li	a2,4
80002c04:	00200593          	li	a1,2
80002c08:	00048513          	mv	a0,s1
80002c0c:	ad0ff0ef          	jal	ra,80001edc <HW_set_32bit_reg_field>
C:\Microsemi\SoftConsole_v5.3.0.30-20180629-171539\extras\workspace.examples\Dhrystone/drivers/CoreTimer/core_timer.c:62
80002c10:	01c12083          	lw	ra,28(sp)
80002c14:	01812403          	lw	s0,24(sp)
80002c18:	01412483          	lw	s1,20(sp)
80002c1c:	01012903          	lw	s2,16(sp)
80002c20:	00c12983          	lw	s3,12(sp)
80002c24:	00812a03          	lw	s4,8(sp)
80002c28:	02010113          	addi	sp,sp,32
80002c2c:	00008067          	ret
C:\Microsemi\SoftConsole_v5.3.0.30-20180629-171539\extras\workspace.examples\Dhrystone/drivers/CoreTimer/core_timer.c:55
80002c30:	00000693          	li	a3,0
80002c34:	00400613          	li	a2,4
80002c38:	00200593          	li	a1,2
80002c3c:	00048513          	mv	a0,s1
80002c40:	a9cff0ef          	jal	ra,80001edc <HW_set_32bit_reg_field>
80002c44:	fcdff06f          	j	80002c10 <TMR_init+0x98>

80002c48 <TMR_start>:
TMR_start():
C:\Microsemi\SoftConsole_v5.3.0.30-20180629-171539\extras\workspace.examples\Dhrystone/drivers/CoreTimer/core_timer.c:73
80002c48:	ff010113          	addi	sp,sp,-16
80002c4c:	00112623          	sw	ra,12(sp)
C:\Microsemi\SoftConsole_v5.3.0.30-20180629-171539\extras\workspace.examples\Dhrystone/drivers/CoreTimer/core_timer.c:76
80002c50:	00052503          	lw	a0,0(a0)
80002c54:	00100693          	li	a3,1
80002c58:	00100613          	li	a2,1
80002c5c:	00000593          	li	a1,0
80002c60:	00850513          	addi	a0,a0,8
80002c64:	a78ff0ef          	jal	ra,80001edc <HW_set_32bit_reg_field>
C:\Microsemi\SoftConsole_v5.3.0.30-20180629-171539\extras\workspace.examples\Dhrystone/drivers/CoreTimer/core_timer.c:77
80002c68:	00c12083          	lw	ra,12(sp)
80002c6c:	01010113          	addi	sp,sp,16
80002c70:	00008067          	ret

80002c74 <TMR_stop>:
TMR_stop():
C:\Microsemi\SoftConsole_v5.3.0.30-20180629-171539\extras\workspace.examples\Dhrystone/drivers/CoreTimer/core_timer.c:88
80002c74:	ff010113          	addi	sp,sp,-16
80002c78:	00112623          	sw	ra,12(sp)
C:\Microsemi\SoftConsole_v5.3.0.30-20180629-171539\extras\workspace.examples\Dhrystone/drivers/CoreTimer/core_timer.c:91
80002c7c:	00052503          	lw	a0,0(a0)
80002c80:	00000693          	li	a3,0
80002c84:	00100613          	li	a2,1
80002c88:	00000593          	li	a1,0
80002c8c:	00850513          	addi	a0,a0,8
80002c90:	a4cff0ef          	jal	ra,80001edc <HW_set_32bit_reg_field>
C:\Microsemi\SoftConsole_v5.3.0.30-20180629-171539\extras\workspace.examples\Dhrystone/drivers/CoreTimer/core_timer.c:92
80002c94:	00c12083          	lw	ra,12(sp)
80002c98:	01010113          	addi	sp,sp,16
80002c9c:	00008067          	ret

80002ca0 <TMR_enable_int>:
TMR_enable_int():
C:\Microsemi\SoftConsole_v5.3.0.30-20180629-171539\extras\workspace.examples\Dhrystone/drivers/CoreTimer/core_timer.c:104
80002ca0:	ff010113          	addi	sp,sp,-16
80002ca4:	00112623          	sw	ra,12(sp)
C:\Microsemi\SoftConsole_v5.3.0.30-20180629-171539\extras\workspace.examples\Dhrystone/drivers/CoreTimer/core_timer.c:107
80002ca8:	00052503          	lw	a0,0(a0)
80002cac:	00100693          	li	a3,1
80002cb0:	00200613          	li	a2,2
80002cb4:	00100593          	li	a1,1
80002cb8:	00850513          	addi	a0,a0,8
80002cbc:	a20ff0ef          	jal	ra,80001edc <HW_set_32bit_reg_field>
C:\Microsemi\SoftConsole_v5.3.0.30-20180629-171539\extras\workspace.examples\Dhrystone/drivers/CoreTimer/core_timer.c:108
80002cc0:	00c12083          	lw	ra,12(sp)
80002cc4:	01010113          	addi	sp,sp,16
80002cc8:	00008067          	ret

80002ccc <TMR_clear_int>:
TMR_clear_int():
C:\Microsemi\SoftConsole_v5.3.0.30-20180629-171539\extras\workspace.examples\Dhrystone/drivers/CoreTimer/core_timer.c:119
80002ccc:	ff010113          	addi	sp,sp,-16
80002cd0:	00112623          	sw	ra,12(sp)
C:\Microsemi\SoftConsole_v5.3.0.30-20180629-171539\extras\workspace.examples\Dhrystone/drivers/CoreTimer/core_timer.c:122
80002cd4:	00052503          	lw	a0,0(a0)
80002cd8:	00100593          	li	a1,1
80002cdc:	01050513          	addi	a0,a0,16
80002ce0:	9ecff0ef          	jal	ra,80001ecc <HW_set_32bit_reg>
C:\Microsemi\SoftConsole_v5.3.0.30-20180629-171539\extras\workspace.examples\Dhrystone/drivers/CoreTimer/core_timer.c:123
80002ce4:	00c12083          	lw	ra,12(sp)
80002ce8:	01010113          	addi	sp,sp,16
80002cec:	00008067          	ret

80002cf0 <TMR_current_value>:
TMR_current_value():
C:\Microsemi\SoftConsole_v5.3.0.30-20180629-171539\extras\workspace.examples\Dhrystone/drivers/CoreTimer/core_timer.c:134
80002cf0:	ff010113          	addi	sp,sp,-16
80002cf4:	00112623          	sw	ra,12(sp)
C:\Microsemi\SoftConsole_v5.3.0.30-20180629-171539\extras\workspace.examples\Dhrystone/drivers/CoreTimer/core_timer.c:138
80002cf8:	00052503          	lw	a0,0(a0)
80002cfc:	00450513          	addi	a0,a0,4
80002d00:	9d4ff0ef          	jal	ra,80001ed4 <HW_get_32bit_reg>
C:\Microsemi\SoftConsole_v5.3.0.30-20180629-171539\extras\workspace.examples\Dhrystone/drivers/CoreTimer/core_timer.c:141
80002d04:	00c12083          	lw	ra,12(sp)
80002d08:	01010113          	addi	sp,sp,16
80002d0c:	00008067          	ret

80002d10 <TMR_reload>:
TMR_reload():
C:\Microsemi\SoftConsole_v5.3.0.30-20180629-171539\extras\workspace.examples\Dhrystone/drivers/CoreTimer/core_timer.c:152
80002d10:	ff010113          	addi	sp,sp,-16
80002d14:	00112623          	sw	ra,12(sp)
C:\Microsemi\SoftConsole_v5.3.0.30-20180629-171539\extras\workspace.examples\Dhrystone/drivers/CoreTimer/core_timer.c:156
80002d18:	00052503          	lw	a0,0(a0)
80002d1c:	9b0ff0ef          	jal	ra,80001ecc <HW_set_32bit_reg>
C:\Microsemi\SoftConsole_v5.3.0.30-20180629-171539\extras\workspace.examples\Dhrystone/drivers/CoreTimer/core_timer.c:157
80002d20:	00c12083          	lw	ra,12(sp)
80002d24:	01010113          	addi	sp,sp,16
80002d28:	00008067          	ret

80002d2c <_exit>:
_exit():
C:\Microsemi\SoftConsole_v5.3.0.30-20180629-171539\extras\workspace.examples\Dhrystone_RISCV/riscv_hal/syscall.c:55

char *__env[1] = { 0 };
char **environ = __env;

void _exit(int code)
{
80002d2c:	fd010113          	addi	sp,sp,-48
80002d30:	02112623          	sw	ra,44(sp)
80002d34:	02812423          	sw	s0,40(sp)
80002d38:	03010413          	addi	s0,sp,48
80002d3c:	fca42e23          	sw	a0,-36(s0)
C:\Microsemi\SoftConsole_v5.3.0.30-20180629-171539\extras\workspace.examples\Dhrystone_RISCV/riscv_hal/syscall.c:57
#ifdef MSCC_STDIO_THRU_CORE_UART_APB
    const char * message = "\nProgam has exited with code:";
80002d40:	800077b7          	lui	a5,0x80007
80002d44:	b6078793          	addi	a5,a5,-1184 # 80006b60 <__stack_top+0xffffc090>
80002d48:	fef42623          	sw	a5,-20(s0)
C:\Microsemi\SoftConsole_v5.3.0.30-20180629-171539\extras\workspace.examples\Dhrystone_RISCV/riscv_hal/syscall.c:59

    write(STDERR_FILENO, message, strlen(message));
80002d4c:	fec42503          	lw	a0,-20(s0)
80002d50:	26c010ef          	jal	ra,80003fbc <strlen>
80002d54:	00050793          	mv	a5,a0
80002d58:	00078613          	mv	a2,a5
80002d5c:	fec42583          	lw	a1,-20(s0)
80002d60:	00200513          	li	a0,2
80002d64:	334010ef          	jal	ra,80004098 <write>
C:\Microsemi\SoftConsole_v5.3.0.30-20180629-171539\extras\workspace.examples\Dhrystone_RISCV/riscv_hal/syscall.c:60
    write_hex(STDERR_FILENO, code);
80002d68:	fdc42583          	lw	a1,-36(s0)
80002d6c:	00200513          	li	a0,2
80002d70:	5d0000ef          	jal	ra,80003340 <write_hex>
C:\Microsemi\SoftConsole_v5.3.0.30-20180629-171539\extras\workspace.examples\Dhrystone_RISCV/riscv_hal/syscall.c:63 (discriminator 1)
#endif

    while (1);
80002d74:	0000006f          	j	80002d74 <_exit+0x48>

80002d78 <_sbrk>:
_sbrk():
C:\Microsemi\SoftConsole_v5.3.0.30-20180629-171539\extras\workspace.examples\Dhrystone_RISCV/riscv_hal/syscall.c:67
}

void *_sbrk(ptrdiff_t incr)
{
80002d78:	fe010113          	addi	sp,sp,-32
80002d7c:	00812e23          	sw	s0,28(sp)
80002d80:	02010413          	addi	s0,sp,32
80002d84:	fea42623          	sw	a0,-20(s0)
C:\Microsemi\SoftConsole_v5.3.0.30-20180629-171539\extras\workspace.examples\Dhrystone_RISCV/riscv_hal/syscall.c:72
    extern char _end[];
    extern char _heap_end[];
    static char *curbrk = _end;

    if ((curbrk + incr < _end) || (curbrk + incr > _heap_end))
80002d88:	800077b7          	lui	a5,0x80007
80002d8c:	de47a703          	lw	a4,-540(a5) # 80006de4 <__stack_top+0xffffc314>
80002d90:	fec42783          	lw	a5,-20(s0)
80002d94:	00f70733          	add	a4,a4,a5
80002d98:	8000a7b7          	lui	a5,0x8000a
80002d9c:	ad078793          	addi	a5,a5,-1328 # 80009ad0 <__stack_top+0xfffff000>
80002da0:	02f76063          	bltu	a4,a5,80002dc0 <_sbrk+0x48>
C:\Microsemi\SoftConsole_v5.3.0.30-20180629-171539\extras\workspace.examples\Dhrystone_RISCV/riscv_hal/syscall.c:72 (discriminator 1)
80002da4:	800077b7          	lui	a5,0x80007
80002da8:	de47a703          	lw	a4,-540(a5) # 80006de4 <__stack_top+0xffffc314>
80002dac:	fec42783          	lw	a5,-20(s0)
80002db0:	00f70733          	add	a4,a4,a5
80002db4:	8000a7b7          	lui	a5,0x8000a
80002db8:	2d078793          	addi	a5,a5,720 # 8000a2d0 <__stack_top+0xfffff800>
80002dbc:	00e7f663          	bleu	a4,a5,80002dc8 <_sbrk+0x50>
C:\Microsemi\SoftConsole_v5.3.0.30-20180629-171539\extras\workspace.examples\Dhrystone_RISCV/riscv_hal/syscall.c:74
    {
        return ((char *) - 1);
80002dc0:	fff00793          	li	a5,-1
80002dc4:	0300006f          	j	80002df4 <_sbrk+0x7c>
C:\Microsemi\SoftConsole_v5.3.0.30-20180629-171539\extras\workspace.examples\Dhrystone_RISCV/riscv_hal/syscall.c:77
    }

    curbrk += incr;
80002dc8:	800077b7          	lui	a5,0x80007
80002dcc:	de47a703          	lw	a4,-540(a5) # 80006de4 <__stack_top+0xffffc314>
80002dd0:	fec42783          	lw	a5,-20(s0)
80002dd4:	00f70733          	add	a4,a4,a5
80002dd8:	800077b7          	lui	a5,0x80007
80002ddc:	dee7a223          	sw	a4,-540(a5) # 80006de4 <__stack_top+0xffffc314>
C:\Microsemi\SoftConsole_v5.3.0.30-20180629-171539\extras\workspace.examples\Dhrystone_RISCV/riscv_hal/syscall.c:78
    return curbrk - incr;
80002de0:	800077b7          	lui	a5,0x80007
80002de4:	de47a703          	lw	a4,-540(a5) # 80006de4 <__stack_top+0xffffc314>
80002de8:	fec42783          	lw	a5,-20(s0)
80002dec:	40f007b3          	neg	a5,a5
80002df0:	00f707b3          	add	a5,a4,a5
C:\Microsemi\SoftConsole_v5.3.0.30-20180629-171539\extras\workspace.examples\Dhrystone_RISCV/riscv_hal/syscall.c:79
}
80002df4:	00078513          	mv	a0,a5
80002df8:	01c12403          	lw	s0,28(sp)
80002dfc:	02010113          	addi	sp,sp,32
80002e00:	00008067          	ret

80002e04 <_isatty>:
_isatty():
C:\Microsemi\SoftConsole_v5.3.0.30-20180629-171539\extras\workspace.examples\Dhrystone_RISCV/riscv_hal/syscall.c:82

int _isatty(int fd)
{
80002e04:	fe010113          	addi	sp,sp,-32
80002e08:	00812e23          	sw	s0,28(sp)
80002e0c:	02010413          	addi	s0,sp,32
80002e10:	fea42623          	sw	a0,-20(s0)
C:\Microsemi\SoftConsole_v5.3.0.30-20180629-171539\extras\workspace.examples\Dhrystone_RISCV/riscv_hal/syscall.c:83
    if (fd == STDOUT_FILENO || fd == STDERR_FILENO)
80002e14:	fec42703          	lw	a4,-20(s0)
80002e18:	00100793          	li	a5,1
80002e1c:	00f70863          	beq	a4,a5,80002e2c <_isatty+0x28>
C:\Microsemi\SoftConsole_v5.3.0.30-20180629-171539\extras\workspace.examples\Dhrystone_RISCV/riscv_hal/syscall.c:83 (discriminator 1)
80002e20:	fec42703          	lw	a4,-20(s0)
80002e24:	00200793          	li	a5,2
80002e28:	00f71663          	bne	a4,a5,80002e34 <_isatty+0x30>
C:\Microsemi\SoftConsole_v5.3.0.30-20180629-171539\extras\workspace.examples\Dhrystone_RISCV/riscv_hal/syscall.c:85
    {
        return 1;
80002e2c:	00100793          	li	a5,1
80002e30:	0100006f          	j	80002e40 <_isatty+0x3c>
C:\Microsemi\SoftConsole_v5.3.0.30-20180629-171539\extras\workspace.examples\Dhrystone_RISCV/riscv_hal/syscall.c:88
    }

    errno = EBADF;
80002e34:	00900713          	li	a4,9
80002e38:	cee1a623          	sw	a4,-788(gp) # 800072cc <errno>
C:\Microsemi\SoftConsole_v5.3.0.30-20180629-171539\extras\workspace.examples\Dhrystone_RISCV/riscv_hal/syscall.c:89
    return 0;
80002e3c:	00000793          	li	a5,0
C:\Microsemi\SoftConsole_v5.3.0.30-20180629-171539\extras\workspace.examples\Dhrystone_RISCV/riscv_hal/syscall.c:90
}
80002e40:	00078513          	mv	a0,a5
80002e44:	01c12403          	lw	s0,28(sp)
80002e48:	02010113          	addi	sp,sp,32
80002e4c:	00008067          	ret

80002e50 <stub>:
stub():
C:\Microsemi\SoftConsole_v5.3.0.30-20180629-171539\extras\workspace.examples\Dhrystone_RISCV/riscv_hal/syscall.c:93

static int stub(int err)
{
80002e50:	fe010113          	addi	sp,sp,-32
80002e54:	00812e23          	sw	s0,28(sp)
80002e58:	02010413          	addi	s0,sp,32
80002e5c:	fea42623          	sw	a0,-20(s0)
C:\Microsemi\SoftConsole_v5.3.0.30-20180629-171539\extras\workspace.examples\Dhrystone_RISCV/riscv_hal/syscall.c:94
    errno = err;
80002e60:	fec42703          	lw	a4,-20(s0)
80002e64:	cee1a623          	sw	a4,-788(gp) # 800072cc <errno>
C:\Microsemi\SoftConsole_v5.3.0.30-20180629-171539\extras\workspace.examples\Dhrystone_RISCV/riscv_hal/syscall.c:95
    return -1;
80002e68:	fff00793          	li	a5,-1
C:\Microsemi\SoftConsole_v5.3.0.30-20180629-171539\extras\workspace.examples\Dhrystone_RISCV/riscv_hal/syscall.c:96
}
80002e6c:	00078513          	mv	a0,a5
80002e70:	01c12403          	lw	s0,28(sp)
80002e74:	02010113          	addi	sp,sp,32
80002e78:	00008067          	ret

80002e7c <_open>:
_open():
C:\Microsemi\SoftConsole_v5.3.0.30-20180629-171539\extras\workspace.examples\Dhrystone_RISCV/riscv_hal/syscall.c:99

int _open(const char* name, int flags, int mode)
{
80002e7c:	fe010113          	addi	sp,sp,-32
80002e80:	00112e23          	sw	ra,28(sp)
80002e84:	00812c23          	sw	s0,24(sp)
80002e88:	02010413          	addi	s0,sp,32
80002e8c:	fea42623          	sw	a0,-20(s0)
80002e90:	feb42423          	sw	a1,-24(s0)
80002e94:	fec42223          	sw	a2,-28(s0)
C:\Microsemi\SoftConsole_v5.3.0.30-20180629-171539\extras\workspace.examples\Dhrystone_RISCV/riscv_hal/syscall.c:100
    return stub(ENOENT);
80002e98:	00200513          	li	a0,2
80002e9c:	fb5ff0ef          	jal	ra,80002e50 <stub>
80002ea0:	00050793          	mv	a5,a0
C:\Microsemi\SoftConsole_v5.3.0.30-20180629-171539\extras\workspace.examples\Dhrystone_RISCV/riscv_hal/syscall.c:101
}
80002ea4:	00078513          	mv	a0,a5
80002ea8:	01c12083          	lw	ra,28(sp)
80002eac:	01812403          	lw	s0,24(sp)
80002eb0:	02010113          	addi	sp,sp,32
80002eb4:	00008067          	ret

80002eb8 <_openat>:
_openat():
C:\Microsemi\SoftConsole_v5.3.0.30-20180629-171539\extras\workspace.examples\Dhrystone_RISCV/riscv_hal/syscall.c:104

int _openat(int dirfd, const char* name, int flags, int mode)
{
80002eb8:	fe010113          	addi	sp,sp,-32
80002ebc:	00112e23          	sw	ra,28(sp)
80002ec0:	00812c23          	sw	s0,24(sp)
80002ec4:	02010413          	addi	s0,sp,32
80002ec8:	fea42623          	sw	a0,-20(s0)
80002ecc:	feb42423          	sw	a1,-24(s0)
80002ed0:	fec42223          	sw	a2,-28(s0)
80002ed4:	fed42023          	sw	a3,-32(s0)
C:\Microsemi\SoftConsole_v5.3.0.30-20180629-171539\extras\workspace.examples\Dhrystone_RISCV/riscv_hal/syscall.c:105
    return stub(ENOENT);
80002ed8:	00200513          	li	a0,2
80002edc:	f75ff0ef          	jal	ra,80002e50 <stub>
80002ee0:	00050793          	mv	a5,a0
C:\Microsemi\SoftConsole_v5.3.0.30-20180629-171539\extras\workspace.examples\Dhrystone_RISCV/riscv_hal/syscall.c:106
}
80002ee4:	00078513          	mv	a0,a5
80002ee8:	01c12083          	lw	ra,28(sp)
80002eec:	01812403          	lw	s0,24(sp)
80002ef0:	02010113          	addi	sp,sp,32
80002ef4:	00008067          	ret

80002ef8 <_close>:
_close():
C:\Microsemi\SoftConsole_v5.3.0.30-20180629-171539\extras\workspace.examples\Dhrystone_RISCV/riscv_hal/syscall.c:109

int _close(int fd)
{
80002ef8:	fe010113          	addi	sp,sp,-32
80002efc:	00112e23          	sw	ra,28(sp)
80002f00:	00812c23          	sw	s0,24(sp)
80002f04:	02010413          	addi	s0,sp,32
80002f08:	fea42623          	sw	a0,-20(s0)
C:\Microsemi\SoftConsole_v5.3.0.30-20180629-171539\extras\workspace.examples\Dhrystone_RISCV/riscv_hal/syscall.c:110
    return stub(EBADF);
80002f0c:	00900513          	li	a0,9
80002f10:	f41ff0ef          	jal	ra,80002e50 <stub>
80002f14:	00050793          	mv	a5,a0
C:\Microsemi\SoftConsole_v5.3.0.30-20180629-171539\extras\workspace.examples\Dhrystone_RISCV/riscv_hal/syscall.c:111
}
80002f18:	00078513          	mv	a0,a5
80002f1c:	01c12083          	lw	ra,28(sp)
80002f20:	01812403          	lw	s0,24(sp)
80002f24:	02010113          	addi	sp,sp,32
80002f28:	00008067          	ret

80002f2c <_execve>:
_execve():
C:\Microsemi\SoftConsole_v5.3.0.30-20180629-171539\extras\workspace.examples\Dhrystone_RISCV/riscv_hal/syscall.c:114

int _execve(const char* name, char* const argv[], char* const env[])
{
80002f2c:	fe010113          	addi	sp,sp,-32
80002f30:	00112e23          	sw	ra,28(sp)
80002f34:	00812c23          	sw	s0,24(sp)
80002f38:	02010413          	addi	s0,sp,32
80002f3c:	fea42623          	sw	a0,-20(s0)
80002f40:	feb42423          	sw	a1,-24(s0)
80002f44:	fec42223          	sw	a2,-28(s0)
C:\Microsemi\SoftConsole_v5.3.0.30-20180629-171539\extras\workspace.examples\Dhrystone_RISCV/riscv_hal/syscall.c:115
    return stub(ENOMEM);
80002f48:	00c00513          	li	a0,12
80002f4c:	f05ff0ef          	jal	ra,80002e50 <stub>
80002f50:	00050793          	mv	a5,a0
C:\Microsemi\SoftConsole_v5.3.0.30-20180629-171539\extras\workspace.examples\Dhrystone_RISCV/riscv_hal/syscall.c:116
}
80002f54:	00078513          	mv	a0,a5
80002f58:	01c12083          	lw	ra,28(sp)
80002f5c:	01812403          	lw	s0,24(sp)
80002f60:	02010113          	addi	sp,sp,32
80002f64:	00008067          	ret

80002f68 <_fork>:
_fork():
C:\Microsemi\SoftConsole_v5.3.0.30-20180629-171539\extras\workspace.examples\Dhrystone_RISCV/riscv_hal/syscall.c:119

int _fork()
{
80002f68:	ff010113          	addi	sp,sp,-16
80002f6c:	00112623          	sw	ra,12(sp)
80002f70:	00812423          	sw	s0,8(sp)
80002f74:	01010413          	addi	s0,sp,16
C:\Microsemi\SoftConsole_v5.3.0.30-20180629-171539\extras\workspace.examples\Dhrystone_RISCV/riscv_hal/syscall.c:120
    return stub(EAGAIN);
80002f78:	00b00513          	li	a0,11
80002f7c:	ed5ff0ef          	jal	ra,80002e50 <stub>
80002f80:	00050793          	mv	a5,a0
C:\Microsemi\SoftConsole_v5.3.0.30-20180629-171539\extras\workspace.examples\Dhrystone_RISCV/riscv_hal/syscall.c:121
}
80002f84:	00078513          	mv	a0,a5
80002f88:	00c12083          	lw	ra,12(sp)
80002f8c:	00812403          	lw	s0,8(sp)
80002f90:	01010113          	addi	sp,sp,16
80002f94:	00008067          	ret

80002f98 <_fstat>:
_fstat():
C:\Microsemi\SoftConsole_v5.3.0.30-20180629-171539\extras\workspace.examples\Dhrystone_RISCV/riscv_hal/syscall.c:124

int _fstat(int fd, struct stat *st)
{
80002f98:	fe010113          	addi	sp,sp,-32
80002f9c:	00112e23          	sw	ra,28(sp)
80002fa0:	00812c23          	sw	s0,24(sp)
80002fa4:	02010413          	addi	s0,sp,32
80002fa8:	fea42623          	sw	a0,-20(s0)
80002fac:	feb42423          	sw	a1,-24(s0)
C:\Microsemi\SoftConsole_v5.3.0.30-20180629-171539\extras\workspace.examples\Dhrystone_RISCV/riscv_hal/syscall.c:125
    if (isatty(fd))
80002fb0:	fec42503          	lw	a0,-20(s0)
80002fb4:	0cc010ef          	jal	ra,80004080 <isatty>
80002fb8:	00050793          	mv	a5,a0
80002fbc:	00078c63          	beqz	a5,80002fd4 <_fstat+0x3c>
C:\Microsemi\SoftConsole_v5.3.0.30-20180629-171539\extras\workspace.examples\Dhrystone_RISCV/riscv_hal/syscall.c:127
    {
        st->st_mode = S_IFCHR;
80002fc0:	fe842783          	lw	a5,-24(s0)
80002fc4:	00002737          	lui	a4,0x2
80002fc8:	00e7a223          	sw	a4,4(a5)
C:\Microsemi\SoftConsole_v5.3.0.30-20180629-171539\extras\workspace.examples\Dhrystone_RISCV/riscv_hal/syscall.c:128
        return 0;
80002fcc:	00000793          	li	a5,0
80002fd0:	0100006f          	j	80002fe0 <_fstat+0x48>
C:\Microsemi\SoftConsole_v5.3.0.30-20180629-171539\extras\workspace.examples\Dhrystone_RISCV/riscv_hal/syscall.c:131
    }

    return stub(EBADF);
80002fd4:	00900513          	li	a0,9
80002fd8:	e79ff0ef          	jal	ra,80002e50 <stub>
80002fdc:	00050793          	mv	a5,a0
C:\Microsemi\SoftConsole_v5.3.0.30-20180629-171539\extras\workspace.examples\Dhrystone_RISCV/riscv_hal/syscall.c:132
}
80002fe0:	00078513          	mv	a0,a5
80002fe4:	01c12083          	lw	ra,28(sp)
80002fe8:	01812403          	lw	s0,24(sp)
80002fec:	02010113          	addi	sp,sp,32
80002ff0:	00008067          	ret

80002ff4 <_getpid>:
_getpid():
C:\Microsemi\SoftConsole_v5.3.0.30-20180629-171539\extras\workspace.examples\Dhrystone_RISCV/riscv_hal/syscall.c:135

int _getpid()
{
80002ff4:	ff010113          	addi	sp,sp,-16
80002ff8:	00812623          	sw	s0,12(sp)
80002ffc:	01010413          	addi	s0,sp,16
C:\Microsemi\SoftConsole_v5.3.0.30-20180629-171539\extras\workspace.examples\Dhrystone_RISCV/riscv_hal/syscall.c:136
    return 1;
80003000:	00100793          	li	a5,1
C:\Microsemi\SoftConsole_v5.3.0.30-20180629-171539\extras\workspace.examples\Dhrystone_RISCV/riscv_hal/syscall.c:137
}
80003004:	00078513          	mv	a0,a5
80003008:	00c12403          	lw	s0,12(sp)
8000300c:	01010113          	addi	sp,sp,16
80003010:	00008067          	ret

80003014 <_kill>:
_kill():
C:\Microsemi\SoftConsole_v5.3.0.30-20180629-171539\extras\workspace.examples\Dhrystone_RISCV/riscv_hal/syscall.c:140

int _kill(int pid, int sig)
{
80003014:	fe010113          	addi	sp,sp,-32
80003018:	00112e23          	sw	ra,28(sp)
8000301c:	00812c23          	sw	s0,24(sp)
80003020:	02010413          	addi	s0,sp,32
80003024:	fea42623          	sw	a0,-20(s0)
80003028:	feb42423          	sw	a1,-24(s0)
C:\Microsemi\SoftConsole_v5.3.0.30-20180629-171539\extras\workspace.examples\Dhrystone_RISCV/riscv_hal/syscall.c:141
    return stub(EINVAL);
8000302c:	01600513          	li	a0,22
80003030:	e21ff0ef          	jal	ra,80002e50 <stub>
80003034:	00050793          	mv	a5,a0
C:\Microsemi\SoftConsole_v5.3.0.30-20180629-171539\extras\workspace.examples\Dhrystone_RISCV/riscv_hal/syscall.c:142
}
80003038:	00078513          	mv	a0,a5
8000303c:	01c12083          	lw	ra,28(sp)
80003040:	01812403          	lw	s0,24(sp)
80003044:	02010113          	addi	sp,sp,32
80003048:	00008067          	ret

8000304c <_link>:
_link():
C:\Microsemi\SoftConsole_v5.3.0.30-20180629-171539\extras\workspace.examples\Dhrystone_RISCV/riscv_hal/syscall.c:145

int _link(const char *old_name, const char *new_name)
{
8000304c:	fe010113          	addi	sp,sp,-32
80003050:	00112e23          	sw	ra,28(sp)
80003054:	00812c23          	sw	s0,24(sp)
80003058:	02010413          	addi	s0,sp,32
8000305c:	fea42623          	sw	a0,-20(s0)
80003060:	feb42423          	sw	a1,-24(s0)
C:\Microsemi\SoftConsole_v5.3.0.30-20180629-171539\extras\workspace.examples\Dhrystone_RISCV/riscv_hal/syscall.c:146
    return stub(EMLINK);
80003064:	01f00513          	li	a0,31
80003068:	de9ff0ef          	jal	ra,80002e50 <stub>
8000306c:	00050793          	mv	a5,a0
C:\Microsemi\SoftConsole_v5.3.0.30-20180629-171539\extras\workspace.examples\Dhrystone_RISCV/riscv_hal/syscall.c:147
}
80003070:	00078513          	mv	a0,a5
80003074:	01c12083          	lw	ra,28(sp)
80003078:	01812403          	lw	s0,24(sp)
8000307c:	02010113          	addi	sp,sp,32
80003080:	00008067          	ret

80003084 <_lseek>:
_lseek():
C:\Microsemi\SoftConsole_v5.3.0.30-20180629-171539\extras\workspace.examples\Dhrystone_RISCV/riscv_hal/syscall.c:150

off_t _lseek(int fd, off_t ptr, int dir)
{
80003084:	fe010113          	addi	sp,sp,-32
80003088:	00112e23          	sw	ra,28(sp)
8000308c:	00812c23          	sw	s0,24(sp)
80003090:	02010413          	addi	s0,sp,32
80003094:	fea42623          	sw	a0,-20(s0)
80003098:	feb42423          	sw	a1,-24(s0)
8000309c:	fec42223          	sw	a2,-28(s0)
C:\Microsemi\SoftConsole_v5.3.0.30-20180629-171539\extras\workspace.examples\Dhrystone_RISCV/riscv_hal/syscall.c:151
    if (_isatty(fd))
800030a0:	fec42503          	lw	a0,-20(s0)
800030a4:	d61ff0ef          	jal	ra,80002e04 <_isatty>
800030a8:	00050793          	mv	a5,a0
800030ac:	00078663          	beqz	a5,800030b8 <_lseek+0x34>
C:\Microsemi\SoftConsole_v5.3.0.30-20180629-171539\extras\workspace.examples\Dhrystone_RISCV/riscv_hal/syscall.c:153
    {
        return 0;
800030b0:	00000793          	li	a5,0
800030b4:	0100006f          	j	800030c4 <_lseek+0x40>
C:\Microsemi\SoftConsole_v5.3.0.30-20180629-171539\extras\workspace.examples\Dhrystone_RISCV/riscv_hal/syscall.c:156
    }

    return stub(EBADF);
800030b8:	00900513          	li	a0,9
800030bc:	d95ff0ef          	jal	ra,80002e50 <stub>
800030c0:	00050793          	mv	a5,a0
C:\Microsemi\SoftConsole_v5.3.0.30-20180629-171539\extras\workspace.examples\Dhrystone_RISCV/riscv_hal/syscall.c:157
}
800030c4:	00078513          	mv	a0,a5
800030c8:	01c12083          	lw	ra,28(sp)
800030cc:	01812403          	lw	s0,24(sp)
800030d0:	02010113          	addi	sp,sp,32
800030d4:	00008067          	ret

800030d8 <_read>:
_read():
C:\Microsemi\SoftConsole_v5.3.0.30-20180629-171539\extras\workspace.examples\Dhrystone_RISCV/riscv_hal/syscall.c:160

ssize_t _read(int fd, void* ptr, size_t len)
{
800030d8:	fe010113          	addi	sp,sp,-32
800030dc:	00112e23          	sw	ra,28(sp)
800030e0:	00812c23          	sw	s0,24(sp)
800030e4:	02010413          	addi	s0,sp,32
800030e8:	fea42623          	sw	a0,-20(s0)
800030ec:	feb42423          	sw	a1,-24(s0)
800030f0:	fec42223          	sw	a2,-28(s0)
C:\Microsemi\SoftConsole_v5.3.0.30-20180629-171539\extras\workspace.examples\Dhrystone_RISCV/riscv_hal/syscall.c:162
#ifdef MSCC_STDIO_THRU_CORE_UART_APB
    if (_isatty(fd))
800030f4:	fec42503          	lw	a0,-20(s0)
800030f8:	d0dff0ef          	jal	ra,80002e04 <_isatty>
800030fc:	00050793          	mv	a5,a0
80003100:	04078863          	beqz	a5,80003150 <_read+0x78>
C:\Microsemi\SoftConsole_v5.3.0.30-20180629-171539\extras\workspace.examples\Dhrystone_RISCV/riscv_hal/syscall.c:168
    {
        /*--------------------------------------------------------------------------
        * Initialize the UART driver if it is the first time this function is
        * called.
        */
        if ( !g_stdio_uart_init_done )
80003104:	8000a7b7          	lui	a5,0x8000a
80003108:	ac07a783          	lw	a5,-1344(a5) # 80009ac0 <__stack_top+0xffffeff0>
8000310c:	02079463          	bnez	a5,80003134 <_read+0x5c>
C:\Microsemi\SoftConsole_v5.3.0.30-20180629-171539\extras\workspace.examples\Dhrystone_RISCV/riscv_hal/syscall.c:175
            /******************************************************************************
            * Baud value:
            * This value is calculated using the following equation:
            *      BAUD_VALUE = (CLOCK / (16 * BAUD_RATE)) - 1
            *****************************************************************************/
            UART_init( &g_stdio_uart, MSCC_STDIO_UART_BASE_ADDR, ((SYS_CLK_FREQ/(16 * MSCC_STDIO_BAUD_VALUE))-1), (DATA_8_BITS | NO_PARITY));
80003110:	00100693          	li	a3,1
80003114:	02c00613          	li	a2,44
80003118:	700015b7          	lui	a1,0x70001
8000311c:	8000a7b7          	lui	a5,0x8000a
80003120:	ab878513          	addi	a0,a5,-1352 # 80009ab8 <__stack_top+0xffffefe8>
80003124:	eecff0ef          	jal	ra,80002810 <UART_init>
C:\Microsemi\SoftConsole_v5.3.0.30-20180629-171539\extras\workspace.examples\Dhrystone_RISCV/riscv_hal/syscall.c:176
            g_stdio_uart_init_done = 1;
80003128:	8000a7b7          	lui	a5,0x8000a
8000312c:	00100713          	li	a4,1
80003130:	ace7a023          	sw	a4,-1344(a5) # 80009ac0 <__stack_top+0xffffeff0>
C:\Microsemi\SoftConsole_v5.3.0.30-20180629-171539\extras\workspace.examples\Dhrystone_RISCV/riscv_hal/syscall.c:179
        }

        return UART_get_rx(&g_stdio_uart, (uint8_t*) ptr, len);
80003134:	fe442603          	lw	a2,-28(s0)
80003138:	fe842583          	lw	a1,-24(s0)
8000313c:	8000a7b7          	lui	a5,0x8000a
80003140:	ab878513          	addi	a0,a5,-1352 # 80009ab8 <__stack_top+0xffffefe8>
80003144:	8bdff0ef          	jal	ra,80002a00 <UART_get_rx>
80003148:	00050793          	mv	a5,a0
8000314c:	0100006f          	j	8000315c <_read+0x84>
C:\Microsemi\SoftConsole_v5.3.0.30-20180629-171539\extras\workspace.examples\Dhrystone_RISCV/riscv_hal/syscall.c:183
    }
#endif

    return stub(EBADF);
80003150:	00900513          	li	a0,9
80003154:	cfdff0ef          	jal	ra,80002e50 <stub>
80003158:	00050793          	mv	a5,a0
C:\Microsemi\SoftConsole_v5.3.0.30-20180629-171539\extras\workspace.examples\Dhrystone_RISCV/riscv_hal/syscall.c:184
}
8000315c:	00078513          	mv	a0,a5
80003160:	01c12083          	lw	ra,28(sp)
80003164:	01812403          	lw	s0,24(sp)
80003168:	02010113          	addi	sp,sp,32
8000316c:	00008067          	ret

80003170 <_stat>:
_stat():
C:\Microsemi\SoftConsole_v5.3.0.30-20180629-171539\extras\workspace.examples\Dhrystone_RISCV/riscv_hal/syscall.c:187

int _stat(const char* file, struct stat* st)
{
80003170:	fe010113          	addi	sp,sp,-32
80003174:	00112e23          	sw	ra,28(sp)
80003178:	00812c23          	sw	s0,24(sp)
8000317c:	02010413          	addi	s0,sp,32
80003180:	fea42623          	sw	a0,-20(s0)
80003184:	feb42423          	sw	a1,-24(s0)
C:\Microsemi\SoftConsole_v5.3.0.30-20180629-171539\extras\workspace.examples\Dhrystone_RISCV/riscv_hal/syscall.c:188
    return stub(EACCES);
80003188:	00d00513          	li	a0,13
8000318c:	cc5ff0ef          	jal	ra,80002e50 <stub>
80003190:	00050793          	mv	a5,a0
C:\Microsemi\SoftConsole_v5.3.0.30-20180629-171539\extras\workspace.examples\Dhrystone_RISCV/riscv_hal/syscall.c:189
}
80003194:	00078513          	mv	a0,a5
80003198:	01c12083          	lw	ra,28(sp)
8000319c:	01812403          	lw	s0,24(sp)
800031a0:	02010113          	addi	sp,sp,32
800031a4:	00008067          	ret

800031a8 <_times>:
_times():
C:\Microsemi\SoftConsole_v5.3.0.30-20180629-171539\extras\workspace.examples\Dhrystone_RISCV/riscv_hal/syscall.c:192

clock_t _times(struct tms* buf)
{
800031a8:	fe010113          	addi	sp,sp,-32
800031ac:	00112e23          	sw	ra,28(sp)
800031b0:	00812c23          	sw	s0,24(sp)
800031b4:	02010413          	addi	s0,sp,32
800031b8:	fea42623          	sw	a0,-20(s0)
C:\Microsemi\SoftConsole_v5.3.0.30-20180629-171539\extras\workspace.examples\Dhrystone_RISCV/riscv_hal/syscall.c:193
    return stub(EACCES);
800031bc:	00d00513          	li	a0,13
800031c0:	c91ff0ef          	jal	ra,80002e50 <stub>
800031c4:	00050793          	mv	a5,a0
C:\Microsemi\SoftConsole_v5.3.0.30-20180629-171539\extras\workspace.examples\Dhrystone_RISCV/riscv_hal/syscall.c:194
}
800031c8:	00078513          	mv	a0,a5
800031cc:	01c12083          	lw	ra,28(sp)
800031d0:	01812403          	lw	s0,24(sp)
800031d4:	02010113          	addi	sp,sp,32
800031d8:	00008067          	ret

800031dc <_unlink>:
_unlink():
C:\Microsemi\SoftConsole_v5.3.0.30-20180629-171539\extras\workspace.examples\Dhrystone_RISCV/riscv_hal/syscall.c:197

int _unlink(const char* name)
{
800031dc:	fe010113          	addi	sp,sp,-32
800031e0:	00112e23          	sw	ra,28(sp)
800031e4:	00812c23          	sw	s0,24(sp)
800031e8:	02010413          	addi	s0,sp,32
800031ec:	fea42623          	sw	a0,-20(s0)
C:\Microsemi\SoftConsole_v5.3.0.30-20180629-171539\extras\workspace.examples\Dhrystone_RISCV/riscv_hal/syscall.c:198
    return stub(ENOENT);
800031f0:	00200513          	li	a0,2
800031f4:	c5dff0ef          	jal	ra,80002e50 <stub>
800031f8:	00050793          	mv	a5,a0
C:\Microsemi\SoftConsole_v5.3.0.30-20180629-171539\extras\workspace.examples\Dhrystone_RISCV/riscv_hal/syscall.c:199
}
800031fc:	00078513          	mv	a0,a5
80003200:	01c12083          	lw	ra,28(sp)
80003204:	01812403          	lw	s0,24(sp)
80003208:	02010113          	addi	sp,sp,32
8000320c:	00008067          	ret

80003210 <_wait>:
_wait():
C:\Microsemi\SoftConsole_v5.3.0.30-20180629-171539\extras\workspace.examples\Dhrystone_RISCV/riscv_hal/syscall.c:202

int _wait(int* status)
{
80003210:	fe010113          	addi	sp,sp,-32
80003214:	00112e23          	sw	ra,28(sp)
80003218:	00812c23          	sw	s0,24(sp)
8000321c:	02010413          	addi	s0,sp,32
80003220:	fea42623          	sw	a0,-20(s0)
C:\Microsemi\SoftConsole_v5.3.0.30-20180629-171539\extras\workspace.examples\Dhrystone_RISCV/riscv_hal/syscall.c:203
    return stub(ECHILD);
80003224:	00a00513          	li	a0,10
80003228:	c29ff0ef          	jal	ra,80002e50 <stub>
8000322c:	00050793          	mv	a5,a0
C:\Microsemi\SoftConsole_v5.3.0.30-20180629-171539\extras\workspace.examples\Dhrystone_RISCV/riscv_hal/syscall.c:204
}
80003230:	00078513          	mv	a0,a5
80003234:	01c12083          	lw	ra,28(sp)
80003238:	01812403          	lw	s0,24(sp)
8000323c:	02010113          	addi	sp,sp,32
80003240:	00008067          	ret

80003244 <_write>:
_write():
C:\Microsemi\SoftConsole_v5.3.0.30-20180629-171539\extras\workspace.examples\Dhrystone_RISCV/riscv_hal/syscall.c:207

ssize_t _write(int fd, const void* ptr, size_t len)
{
80003244:	fd010113          	addi	sp,sp,-48
80003248:	02112623          	sw	ra,44(sp)
8000324c:	02812423          	sw	s0,40(sp)
80003250:	03010413          	addi	s0,sp,48
80003254:	fca42e23          	sw	a0,-36(s0)
80003258:	fcb42c23          	sw	a1,-40(s0)
8000325c:	fcc42a23          	sw	a2,-44(s0)
C:\Microsemi\SoftConsole_v5.3.0.30-20180629-171539\extras\workspace.examples\Dhrystone_RISCV/riscv_hal/syscall.c:210

#ifdef MSCC_STDIO_THRU_CORE_UART_APB
  const uint8_t * current = (const uint8_t *) ptr;
80003260:	fd842783          	lw	a5,-40(s0)
80003264:	fef42423          	sw	a5,-24(s0)
C:\Microsemi\SoftConsole_v5.3.0.30-20180629-171539\extras\workspace.examples\Dhrystone_RISCV/riscv_hal/syscall.c:213
  size_t jj;

  if (_isatty(fd))
80003268:	fdc42503          	lw	a0,-36(s0)
8000326c:	b99ff0ef          	jal	ra,80002e04 <_isatty>
80003270:	00050793          	mv	a5,a0
80003274:	0a078663          	beqz	a5,80003320 <_write+0xdc>
C:\Microsemi\SoftConsole_v5.3.0.30-20180629-171539\extras\workspace.examples\Dhrystone_RISCV/riscv_hal/syscall.c:219
  {
        /*--------------------------------------------------------------------------
        * Initialize the UART driver if it is the first time this function is
        * called.
        */
        if ( !g_stdio_uart_init_done )
80003278:	8000a7b7          	lui	a5,0x8000a
8000327c:	ac07a783          	lw	a5,-1344(a5) # 80009ac0 <__stack_top+0xffffeff0>
80003280:	02079463          	bnez	a5,800032a8 <_write+0x64>
C:\Microsemi\SoftConsole_v5.3.0.30-20180629-171539\extras\workspace.examples\Dhrystone_RISCV/riscv_hal/syscall.c:226
            /******************************************************************************
            * Baud value:
            * This value is calculated using the following equation:
            *      BAUD_VALUE = (CLOCK / (16 * BAUD_RATE)) - 1
            *****************************************************************************/
            UART_init( &g_stdio_uart, MSCC_STDIO_UART_BASE_ADDR, ((SYS_CLK_FREQ/(16 * MSCC_STDIO_BAUD_VALUE))-1), (DATA_8_BITS | NO_PARITY));
80003284:	00100693          	li	a3,1
80003288:	02c00613          	li	a2,44
8000328c:	700015b7          	lui	a1,0x70001
80003290:	8000a7b7          	lui	a5,0x8000a
80003294:	ab878513          	addi	a0,a5,-1352 # 80009ab8 <__stack_top+0xffffefe8>
80003298:	d78ff0ef          	jal	ra,80002810 <UART_init>
C:\Microsemi\SoftConsole_v5.3.0.30-20180629-171539\extras\workspace.examples\Dhrystone_RISCV/riscv_hal/syscall.c:227
            g_stdio_uart_init_done = 1;
8000329c:	8000a7b7          	lui	a5,0x8000a
800032a0:	00100713          	li	a4,1
800032a4:	ace7a023          	sw	a4,-1344(a5) # 80009ac0 <__stack_top+0xffffeff0>
C:\Microsemi\SoftConsole_v5.3.0.30-20180629-171539\extras\workspace.examples\Dhrystone_RISCV/riscv_hal/syscall.c:230
        }

    for (jj = 0; jj < len; jj++)
800032a8:	fe042623          	sw	zero,-20(s0)
800032ac:	0600006f          	j	8000330c <_write+0xc8>
C:\Microsemi\SoftConsole_v5.3.0.30-20180629-171539\extras\workspace.examples\Dhrystone_RISCV/riscv_hal/syscall.c:232
    {
        UART_send(&g_stdio_uart, current + jj, 1);
800032b0:	fe842703          	lw	a4,-24(s0)
800032b4:	fec42783          	lw	a5,-20(s0)
800032b8:	00f707b3          	add	a5,a4,a5
800032bc:	00100613          	li	a2,1
800032c0:	00078593          	mv	a1,a5
800032c4:	8000a7b7          	lui	a5,0x8000a
800032c8:	ab878513          	addi	a0,a5,-1352 # 80009ab8 <__stack_top+0xffffefe8>
800032cc:	df8ff0ef          	jal	ra,800028c4 <UART_send>
C:\Microsemi\SoftConsole_v5.3.0.30-20180629-171539\extras\workspace.examples\Dhrystone_RISCV/riscv_hal/syscall.c:233
        if (current[jj] == '\n')
800032d0:	fe842703          	lw	a4,-24(s0)
800032d4:	fec42783          	lw	a5,-20(s0)
800032d8:	00f707b3          	add	a5,a4,a5
800032dc:	0007c703          	lbu	a4,0(a5)
800032e0:	00a00793          	li	a5,10
800032e4:	00f71e63          	bne	a4,a5,80003300 <_write+0xbc>
C:\Microsemi\SoftConsole_v5.3.0.30-20180629-171539\extras\workspace.examples\Dhrystone_RISCV/riscv_hal/syscall.c:235
        {
            UART_send(&g_stdio_uart, (const uint8_t *)"\r", 1);
800032e8:	00100613          	li	a2,1
800032ec:	800077b7          	lui	a5,0x80007
800032f0:	b8078593          	addi	a1,a5,-1152 # 80006b80 <__stack_top+0xffffc0b0>
800032f4:	8000a7b7          	lui	a5,0x8000a
800032f8:	ab878513          	addi	a0,a5,-1352 # 80009ab8 <__stack_top+0xffffefe8>
800032fc:	dc8ff0ef          	jal	ra,800028c4 <UART_send>
C:\Microsemi\SoftConsole_v5.3.0.30-20180629-171539\extras\workspace.examples\Dhrystone_RISCV/riscv_hal/syscall.c:230 (discriminator 2)
    for (jj = 0; jj < len; jj++)
80003300:	fec42783          	lw	a5,-20(s0)
80003304:	00178793          	addi	a5,a5,1
80003308:	fef42623          	sw	a5,-20(s0)
C:\Microsemi\SoftConsole_v5.3.0.30-20180629-171539\extras\workspace.examples\Dhrystone_RISCV/riscv_hal/syscall.c:230 (discriminator 1)
8000330c:	fec42703          	lw	a4,-20(s0)
80003310:	fd442783          	lw	a5,-44(s0)
80003314:	f8f76ee3          	bltu	a4,a5,800032b0 <_write+0x6c>
C:\Microsemi\SoftConsole_v5.3.0.30-20180629-171539\extras\workspace.examples\Dhrystone_RISCV/riscv_hal/syscall.c:238
        }
    }
    return len;
80003318:	fd442783          	lw	a5,-44(s0)
8000331c:	0100006f          	j	8000332c <_write+0xe8>
C:\Microsemi\SoftConsole_v5.3.0.30-20180629-171539\extras\workspace.examples\Dhrystone_RISCV/riscv_hal/syscall.c:242
  }
#endif

  return stub(EBADF);
80003320:	00900513          	li	a0,9
80003324:	b2dff0ef          	jal	ra,80002e50 <stub>
80003328:	00050793          	mv	a5,a0
C:\Microsemi\SoftConsole_v5.3.0.30-20180629-171539\extras\workspace.examples\Dhrystone_RISCV/riscv_hal/syscall.c:243
}
8000332c:	00078513          	mv	a0,a5
80003330:	02c12083          	lw	ra,44(sp)
80003334:	02812403          	lw	s0,40(sp)
80003338:	03010113          	addi	sp,sp,48
8000333c:	00008067          	ret

80003340 <write_hex>:
write_hex():
C:\Microsemi\SoftConsole_v5.3.0.30-20180629-171539\extras\workspace.examples\Dhrystone_RISCV/riscv_hal/syscall.c:246

void write_hex(int fd, uint32_t hex)
{
80003340:	fd010113          	addi	sp,sp,-48
80003344:	02112623          	sw	ra,44(sp)
80003348:	02812423          	sw	s0,40(sp)
8000334c:	03010413          	addi	s0,sp,48
80003350:	fca42e23          	sw	a0,-36(s0)
80003354:	fcb42c23          	sw	a1,-40(s0)
C:\Microsemi\SoftConsole_v5.3.0.30-20180629-171539\extras\workspace.examples\Dhrystone_RISCV/riscv_hal/syscall.c:252
    uint8_t ii;
    uint8_t jj;
    char towrite;
    uint8_t digit;

    write( fd , "0x", 2 );
80003358:	00200613          	li	a2,2
8000335c:	800077b7          	lui	a5,0x80007
80003360:	b8478593          	addi	a1,a5,-1148 # 80006b84 <__stack_top+0xffffc0b4>
80003364:	fdc42503          	lw	a0,-36(s0)
80003368:	531000ef          	jal	ra,80004098 <write>
C:\Microsemi\SoftConsole_v5.3.0.30-20180629-171539\extras\workspace.examples\Dhrystone_RISCV/riscv_hal/syscall.c:254

    for (ii = 8 ; ii > 0; ii--)
8000336c:	00800793          	li	a5,8
80003370:	fef407a3          	sb	a5,-17(s0)
80003374:	0880006f          	j	800033fc <write_hex+0xbc>
C:\Microsemi\SoftConsole_v5.3.0.30-20180629-171539\extras\workspace.examples\Dhrystone_RISCV/riscv_hal/syscall.c:256
    {
        jj = ii-1;
80003378:	fef44783          	lbu	a5,-17(s0)
8000337c:	fff78793          	addi	a5,a5,-1
80003380:	fef40723          	sb	a5,-18(s0)
C:\Microsemi\SoftConsole_v5.3.0.30-20180629-171539\extras\workspace.examples\Dhrystone_RISCV/riscv_hal/syscall.c:257
        digit = ((hex & (0xF << (jj*4))) >> (jj*4));
80003384:	fee44783          	lbu	a5,-18(s0)
80003388:	00279793          	slli	a5,a5,0x2
8000338c:	00f00713          	li	a4,15
80003390:	00f717b3          	sll	a5,a4,a5
80003394:	00078713          	mv	a4,a5
80003398:	fd842783          	lw	a5,-40(s0)
8000339c:	00f77733          	and	a4,a4,a5
800033a0:	fee44783          	lbu	a5,-18(s0)
800033a4:	00279793          	slli	a5,a5,0x2
800033a8:	00f757b3          	srl	a5,a4,a5
800033ac:	fef406a3          	sb	a5,-19(s0)
C:\Microsemi\SoftConsole_v5.3.0.30-20180629-171539\extras\workspace.examples\Dhrystone_RISCV/riscv_hal/syscall.c:258
        towrite = digit < 0xA ? ('0' + digit) : ('A' +  (digit - 0xA));
800033b0:	fed44703          	lbu	a4,-19(s0)
800033b4:	00900793          	li	a5,9
800033b8:	00e7ea63          	bltu	a5,a4,800033cc <write_hex+0x8c>
C:\Microsemi\SoftConsole_v5.3.0.30-20180629-171539\extras\workspace.examples\Dhrystone_RISCV/riscv_hal/syscall.c:258 (discriminator 1)
800033bc:	fed44783          	lbu	a5,-19(s0)
800033c0:	03078793          	addi	a5,a5,48
800033c4:	0ff7f793          	andi	a5,a5,255
800033c8:	0100006f          	j	800033d8 <write_hex+0x98>
C:\Microsemi\SoftConsole_v5.3.0.30-20180629-171539\extras\workspace.examples\Dhrystone_RISCV/riscv_hal/syscall.c:258 (discriminator 2)
800033cc:	fed44783          	lbu	a5,-19(s0)
800033d0:	03778793          	addi	a5,a5,55
800033d4:	0ff7f793          	andi	a5,a5,255
C:\Microsemi\SoftConsole_v5.3.0.30-20180629-171539\extras\workspace.examples\Dhrystone_RISCV/riscv_hal/syscall.c:258 (discriminator 4)
800033d8:	fef40623          	sb	a5,-20(s0)
C:\Microsemi\SoftConsole_v5.3.0.30-20180629-171539\extras\workspace.examples\Dhrystone_RISCV/riscv_hal/syscall.c:259 (discriminator 4)
        write( fd, &towrite, 1);
800033dc:	fec40793          	addi	a5,s0,-20
800033e0:	00100613          	li	a2,1
800033e4:	00078593          	mv	a1,a5
800033e8:	fdc42503          	lw	a0,-36(s0)
800033ec:	4ad000ef          	jal	ra,80004098 <write>
C:\Microsemi\SoftConsole_v5.3.0.30-20180629-171539\extras\workspace.examples\Dhrystone_RISCV/riscv_hal/syscall.c:254 (discriminator 4)
    for (ii = 8 ; ii > 0; ii--)
800033f0:	fef44783          	lbu	a5,-17(s0)
800033f4:	fff78793          	addi	a5,a5,-1
800033f8:	fef407a3          	sb	a5,-17(s0)
C:\Microsemi\SoftConsole_v5.3.0.30-20180629-171539\extras\workspace.examples\Dhrystone_RISCV/riscv_hal/syscall.c:254 (discriminator 2)
800033fc:	fef44783          	lbu	a5,-17(s0)
80003400:	f6079ce3          	bnez	a5,80003378 <write_hex+0x38>
C:\Microsemi\SoftConsole_v5.3.0.30-20180629-171539\extras\workspace.examples\Dhrystone_RISCV/riscv_hal/syscall.c:261
    }
}
80003404:	00000013          	nop
80003408:	02c12083          	lw	ra,44(sp)
8000340c:	02812403          	lw	s0,40(sp)
80003410:	03010113          	addi	sp,sp,48
80003414:	00008067          	ret

80003418 <PLIC_DisableIRQ>:
PLIC_DisableIRQ():
C:\Microsemi\SoftConsole_v5.3.0.30-20180629-171539\extras\workspace.examples\Dhrystone_RISCV/riscv_hal/riscv_plic.h:174
 * 	If you wish to disable the external interrupt while the interrupt handler
 * 	for that external interrupt is executing then you must use the return value
 * 	EXT_IRQ_DISABLE to return from the extern interrupt handler.
 */
static inline void PLIC_DisableIRQ(IRQn_Type IRQn)
{
80003418:	fd010113          	addi	sp,sp,-48
8000341c:	02812623          	sw	s0,44(sp)
80003420:	03010413          	addi	s0,sp,48
80003424:	fca42e23          	sw	a0,-36(s0)
C:\Microsemi\SoftConsole_v5.3.0.30-20180629-171539\extras\workspace.examples\Dhrystone_RISCV/riscv_hal/riscv_plic.h:175
    unsigned long hart_id = read_csr(mhartid);
80003428:	f14027f3          	csrr	a5,mhartid
8000342c:	fef42623          	sw	a5,-20(s0)
80003430:	fec42783          	lw	a5,-20(s0)
80003434:	fef42423          	sw	a5,-24(s0)
C:\Microsemi\SoftConsole_v5.3.0.30-20180629-171539\extras\workspace.examples\Dhrystone_RISCV/riscv_hal/riscv_plic.h:176
    uint32_t current = PLIC->TARGET_ENABLES[hart_id].ENABLES[IRQn / 32];
80003438:	40000737          	lui	a4,0x40000
8000343c:	fdc42783          	lw	a5,-36(s0)
80003440:	0057d793          	srli	a5,a5,0x5
80003444:	fe842683          	lw	a3,-24(s0)
80003448:	00569693          	slli	a3,a3,0x5
8000344c:	00f686b3          	add	a3,a3,a5
80003450:	000017b7          	lui	a5,0x1
80003454:	80078793          	addi	a5,a5,-2048 # 800 <HEAP_SIZE>
80003458:	00f687b3          	add	a5,a3,a5
8000345c:	00279793          	slli	a5,a5,0x2
80003460:	00f707b3          	add	a5,a4,a5
80003464:	0007a783          	lw	a5,0(a5)
80003468:	fef42223          	sw	a5,-28(s0)
C:\Microsemi\SoftConsole_v5.3.0.30-20180629-171539\extras\workspace.examples\Dhrystone_RISCV/riscv_hal/riscv_plic.h:178

    current &= ~((uint32_t)1 << (IRQn % 32));
8000346c:	fdc42783          	lw	a5,-36(s0)
80003470:	01f7f793          	andi	a5,a5,31
80003474:	00100713          	li	a4,1
80003478:	00f717b3          	sll	a5,a4,a5
8000347c:	fff7c793          	not	a5,a5
80003480:	fe442703          	lw	a4,-28(s0)
80003484:	00f777b3          	and	a5,a4,a5
80003488:	fef42223          	sw	a5,-28(s0)
C:\Microsemi\SoftConsole_v5.3.0.30-20180629-171539\extras\workspace.examples\Dhrystone_RISCV/riscv_hal/riscv_plic.h:180

    PLIC->TARGET_ENABLES[hart_id].ENABLES[IRQn / 32] = current;
8000348c:	40000737          	lui	a4,0x40000
80003490:	fdc42783          	lw	a5,-36(s0)
80003494:	0057d793          	srli	a5,a5,0x5
80003498:	fe842683          	lw	a3,-24(s0)
8000349c:	00569693          	slli	a3,a3,0x5
800034a0:	00f686b3          	add	a3,a3,a5
800034a4:	000017b7          	lui	a5,0x1
800034a8:	80078793          	addi	a5,a5,-2048 # 800 <HEAP_SIZE>
800034ac:	00f687b3          	add	a5,a3,a5
800034b0:	00279793          	slli	a5,a5,0x2
800034b4:	00f707b3          	add	a5,a4,a5
800034b8:	fe442703          	lw	a4,-28(s0)
800034bc:	00e7a023          	sw	a4,0(a5)
C:\Microsemi\SoftConsole_v5.3.0.30-20180629-171539\extras\workspace.examples\Dhrystone_RISCV/riscv_hal/riscv_plic.h:181
}
800034c0:	00000013          	nop
800034c4:	02c12403          	lw	s0,44(sp)
800034c8:	03010113          	addi	sp,sp,48
800034cc:	00008067          	ret

800034d0 <PLIC_ClaimIRQ>:
PLIC_ClaimIRQ():
C:\Microsemi\SoftConsole_v5.3.0.30-20180629-171539\extras\workspace.examples\Dhrystone_RISCV/riscv_hal/riscv_plic.h:205

/*==============================================================================
 * The function PLIC_ClaimIRQ() claims the interrupt from the PLIC controller.
 */
static inline uint32_t PLIC_ClaimIRQ(void)
{
800034d0:	fe010113          	addi	sp,sp,-32
800034d4:	00812e23          	sw	s0,28(sp)
800034d8:	02010413          	addi	s0,sp,32
C:\Microsemi\SoftConsole_v5.3.0.30-20180629-171539\extras\workspace.examples\Dhrystone_RISCV/riscv_hal/riscv_plic.h:206
    unsigned long hart_id = read_csr(mhartid);
800034dc:	f14027f3          	csrr	a5,mhartid
800034e0:	fef42623          	sw	a5,-20(s0)
800034e4:	fec42783          	lw	a5,-20(s0)
800034e8:	fef42423          	sw	a5,-24(s0)
C:\Microsemi\SoftConsole_v5.3.0.30-20180629-171539\extras\workspace.examples\Dhrystone_RISCV/riscv_hal/riscv_plic.h:208

    return PLIC->TARGET[hart_id].CLAIM_COMPLETE;
800034ec:	40000737          	lui	a4,0x40000
800034f0:	fe842783          	lw	a5,-24(s0)
800034f4:	20078793          	addi	a5,a5,512
800034f8:	00c79793          	slli	a5,a5,0xc
800034fc:	00f707b3          	add	a5,a4,a5
80003500:	0047a783          	lw	a5,4(a5)
C:\Microsemi\SoftConsole_v5.3.0.30-20180629-171539\extras\workspace.examples\Dhrystone_RISCV/riscv_hal/riscv_plic.h:209
}
80003504:	00078513          	mv	a0,a5
80003508:	01c12403          	lw	s0,28(sp)
8000350c:	02010113          	addi	sp,sp,32
80003510:	00008067          	ret

80003514 <PLIC_CompleteIRQ>:
PLIC_CompleteIRQ():
C:\Microsemi\SoftConsole_v5.3.0.30-20180629-171539\extras\workspace.examples\Dhrystone_RISCV/riscv_hal/riscv_plic.h:216
/*==============================================================================
 * The function PLIC_CompleteIRQ() indicates to the PLIC controller the interrupt
 * is processed and claim is complete.
 */
static inline void PLIC_CompleteIRQ(uint32_t source)
{
80003514:	fd010113          	addi	sp,sp,-48
80003518:	02812623          	sw	s0,44(sp)
8000351c:	03010413          	addi	s0,sp,48
80003520:	fca42e23          	sw	a0,-36(s0)
C:\Microsemi\SoftConsole_v5.3.0.30-20180629-171539\extras\workspace.examples\Dhrystone_RISCV/riscv_hal/riscv_plic.h:217
    unsigned long hart_id = read_csr(mhartid);
80003524:	f14027f3          	csrr	a5,mhartid
80003528:	fef42623          	sw	a5,-20(s0)
8000352c:	fec42783          	lw	a5,-20(s0)
80003530:	fef42423          	sw	a5,-24(s0)
C:\Microsemi\SoftConsole_v5.3.0.30-20180629-171539\extras\workspace.examples\Dhrystone_RISCV/riscv_hal/riscv_plic.h:219

    PLIC->TARGET[hart_id].CLAIM_COMPLETE = source;
80003534:	40000737          	lui	a4,0x40000
80003538:	fe842783          	lw	a5,-24(s0)
8000353c:	20078793          	addi	a5,a5,512
80003540:	00c79793          	slli	a5,a5,0xc
80003544:	00f707b3          	add	a5,a4,a5
80003548:	fdc42703          	lw	a4,-36(s0)
8000354c:	00e7a223          	sw	a4,4(a5)
C:\Microsemi\SoftConsole_v5.3.0.30-20180629-171539\extras\workspace.examples\Dhrystone_RISCV/riscv_hal/riscv_plic.h:220
}
80003550:	00000013          	nop
80003554:	02c12403          	lw	s0,44(sp)
80003558:	03010113          	addi	sp,sp,48
8000355c:	00008067          	ret

80003560 <__disable_irq>:
__disable_irq():
C:\Microsemi\SoftConsole_v5.3.0.30-20180629-171539\extras\workspace.examples\Dhrystone_RISCV/riscv_hal/riscv_hal.c:77

/*------------------------------------------------------------------------------
 * Disable all interrupts.
 */
void __disable_irq(void)
{
80003560:	fe010113          	addi	sp,sp,-32
80003564:	00812e23          	sw	s0,28(sp)
80003568:	02010413          	addi	s0,sp,32
C:\Microsemi\SoftConsole_v5.3.0.30-20180629-171539\extras\workspace.examples\Dhrystone_RISCV/riscv_hal/riscv_hal.c:78
    clear_csr(mstatus, MSTATUS_MPIE);
8000356c:	08000793          	li	a5,128
80003570:	3007b7f3          	csrrc	a5,mstatus,a5
80003574:	fef42623          	sw	a5,-20(s0)
C:\Microsemi\SoftConsole_v5.3.0.30-20180629-171539\extras\workspace.examples\Dhrystone_RISCV/riscv_hal/riscv_hal.c:79
    clear_csr(mstatus, MSTATUS_MIE);
80003578:	300477f3          	csrrci	a5,mstatus,8
8000357c:	fef42423          	sw	a5,-24(s0)
C:\Microsemi\SoftConsole_v5.3.0.30-20180629-171539\extras\workspace.examples\Dhrystone_RISCV/riscv_hal/riscv_hal.c:80
}
80003580:	00000013          	nop
80003584:	01c12403          	lw	s0,28(sp)
80003588:	02010113          	addi	sp,sp,32
8000358c:	00008067          	ret

80003590 <__enable_irq>:
__enable_irq():
C:\Microsemi\SoftConsole_v5.3.0.30-20180629-171539\extras\workspace.examples\Dhrystone_RISCV/riscv_hal/riscv_hal.c:86

/*------------------------------------------------------------------------------
 * Enabler all interrupts.
 */
void __enable_irq(void)
{
80003590:	fe010113          	addi	sp,sp,-32
80003594:	00812e23          	sw	s0,28(sp)
80003598:	02010413          	addi	s0,sp,32
C:\Microsemi\SoftConsole_v5.3.0.30-20180629-171539\extras\workspace.examples\Dhrystone_RISCV/riscv_hal/riscv_hal.c:87
    set_csr(mstatus, MSTATUS_MIE);
8000359c:	300467f3          	csrrsi	a5,mstatus,8
800035a0:	fef42623          	sw	a5,-20(s0)
C:\Microsemi\SoftConsole_v5.3.0.30-20180629-171539\extras\workspace.examples\Dhrystone_RISCV/riscv_hal/riscv_hal.c:88
}
800035a4:	00000013          	nop
800035a8:	01c12403          	lw	s0,28(sp)
800035ac:	02010113          	addi	sp,sp,32
800035b0:	00008067          	ret

800035b4 <SysTick_Config>:
SysTick_Config():
C:\Microsemi\SoftConsole_v5.3.0.30-20180629-171539\extras\workspace.examples\Dhrystone_RISCV/riscv_hal/riscv_hal.c:94

/*------------------------------------------------------------------------------
 * Configure the machine timer to generate an interrupt.
 */
uint32_t SysTick_Config(uint32_t ticks)
{
800035b4:	fd010113          	addi	sp,sp,-48
800035b8:	02112623          	sw	ra,44(sp)
800035bc:	02812423          	sw	s0,40(sp)
800035c0:	03010413          	addi	s0,sp,48
800035c4:	fca42e23          	sw	a0,-36(s0)
C:\Microsemi\SoftConsole_v5.3.0.30-20180629-171539\extras\workspace.examples\Dhrystone_RISCV/riscv_hal/riscv_hal.c:95
    uint32_t ret_val = ERROR;
800035c8:	00100713          	li	a4,1
800035cc:	fee42623          	sw	a4,-20(s0)
C:\Microsemi\SoftConsole_v5.3.0.30-20180629-171539\extras\workspace.examples\Dhrystone_RISCV/riscv_hal/riscv_hal.c:97

    g_systick_increment = (uint64_t)(ticks) / RTC_PRESCALER;
800035d0:	fdc42683          	lw	a3,-36(s0)
800035d4:	06400713          	li	a4,100
800035d8:	02e6d733          	divu	a4,a3,a4
800035dc:	00070793          	mv	a5,a4
800035e0:	00000813          	li	a6,0
800035e4:	8000a737          	lui	a4,0x8000a
800035e8:	acf72423          	sw	a5,-1336(a4) # 80009ac8 <__stack_top+0xffffeff8>
800035ec:	ad072623          	sw	a6,-1332(a4)
C:\Microsemi\SoftConsole_v5.3.0.30-20180629-171539\extras\workspace.examples\Dhrystone_RISCV/riscv_hal/riscv_hal.c:99

    if (g_systick_increment > 0U)
800035f0:	8000a7b7          	lui	a5,0x8000a
800035f4:	ac87a683          	lw	a3,-1336(a5) # 80009ac8 <__stack_top+0xffffeff8>
800035f8:	acc7a703          	lw	a4,-1332(a5)
800035fc:	00068793          	mv	a5,a3
80003600:	00e7e7b3          	or	a5,a5,a4
80003604:	08078663          	beqz	a5,80003690 <SysTick_Config+0xdc>
C:\Microsemi\SoftConsole_v5.3.0.30-20180629-171539\extras\workspace.examples\Dhrystone_RISCV/riscv_hal/riscv_hal.c:101
    {
        uint32_t mhart_id = read_csr(mhartid);
80003608:	f14027f3          	csrr	a5,mhartid
8000360c:	fef42423          	sw	a5,-24(s0)
80003610:	fe842783          	lw	a5,-24(s0)
80003614:	fef42223          	sw	a5,-28(s0)
C:\Microsemi\SoftConsole_v5.3.0.30-20180629-171539\extras\workspace.examples\Dhrystone_RISCV/riscv_hal/riscv_hal.c:103

        PRCI->MTIMECMP[mhart_id] = PRCI->MTIME + g_systick_increment;
80003618:	44000737          	lui	a4,0x44000
8000361c:	0000c7b7          	lui	a5,0xc
80003620:	00f707b3          	add	a5,a4,a5
80003624:	ffc7a803          	lw	a6,-4(a5) # bffc <HEAP_SIZE+0xb7fc>
80003628:	ff87a783          	lw	a5,-8(a5)
8000362c:	8000a737          	lui	a4,0x8000a
80003630:	ac872583          	lw	a1,-1336(a4) # 80009ac8 <__stack_top+0xffffeff8>
80003634:	acc72603          	lw	a2,-1332(a4)
80003638:	44000537          	lui	a0,0x44000
8000363c:	00b786b3          	add	a3,a5,a1
80003640:	00068893          	mv	a7,a3
80003644:	00f8b8b3          	sltu	a7,a7,a5
80003648:	00c80733          	add	a4,a6,a2
8000364c:	00e887b3          	add	a5,a7,a4
80003650:	00078713          	mv	a4,a5
80003654:	00068793          	mv	a5,a3
80003658:	00070813          	mv	a6,a4
8000365c:	fe442683          	lw	a3,-28(s0)
80003660:	00001737          	lui	a4,0x1
80003664:	80070713          	addi	a4,a4,-2048 # 800 <HEAP_SIZE>
80003668:	00e68733          	add	a4,a3,a4
8000366c:	00371713          	slli	a4,a4,0x3
80003670:	00e50733          	add	a4,a0,a4
80003674:	00f72023          	sw	a5,0(a4)
80003678:	01072223          	sw	a6,4(a4)
C:\Microsemi\SoftConsole_v5.3.0.30-20180629-171539\extras\workspace.examples\Dhrystone_RISCV/riscv_hal/riscv_hal.c:105

        set_csr(mie, MIP_MTIP);
8000367c:	08000793          	li	a5,128
80003680:	3047a7f3          	csrrs	a5,mie,a5
80003684:	fef42023          	sw	a5,-32(s0)
C:\Microsemi\SoftConsole_v5.3.0.30-20180629-171539\extras\workspace.examples\Dhrystone_RISCV/riscv_hal/riscv_hal.c:107

        __enable_irq();
80003688:	f09ff0ef          	jal	ra,80003590 <__enable_irq>
C:\Microsemi\SoftConsole_v5.3.0.30-20180629-171539\extras\workspace.examples\Dhrystone_RISCV/riscv_hal/riscv_hal.c:109

        ret_val = SUCCESS;
8000368c:	fe042623          	sw	zero,-20(s0)
C:\Microsemi\SoftConsole_v5.3.0.30-20180629-171539\extras\workspace.examples\Dhrystone_RISCV/riscv_hal/riscv_hal.c:112
    }

    return ret_val;
80003690:	fec42783          	lw	a5,-20(s0)
C:\Microsemi\SoftConsole_v5.3.0.30-20180629-171539\extras\workspace.examples\Dhrystone_RISCV/riscv_hal/riscv_hal.c:113
}
80003694:	00078513          	mv	a0,a5
80003698:	02c12083          	lw	ra,44(sp)
8000369c:	02812403          	lw	s0,40(sp)
800036a0:	03010113          	addi	sp,sp,48
800036a4:	00008067          	ret

800036a8 <handle_m_timer_interrupt>:
handle_m_timer_interrupt():
C:\Microsemi\SoftConsole_v5.3.0.30-20180629-171539\extras\workspace.examples\Dhrystone_RISCV/riscv_hal/riscv_hal.c:119

/*------------------------------------------------------------------------------
 * RISC-V interrupt handler for machine timer interrupts.
 */
static void handle_m_timer_interrupt(void)
{
800036a8:	fe010113          	addi	sp,sp,-32
800036ac:	00112e23          	sw	ra,28(sp)
800036b0:	00812c23          	sw	s0,24(sp)
800036b4:	02010413          	addi	s0,sp,32
C:\Microsemi\SoftConsole_v5.3.0.30-20180629-171539\extras\workspace.examples\Dhrystone_RISCV/riscv_hal/riscv_hal.c:120
    clear_csr(mie, MIP_MTIP);
800036b8:	08000793          	li	a5,128
800036bc:	3047b7f3          	csrrc	a5,mie,a5
800036c0:	fef42623          	sw	a5,-20(s0)
C:\Microsemi\SoftConsole_v5.3.0.30-20180629-171539\extras\workspace.examples\Dhrystone_RISCV/riscv_hal/riscv_hal.c:122

    SysTick_Handler();
800036c4:	244000ef          	jal	ra,80003908 <SysTick_Handler>
C:\Microsemi\SoftConsole_v5.3.0.30-20180629-171539\extras\workspace.examples\Dhrystone_RISCV/riscv_hal/riscv_hal.c:124

    PRCI->MTIMECMP[read_csr(mhartid)] = PRCI->MTIME + g_systick_increment;
800036c8:	44000737          	lui	a4,0x44000
800036cc:	0000c7b7          	lui	a5,0xc
800036d0:	00f707b3          	add	a5,a4,a5
800036d4:	ffc7a803          	lw	a6,-4(a5) # bffc <HEAP_SIZE+0xb7fc>
800036d8:	ff87a783          	lw	a5,-8(a5)
800036dc:	8000a737          	lui	a4,0x8000a
800036e0:	ac872583          	lw	a1,-1336(a4) # 80009ac8 <__stack_top+0xffffeff8>
800036e4:	acc72603          	lw	a2,-1332(a4)
800036e8:	44000537          	lui	a0,0x44000
800036ec:	f1402773          	csrr	a4,mhartid
800036f0:	fee42423          	sw	a4,-24(s0)
800036f4:	fe842883          	lw	a7,-24(s0)
800036f8:	00b786b3          	add	a3,a5,a1
800036fc:	00068313          	mv	t1,a3
80003700:	00f33333          	sltu	t1,t1,a5
80003704:	00c80733          	add	a4,a6,a2
80003708:	00e307b3          	add	a5,t1,a4
8000370c:	00078713          	mv	a4,a5
80003710:	00068793          	mv	a5,a3
80003714:	00070813          	mv	a6,a4
80003718:	00001737          	lui	a4,0x1
8000371c:	80070713          	addi	a4,a4,-2048 # 800 <HEAP_SIZE>
80003720:	00e88733          	add	a4,a7,a4
80003724:	00371713          	slli	a4,a4,0x3
80003728:	00e50733          	add	a4,a0,a4
8000372c:	00f72023          	sw	a5,0(a4)
80003730:	01072223          	sw	a6,4(a4)
C:\Microsemi\SoftConsole_v5.3.0.30-20180629-171539\extras\workspace.examples\Dhrystone_RISCV/riscv_hal/riscv_hal.c:126

    set_csr(mie, MIP_MTIP);
80003734:	08000793          	li	a5,128
80003738:	3047a7f3          	csrrs	a5,mie,a5
8000373c:	fef42223          	sw	a5,-28(s0)
C:\Microsemi\SoftConsole_v5.3.0.30-20180629-171539\extras\workspace.examples\Dhrystone_RISCV/riscv_hal/riscv_hal.c:127
}
80003740:	00000013          	nop
80003744:	01c12083          	lw	ra,28(sp)
80003748:	01812403          	lw	s0,24(sp)
8000374c:	02010113          	addi	sp,sp,32
80003750:	00008067          	ret

80003754 <handle_m_ext_interrupt>:
handle_m_ext_interrupt():
C:\Microsemi\SoftConsole_v5.3.0.30-20180629-171539\extras\workspace.examples\Dhrystone_RISCV/riscv_hal/riscv_hal.c:172

/*------------------------------------------------------------------------------
 *
 */
static void handle_m_ext_interrupt(void)
{
80003754:	fe010113          	addi	sp,sp,-32
80003758:	00112e23          	sw	ra,28(sp)
8000375c:	00812c23          	sw	s0,24(sp)
80003760:	02010413          	addi	s0,sp,32
C:\Microsemi\SoftConsole_v5.3.0.30-20180629-171539\extras\workspace.examples\Dhrystone_RISCV/riscv_hal/riscv_hal.c:173
    uint32_t int_num  = PLIC_ClaimIRQ();
80003764:	d6dff0ef          	jal	ra,800034d0 <PLIC_ClaimIRQ>
80003768:	fea42623          	sw	a0,-20(s0)
C:\Microsemi\SoftConsole_v5.3.0.30-20180629-171539\extras\workspace.examples\Dhrystone_RISCV/riscv_hal/riscv_hal.c:174
    uint8_t disable = EXT_IRQ_KEEP_ENABLED;
8000376c:	fe0405a3          	sb	zero,-21(s0)
C:\Microsemi\SoftConsole_v5.3.0.30-20180629-171539\extras\workspace.examples\Dhrystone_RISCV/riscv_hal/riscv_hal.c:176

    disable = ext_irq_handler_table[int_num]();
80003770:	800077b7          	lui	a5,0x80007
80003774:	fec42703          	lw	a4,-20(s0)
80003778:	00271713          	slli	a4,a4,0x2
8000377c:	df078793          	addi	a5,a5,-528 # 80006df0 <__stack_top+0xffffc320>
80003780:	00f707b3          	add	a5,a4,a5
80003784:	0007a783          	lw	a5,0(a5)
80003788:	000780e7          	jalr	a5
8000378c:	00050793          	mv	a5,a0
80003790:	fef405a3          	sb	a5,-21(s0)
C:\Microsemi\SoftConsole_v5.3.0.30-20180629-171539\extras\workspace.examples\Dhrystone_RISCV/riscv_hal/riscv_hal.c:178

    PLIC_CompleteIRQ(int_num);
80003794:	fec42503          	lw	a0,-20(s0)
80003798:	d7dff0ef          	jal	ra,80003514 <PLIC_CompleteIRQ>
C:\Microsemi\SoftConsole_v5.3.0.30-20180629-171539\extras\workspace.examples\Dhrystone_RISCV/riscv_hal/riscv_hal.c:180

    if(EXT_IRQ_DISABLE == disable)
8000379c:	feb44703          	lbu	a4,-21(s0)
800037a0:	00100793          	li	a5,1
800037a4:	00f71663          	bne	a4,a5,800037b0 <handle_m_ext_interrupt+0x5c>
C:\Microsemi\SoftConsole_v5.3.0.30-20180629-171539\extras\workspace.examples\Dhrystone_RISCV/riscv_hal/riscv_hal.c:182
    {
        PLIC_DisableIRQ((IRQn_Type)int_num);
800037a8:	fec42503          	lw	a0,-20(s0)
800037ac:	c6dff0ef          	jal	ra,80003418 <PLIC_DisableIRQ>
C:\Microsemi\SoftConsole_v5.3.0.30-20180629-171539\extras\workspace.examples\Dhrystone_RISCV/riscv_hal/riscv_hal.c:184
    }
}
800037b0:	00000013          	nop
800037b4:	01c12083          	lw	ra,28(sp)
800037b8:	01812403          	lw	s0,24(sp)
800037bc:	02010113          	addi	sp,sp,32
800037c0:	00008067          	ret

800037c4 <handle_m_soft_interrupt>:
handle_m_soft_interrupt():
C:\Microsemi\SoftConsole_v5.3.0.30-20180629-171539\extras\workspace.examples\Dhrystone_RISCV/riscv_hal/riscv_hal.c:187

static void handle_m_soft_interrupt(void)
{
800037c4:	ff010113          	addi	sp,sp,-16
800037c8:	00112623          	sw	ra,12(sp)
800037cc:	00812423          	sw	s0,8(sp)
800037d0:	01010413          	addi	s0,sp,16
C:\Microsemi\SoftConsole_v5.3.0.30-20180629-171539\extras\workspace.examples\Dhrystone_RISCV/riscv_hal/riscv_hal.c:188
    Software_IRQHandler();
800037d4:	11c000ef          	jal	ra,800038f0 <Software_IRQHandler>
C:\Microsemi\SoftConsole_v5.3.0.30-20180629-171539\extras\workspace.examples\Dhrystone_RISCV/riscv_hal/riscv_hal.c:191

    /*Clear software interrupt*/
    PRCI->MSIP[0] = 0x00U;
800037d8:	440007b7          	lui	a5,0x44000
800037dc:	0007a023          	sw	zero,0(a5) # 44000000 <RAM_SIZE+0x43ff0000>
C:\Microsemi\SoftConsole_v5.3.0.30-20180629-171539\extras\workspace.examples\Dhrystone_RISCV/riscv_hal/riscv_hal.c:192
}
800037e0:	00000013          	nop
800037e4:	00c12083          	lw	ra,12(sp)
800037e8:	00812403          	lw	s0,8(sp)
800037ec:	01010113          	addi	sp,sp,16
800037f0:	00008067          	ret

800037f4 <handle_trap>:
handle_trap():
C:\Microsemi\SoftConsole_v5.3.0.30-20180629-171539\extras\workspace.examples\Dhrystone_RISCV/riscv_hal/riscv_hal.c:198

/*------------------------------------------------------------------------------
 * Trap/Interrupt handler
 */
uintptr_t handle_trap(uintptr_t mcause, uintptr_t mepc)
{
800037f4:	fb010113          	addi	sp,sp,-80
800037f8:	04112623          	sw	ra,76(sp)
800037fc:	04812423          	sw	s0,72(sp)
80003800:	05010413          	addi	s0,sp,80
80003804:	faa42e23          	sw	a0,-68(s0)
80003808:	fab42c23          	sw	a1,-72(s0)
C:\Microsemi\SoftConsole_v5.3.0.30-20180629-171539\extras\workspace.examples\Dhrystone_RISCV/riscv_hal/riscv_hal.c:199
    if ((mcause & MCAUSE_INT) && ((mcause & MCAUSE_CAUSE)  == IRQ_M_EXT))
8000380c:	fbc42783          	lw	a5,-68(s0)
80003810:	0207d263          	bgez	a5,80003834 <handle_trap+0x40>
C:\Microsemi\SoftConsole_v5.3.0.30-20180629-171539\extras\workspace.examples\Dhrystone_RISCV/riscv_hal/riscv_hal.c:199 (discriminator 1)
80003814:	fbc42703          	lw	a4,-68(s0)
80003818:	800007b7          	lui	a5,0x80000
8000381c:	fff7c793          	not	a5,a5
80003820:	00f77733          	and	a4,a4,a5
80003824:	00b00793          	li	a5,11
80003828:	00f71663          	bne	a4,a5,80003834 <handle_trap+0x40>
C:\Microsemi\SoftConsole_v5.3.0.30-20180629-171539\extras\workspace.examples\Dhrystone_RISCV/riscv_hal/riscv_hal.c:201
    {
        handle_m_ext_interrupt();
8000382c:	f29ff0ef          	jal	ra,80003754 <handle_m_ext_interrupt>
80003830:	0a80006f          	j	800038d8 <handle_trap+0xe4>
C:\Microsemi\SoftConsole_v5.3.0.30-20180629-171539\extras\workspace.examples\Dhrystone_RISCV/riscv_hal/riscv_hal.c:203
    }
    else if ((mcause & MCAUSE_INT) && ((mcause & MCAUSE_CAUSE)  == IRQ_M_TIMER))
80003834:	fbc42783          	lw	a5,-68(s0)
80003838:	0207d263          	bgez	a5,8000385c <handle_trap+0x68>
C:\Microsemi\SoftConsole_v5.3.0.30-20180629-171539\extras\workspace.examples\Dhrystone_RISCV/riscv_hal/riscv_hal.c:203 (discriminator 1)
8000383c:	fbc42703          	lw	a4,-68(s0)
80003840:	800007b7          	lui	a5,0x80000
80003844:	fff7c793          	not	a5,a5
80003848:	00f77733          	and	a4,a4,a5
8000384c:	00700793          	li	a5,7
80003850:	00f71663          	bne	a4,a5,8000385c <handle_trap+0x68>
C:\Microsemi\SoftConsole_v5.3.0.30-20180629-171539\extras\workspace.examples\Dhrystone_RISCV/riscv_hal/riscv_hal.c:205
    {
        handle_m_timer_interrupt();
80003854:	e55ff0ef          	jal	ra,800036a8 <handle_m_timer_interrupt>
80003858:	0800006f          	j	800038d8 <handle_trap+0xe4>
C:\Microsemi\SoftConsole_v5.3.0.30-20180629-171539\extras\workspace.examples\Dhrystone_RISCV/riscv_hal/riscv_hal.c:207
    }
    else if ( (mcause & MCAUSE_INT) && ((mcause & MCAUSE_CAUSE)  == IRQ_M_SOFT))
8000385c:	fbc42783          	lw	a5,-68(s0)
80003860:	0207d263          	bgez	a5,80003884 <handle_trap+0x90>
C:\Microsemi\SoftConsole_v5.3.0.30-20180629-171539\extras\workspace.examples\Dhrystone_RISCV/riscv_hal/riscv_hal.c:207 (discriminator 1)
80003864:	fbc42703          	lw	a4,-68(s0)
80003868:	800007b7          	lui	a5,0x80000
8000386c:	fff7c793          	not	a5,a5
80003870:	00f77733          	and	a4,a4,a5
80003874:	00300793          	li	a5,3
80003878:	00f71663          	bne	a4,a5,80003884 <handle_trap+0x90>
C:\Microsemi\SoftConsole_v5.3.0.30-20180629-171539\extras\workspace.examples\Dhrystone_RISCV/riscv_hal/riscv_hal.c:209
    {
        handle_m_soft_interrupt();
8000387c:	f49ff0ef          	jal	ra,800037c4 <handle_m_soft_interrupt>
80003880:	0580006f          	j	800038d8 <handle_trap+0xe4>
C:\Microsemi\SoftConsole_v5.3.0.30-20180629-171539\extras\workspace.examples\Dhrystone_RISCV/riscv_hal/riscv_hal.c:234
         B Instruction page fault
         C Load page fault                (mtval/mbadaddr is the address)
         E Store page fault               (mtval/mbadaddr is the address)
        */

         uintptr_t mip      = read_csr(mip);      /* interrupt pending */
80003884:	344027f3          	csrr	a5,mip
80003888:	fef42623          	sw	a5,-20(s0)
8000388c:	fec42783          	lw	a5,-20(s0)
80003890:	fef42423          	sw	a5,-24(s0)
C:\Microsemi\SoftConsole_v5.3.0.30-20180629-171539\extras\workspace.examples\Dhrystone_RISCV/riscv_hal/riscv_hal.c:235
         uintptr_t mbadaddr = read_csr(mbadaddr); /* additional info and meaning depends on mcause */
80003894:	343027f3          	csrr	a5,mbadaddr
80003898:	fef42223          	sw	a5,-28(s0)
8000389c:	fe442783          	lw	a5,-28(s0)
800038a0:	fef42023          	sw	a5,-32(s0)
C:\Microsemi\SoftConsole_v5.3.0.30-20180629-171539\extras\workspace.examples\Dhrystone_RISCV/riscv_hal/riscv_hal.c:236
         uintptr_t mtvec    = read_csr(mtvec);    /* trap vector */
800038a4:	305027f3          	csrr	a5,mtvec
800038a8:	fcf42e23          	sw	a5,-36(s0)
800038ac:	fdc42783          	lw	a5,-36(s0)
800038b0:	fcf42c23          	sw	a5,-40(s0)
C:\Microsemi\SoftConsole_v5.3.0.30-20180629-171539\extras\workspace.examples\Dhrystone_RISCV/riscv_hal/riscv_hal.c:237
         uintptr_t mscratch = read_csr(mscratch); /* temporary, sometimes might hold temporary value of a0 */
800038b4:	340027f3          	csrr	a5,mscratch
800038b8:	fcf42a23          	sw	a5,-44(s0)
800038bc:	fd442783          	lw	a5,-44(s0)
800038c0:	fcf42823          	sw	a5,-48(s0)
C:\Microsemi\SoftConsole_v5.3.0.30-20180629-171539\extras\workspace.examples\Dhrystone_RISCV/riscv_hal/riscv_hal.c:238
         uintptr_t mstatus  = read_csr(mstatus);  /* status contains many smaller fields: */
800038c4:	300027f3          	csrr	a5,mstatus
800038c8:	fcf42623          	sw	a5,-52(s0)
800038cc:	fcc42783          	lw	a5,-52(s0)
800038d0:	fcf42423          	sw	a5,-56(s0)
C:\Microsemi\SoftConsole_v5.3.0.30-20180629-171539\extras\workspace.examples\Dhrystone_RISCV/riscv_hal/riscv_hal.c:241

		/* breakpoint*/
        __asm("ebreak");
800038d4:	00100073          	ebreak
C:\Microsemi\SoftConsole_v5.3.0.30-20180629-171539\extras\workspace.examples\Dhrystone_RISCV/riscv_hal/riscv_hal.c:246
#else
        _exit(1 + mcause);
#endif
    }
    return mepc;
800038d8:	fb842783          	lw	a5,-72(s0)
C:\Microsemi\SoftConsole_v5.3.0.30-20180629-171539\extras\workspace.examples\Dhrystone_RISCV/riscv_hal/riscv_hal.c:247
}
800038dc:	00078513          	mv	a0,a5
800038e0:	04c12083          	lw	ra,76(sp)
800038e4:	04812403          	lw	s0,72(sp)
800038e8:	05010113          	addi	sp,sp,80
800038ec:	00008067          	ret

800038f0 <Software_IRQHandler>:
Software_IRQHandler():
C:\Microsemi\SoftConsole_v5.3.0.30-20180629-171539\extras\workspace.examples\Dhrystone_RISCV/riscv_hal/riscv_hal_stubs.c:23
extern "C" {
#endif

/*Weakly linked handler. Will be replaced with user's definition if provided*/
__attribute__((weak)) void Software_IRQHandler(void)
{
800038f0:	ff010113          	addi	sp,sp,-16
800038f4:	00112623          	sw	ra,12(sp)
800038f8:	00812423          	sw	s0,8(sp)
800038fc:	01010413          	addi	s0,sp,16
C:\Microsemi\SoftConsole_v5.3.0.30-20180629-171539\extras\workspace.examples\Dhrystone_RISCV/riscv_hal/riscv_hal_stubs.c:24
    _exit(10);
80003900:	00a00513          	li	a0,10
80003904:	c28ff0ef          	jal	ra,80002d2c <_exit>

80003908 <SysTick_Handler>:
SysTick_Handler():
C:\Microsemi\SoftConsole_v5.3.0.30-20180629-171539\extras\workspace.examples\Dhrystone_RISCV/riscv_hal/riscv_hal_stubs.c:29
}

/*Weakly linked handler. Will be replaced with user's definition if provided*/
__attribute__((weak)) void SysTick_Handler(void)
{
80003908:	ff010113          	addi	sp,sp,-16
8000390c:	00812623          	sw	s0,12(sp)
80003910:	01010413          	addi	s0,sp,16
C:\Microsemi\SoftConsole_v5.3.0.30-20180629-171539\extras\workspace.examples\Dhrystone_RISCV/riscv_hal/riscv_hal_stubs.c:31
	/*Default handler*/
}
80003914:	00000013          	nop
80003918:	00c12403          	lw	s0,12(sp)
8000391c:	01010113          	addi	sp,sp,16
80003920:	00008067          	ret

80003924 <Invalid_IRQHandler>:
Invalid_IRQHandler():
C:\Microsemi\SoftConsole_v5.3.0.30-20180629-171539\extras\workspace.examples\Dhrystone_RISCV/riscv_hal/riscv_hal_stubs.c:35

/*Weakly linked handler. Will be replaced with user's definition if provided*/
__attribute__((weak)) uint8_t Invalid_IRQHandler(void)
{
80003924:	ff010113          	addi	sp,sp,-16
80003928:	00812623          	sw	s0,12(sp)
8000392c:	01010413          	addi	s0,sp,16
C:\Microsemi\SoftConsole_v5.3.0.30-20180629-171539\extras\workspace.examples\Dhrystone_RISCV/riscv_hal/riscv_hal_stubs.c:36
    return(0U); /*Default handler*/
80003930:	00000793          	li	a5,0
C:\Microsemi\SoftConsole_v5.3.0.30-20180629-171539\extras\workspace.examples\Dhrystone_RISCV/riscv_hal/riscv_hal_stubs.c:37
}
80003934:	00078513          	mv	a0,a5
80003938:	00c12403          	lw	s0,12(sp)
8000393c:	01010113          	addi	sp,sp,16
80003940:	00008067          	ret

80003944 <External_1_IRQHandler>:
External_1_IRQHandler():
C:\Microsemi\SoftConsole_v5.3.0.30-20180629-171539\extras\workspace.examples\Dhrystone_RISCV/riscv_hal/riscv_hal_stubs.c:41

/*Weakly linked handler. Will be replaced with user's definition if provided*/
__attribute__((weak)) uint8_t External_1_IRQHandler(void)
{
80003944:	ff010113          	addi	sp,sp,-16
80003948:	00812623          	sw	s0,12(sp)
8000394c:	01010413          	addi	s0,sp,16
C:\Microsemi\SoftConsole_v5.3.0.30-20180629-171539\extras\workspace.examples\Dhrystone_RISCV/riscv_hal/riscv_hal_stubs.c:42
    return(0U); /*Default handler*/
80003950:	00000793          	li	a5,0
C:\Microsemi\SoftConsole_v5.3.0.30-20180629-171539\extras\workspace.examples\Dhrystone_RISCV/riscv_hal/riscv_hal_stubs.c:43
}
80003954:	00078513          	mv	a0,a5
80003958:	00c12403          	lw	s0,12(sp)
8000395c:	01010113          	addi	sp,sp,16
80003960:	00008067          	ret

80003964 <External_2_IRQHandler>:
External_2_IRQHandler():
C:\Microsemi\SoftConsole_v5.3.0.30-20180629-171539\extras\workspace.examples\Dhrystone_RISCV/riscv_hal/riscv_hal_stubs.c:47

/*Weakly linked handler. Will be replaced with user's definition if provided*/
__attribute__((weak)) uint8_t External_2_IRQHandler(void)
{
80003964:	ff010113          	addi	sp,sp,-16
80003968:	00812623          	sw	s0,12(sp)
8000396c:	01010413          	addi	s0,sp,16
C:\Microsemi\SoftConsole_v5.3.0.30-20180629-171539\extras\workspace.examples\Dhrystone_RISCV/riscv_hal/riscv_hal_stubs.c:48
    return(0U); /*Default handler*/
80003970:	00000793          	li	a5,0
C:\Microsemi\SoftConsole_v5.3.0.30-20180629-171539\extras\workspace.examples\Dhrystone_RISCV/riscv_hal/riscv_hal_stubs.c:49
}
80003974:	00078513          	mv	a0,a5
80003978:	00c12403          	lw	s0,12(sp)
8000397c:	01010113          	addi	sp,sp,16
80003980:	00008067          	ret

80003984 <External_3_IRQHandler>:
External_3_IRQHandler():
C:\Microsemi\SoftConsole_v5.3.0.30-20180629-171539\extras\workspace.examples\Dhrystone_RISCV/riscv_hal/riscv_hal_stubs.c:53

/*Weakly linked handler. Will be replaced with user's definition if provided*/
__attribute__((weak)) uint8_t External_3_IRQHandler(void)
{
80003984:	ff010113          	addi	sp,sp,-16
80003988:	00812623          	sw	s0,12(sp)
8000398c:	01010413          	addi	s0,sp,16
C:\Microsemi\SoftConsole_v5.3.0.30-20180629-171539\extras\workspace.examples\Dhrystone_RISCV/riscv_hal/riscv_hal_stubs.c:54
    return(0U); /*Default handler*/
80003990:	00000793          	li	a5,0
C:\Microsemi\SoftConsole_v5.3.0.30-20180629-171539\extras\workspace.examples\Dhrystone_RISCV/riscv_hal/riscv_hal_stubs.c:55
}
80003994:	00078513          	mv	a0,a5
80003998:	00c12403          	lw	s0,12(sp)
8000399c:	01010113          	addi	sp,sp,16
800039a0:	00008067          	ret

800039a4 <External_4_IRQHandler>:
External_4_IRQHandler():
C:\Microsemi\SoftConsole_v5.3.0.30-20180629-171539\extras\workspace.examples\Dhrystone_RISCV/riscv_hal/riscv_hal_stubs.c:59

/*Weakly linked handler. Will be replaced with user's definition if provided*/
__attribute__((weak)) uint8_t External_4_IRQHandler(void)
{
800039a4:	ff010113          	addi	sp,sp,-16
800039a8:	00812623          	sw	s0,12(sp)
800039ac:	01010413          	addi	s0,sp,16
C:\Microsemi\SoftConsole_v5.3.0.30-20180629-171539\extras\workspace.examples\Dhrystone_RISCV/riscv_hal/riscv_hal_stubs.c:60
	return(0U); /*Default handler*/
800039b0:	00000793          	li	a5,0
C:\Microsemi\SoftConsole_v5.3.0.30-20180629-171539\extras\workspace.examples\Dhrystone_RISCV/riscv_hal/riscv_hal_stubs.c:61
}
800039b4:	00078513          	mv	a0,a5
800039b8:	00c12403          	lw	s0,12(sp)
800039bc:	01010113          	addi	sp,sp,16
800039c0:	00008067          	ret

800039c4 <External_5_IRQHandler>:
External_5_IRQHandler():
C:\Microsemi\SoftConsole_v5.3.0.30-20180629-171539\extras\workspace.examples\Dhrystone_RISCV/riscv_hal/riscv_hal_stubs.c:65

/*Weakly linked handler. Will be replaced with user's definition if provided*/
__attribute__((weak)) uint8_t External_5_IRQHandler(void)
{
800039c4:	ff010113          	addi	sp,sp,-16
800039c8:	00812623          	sw	s0,12(sp)
800039cc:	01010413          	addi	s0,sp,16
C:\Microsemi\SoftConsole_v5.3.0.30-20180629-171539\extras\workspace.examples\Dhrystone_RISCV/riscv_hal/riscv_hal_stubs.c:66
    return(0U); /*Default handler*/
800039d0:	00000793          	li	a5,0
C:\Microsemi\SoftConsole_v5.3.0.30-20180629-171539\extras\workspace.examples\Dhrystone_RISCV/riscv_hal/riscv_hal_stubs.c:67
}
800039d4:	00078513          	mv	a0,a5
800039d8:	00c12403          	lw	s0,12(sp)
800039dc:	01010113          	addi	sp,sp,16
800039e0:	00008067          	ret

800039e4 <External_6_IRQHandler>:
External_6_IRQHandler():
C:\Microsemi\SoftConsole_v5.3.0.30-20180629-171539\extras\workspace.examples\Dhrystone_RISCV/riscv_hal/riscv_hal_stubs.c:71

/*Weakly linked handler. Will be replaced with user's definition if provided*/
__attribute__((weak)) uint8_t External_6_IRQHandler(void)
{
800039e4:	ff010113          	addi	sp,sp,-16
800039e8:	00812623          	sw	s0,12(sp)
800039ec:	01010413          	addi	s0,sp,16
C:\Microsemi\SoftConsole_v5.3.0.30-20180629-171539\extras\workspace.examples\Dhrystone_RISCV/riscv_hal/riscv_hal_stubs.c:72
    return(0U); /*Default handler*/
800039f0:	00000793          	li	a5,0
C:\Microsemi\SoftConsole_v5.3.0.30-20180629-171539\extras\workspace.examples\Dhrystone_RISCV/riscv_hal/riscv_hal_stubs.c:73
}
800039f4:	00078513          	mv	a0,a5
800039f8:	00c12403          	lw	s0,12(sp)
800039fc:	01010113          	addi	sp,sp,16
80003a00:	00008067          	ret

80003a04 <External_7_IRQHandler>:
External_7_IRQHandler():
C:\Microsemi\SoftConsole_v5.3.0.30-20180629-171539\extras\workspace.examples\Dhrystone_RISCV/riscv_hal/riscv_hal_stubs.c:77

/*Weakly linked handler. Will be replaced with user's definition if provided*/
__attribute__((weak)) uint8_t External_7_IRQHandler(void)
{
80003a04:	ff010113          	addi	sp,sp,-16
80003a08:	00812623          	sw	s0,12(sp)
80003a0c:	01010413          	addi	s0,sp,16
C:\Microsemi\SoftConsole_v5.3.0.30-20180629-171539\extras\workspace.examples\Dhrystone_RISCV/riscv_hal/riscv_hal_stubs.c:78
    return(0U); /*Default handler*/
80003a10:	00000793          	li	a5,0
C:\Microsemi\SoftConsole_v5.3.0.30-20180629-171539\extras\workspace.examples\Dhrystone_RISCV/riscv_hal/riscv_hal_stubs.c:79
}
80003a14:	00078513          	mv	a0,a5
80003a18:	00c12403          	lw	s0,12(sp)
80003a1c:	01010113          	addi	sp,sp,16
80003a20:	00008067          	ret

80003a24 <External_8_IRQHandler>:
External_8_IRQHandler():
C:\Microsemi\SoftConsole_v5.3.0.30-20180629-171539\extras\workspace.examples\Dhrystone_RISCV/riscv_hal/riscv_hal_stubs.c:83

/*Weakly linked handler. Will be replaced with user's definition if provided*/
__attribute__((weak)) uint8_t External_8_IRQHandler(void)
{
80003a24:	ff010113          	addi	sp,sp,-16
80003a28:	00812623          	sw	s0,12(sp)
80003a2c:	01010413          	addi	s0,sp,16
C:\Microsemi\SoftConsole_v5.3.0.30-20180629-171539\extras\workspace.examples\Dhrystone_RISCV/riscv_hal/riscv_hal_stubs.c:84
    return(0U); /*Default handler*/
80003a30:	00000793          	li	a5,0
C:\Microsemi\SoftConsole_v5.3.0.30-20180629-171539\extras\workspace.examples\Dhrystone_RISCV/riscv_hal/riscv_hal_stubs.c:85
}
80003a34:	00078513          	mv	a0,a5
80003a38:	00c12403          	lw	s0,12(sp)
80003a3c:	01010113          	addi	sp,sp,16
80003a40:	00008067          	ret

80003a44 <External_9_IRQHandler>:
External_9_IRQHandler():
C:\Microsemi\SoftConsole_v5.3.0.30-20180629-171539\extras\workspace.examples\Dhrystone_RISCV/riscv_hal/riscv_hal_stubs.c:89

/*Weakly linked handler. Will be replaced with user's definition if provided*/
__attribute__((weak)) uint8_t External_9_IRQHandler(void)
{
80003a44:	ff010113          	addi	sp,sp,-16
80003a48:	00812623          	sw	s0,12(sp)
80003a4c:	01010413          	addi	s0,sp,16
C:\Microsemi\SoftConsole_v5.3.0.30-20180629-171539\extras\workspace.examples\Dhrystone_RISCV/riscv_hal/riscv_hal_stubs.c:90
    return(0U); /*Default handler*/
80003a50:	00000793          	li	a5,0
C:\Microsemi\SoftConsole_v5.3.0.30-20180629-171539\extras\workspace.examples\Dhrystone_RISCV/riscv_hal/riscv_hal_stubs.c:91
}
80003a54:	00078513          	mv	a0,a5
80003a58:	00c12403          	lw	s0,12(sp)
80003a5c:	01010113          	addi	sp,sp,16
80003a60:	00008067          	ret

80003a64 <External_10_IRQHandler>:
External_10_IRQHandler():
C:\Microsemi\SoftConsole_v5.3.0.30-20180629-171539\extras\workspace.examples\Dhrystone_RISCV/riscv_hal/riscv_hal_stubs.c:95

/*Weakly linked handler. Will be replaced with user's definition if provided*/
__attribute__((weak)) uint8_t External_10_IRQHandler(void)
{
80003a64:	ff010113          	addi	sp,sp,-16
80003a68:	00812623          	sw	s0,12(sp)
80003a6c:	01010413          	addi	s0,sp,16
C:\Microsemi\SoftConsole_v5.3.0.30-20180629-171539\extras\workspace.examples\Dhrystone_RISCV/riscv_hal/riscv_hal_stubs.c:96
    return(0U); /*Default handler*/
80003a70:	00000793          	li	a5,0
C:\Microsemi\SoftConsole_v5.3.0.30-20180629-171539\extras\workspace.examples\Dhrystone_RISCV/riscv_hal/riscv_hal_stubs.c:97
}
80003a74:	00078513          	mv	a0,a5
80003a78:	00c12403          	lw	s0,12(sp)
80003a7c:	01010113          	addi	sp,sp,16
80003a80:	00008067          	ret

80003a84 <External_11_IRQHandler>:
External_11_IRQHandler():
C:\Microsemi\SoftConsole_v5.3.0.30-20180629-171539\extras\workspace.examples\Dhrystone_RISCV/riscv_hal/riscv_hal_stubs.c:101

/*Weakly linked handler. Will be replaced with user's definition if provided*/
__attribute__((weak)) uint8_t External_11_IRQHandler(void)
{
80003a84:	ff010113          	addi	sp,sp,-16
80003a88:	00812623          	sw	s0,12(sp)
80003a8c:	01010413          	addi	s0,sp,16
C:\Microsemi\SoftConsole_v5.3.0.30-20180629-171539\extras\workspace.examples\Dhrystone_RISCV/riscv_hal/riscv_hal_stubs.c:102
    return(0U); /*Default handler*/
80003a90:	00000793          	li	a5,0
C:\Microsemi\SoftConsole_v5.3.0.30-20180629-171539\extras\workspace.examples\Dhrystone_RISCV/riscv_hal/riscv_hal_stubs.c:103
}
80003a94:	00078513          	mv	a0,a5
80003a98:	00c12403          	lw	s0,12(sp)
80003a9c:	01010113          	addi	sp,sp,16
80003aa0:	00008067          	ret

80003aa4 <External_12_IRQHandler>:
External_12_IRQHandler():
C:\Microsemi\SoftConsole_v5.3.0.30-20180629-171539\extras\workspace.examples\Dhrystone_RISCV/riscv_hal/riscv_hal_stubs.c:107

/*Weakly linked handler. Will be replaced with user's definition if provided*/
__attribute__((weak)) uint8_t External_12_IRQHandler(void)
{
80003aa4:	ff010113          	addi	sp,sp,-16
80003aa8:	00812623          	sw	s0,12(sp)
80003aac:	01010413          	addi	s0,sp,16
C:\Microsemi\SoftConsole_v5.3.0.30-20180629-171539\extras\workspace.examples\Dhrystone_RISCV/riscv_hal/riscv_hal_stubs.c:108
	return(0U); /*Default handler*/
80003ab0:	00000793          	li	a5,0
C:\Microsemi\SoftConsole_v5.3.0.30-20180629-171539\extras\workspace.examples\Dhrystone_RISCV/riscv_hal/riscv_hal_stubs.c:109
}
80003ab4:	00078513          	mv	a0,a5
80003ab8:	00c12403          	lw	s0,12(sp)
80003abc:	01010113          	addi	sp,sp,16
80003ac0:	00008067          	ret

80003ac4 <External_13_IRQHandler>:
External_13_IRQHandler():
C:\Microsemi\SoftConsole_v5.3.0.30-20180629-171539\extras\workspace.examples\Dhrystone_RISCV/riscv_hal/riscv_hal_stubs.c:113

/*Weakly linked handler. Will be replaced with user's definition if provided*/
__attribute__((weak)) uint8_t External_13_IRQHandler(void)
{
80003ac4:	ff010113          	addi	sp,sp,-16
80003ac8:	00812623          	sw	s0,12(sp)
80003acc:	01010413          	addi	s0,sp,16
C:\Microsemi\SoftConsole_v5.3.0.30-20180629-171539\extras\workspace.examples\Dhrystone_RISCV/riscv_hal/riscv_hal_stubs.c:114
	return(0U); /*Default handler*/
80003ad0:	00000793          	li	a5,0
C:\Microsemi\SoftConsole_v5.3.0.30-20180629-171539\extras\workspace.examples\Dhrystone_RISCV/riscv_hal/riscv_hal_stubs.c:115
}
80003ad4:	00078513          	mv	a0,a5
80003ad8:	00c12403          	lw	s0,12(sp)
80003adc:	01010113          	addi	sp,sp,16
80003ae0:	00008067          	ret

80003ae4 <External_14_IRQHandler>:
External_14_IRQHandler():
C:\Microsemi\SoftConsole_v5.3.0.30-20180629-171539\extras\workspace.examples\Dhrystone_RISCV/riscv_hal/riscv_hal_stubs.c:119

/*Weakly linked handler. Will be replaced with user's definition if provided*/
__attribute__((weak)) uint8_t External_14_IRQHandler(void)
{
80003ae4:	ff010113          	addi	sp,sp,-16
80003ae8:	00812623          	sw	s0,12(sp)
80003aec:	01010413          	addi	s0,sp,16
C:\Microsemi\SoftConsole_v5.3.0.30-20180629-171539\extras\workspace.examples\Dhrystone_RISCV/riscv_hal/riscv_hal_stubs.c:120
	return(0U); /*Default handler*/
80003af0:	00000793          	li	a5,0
C:\Microsemi\SoftConsole_v5.3.0.30-20180629-171539\extras\workspace.examples\Dhrystone_RISCV/riscv_hal/riscv_hal_stubs.c:121
}
80003af4:	00078513          	mv	a0,a5
80003af8:	00c12403          	lw	s0,12(sp)
80003afc:	01010113          	addi	sp,sp,16
80003b00:	00008067          	ret

80003b04 <External_15_IRQHandler>:
External_15_IRQHandler():
C:\Microsemi\SoftConsole_v5.3.0.30-20180629-171539\extras\workspace.examples\Dhrystone_RISCV/riscv_hal/riscv_hal_stubs.c:125

/*Weakly linked handler. Will be replaced with user's definition if provided*/
__attribute__((weak)) uint8_t External_15_IRQHandler(void)
{
80003b04:	ff010113          	addi	sp,sp,-16
80003b08:	00812623          	sw	s0,12(sp)
80003b0c:	01010413          	addi	s0,sp,16
C:\Microsemi\SoftConsole_v5.3.0.30-20180629-171539\extras\workspace.examples\Dhrystone_RISCV/riscv_hal/riscv_hal_stubs.c:126
	return(0U); /*Default handler*/
80003b10:	00000793          	li	a5,0
C:\Microsemi\SoftConsole_v5.3.0.30-20180629-171539\extras\workspace.examples\Dhrystone_RISCV/riscv_hal/riscv_hal_stubs.c:127
}
80003b14:	00078513          	mv	a0,a5
80003b18:	00c12403          	lw	s0,12(sp)
80003b1c:	01010113          	addi	sp,sp,16
80003b20:	00008067          	ret

80003b24 <External_16_IRQHandler>:
External_16_IRQHandler():
C:\Microsemi\SoftConsole_v5.3.0.30-20180629-171539\extras\workspace.examples\Dhrystone_RISCV/riscv_hal/riscv_hal_stubs.c:131

/*Weakly linked handler. Will be replaced with user's definition if provided*/
__attribute__((weak)) uint8_t External_16_IRQHandler(void)
{
80003b24:	ff010113          	addi	sp,sp,-16
80003b28:	00812623          	sw	s0,12(sp)
80003b2c:	01010413          	addi	s0,sp,16
C:\Microsemi\SoftConsole_v5.3.0.30-20180629-171539\extras\workspace.examples\Dhrystone_RISCV/riscv_hal/riscv_hal_stubs.c:132
	return(0U); /*Default handler*/
80003b30:	00000793          	li	a5,0
C:\Microsemi\SoftConsole_v5.3.0.30-20180629-171539\extras\workspace.examples\Dhrystone_RISCV/riscv_hal/riscv_hal_stubs.c:133
}
80003b34:	00078513          	mv	a0,a5
80003b38:	00c12403          	lw	s0,12(sp)
80003b3c:	01010113          	addi	sp,sp,16
80003b40:	00008067          	ret

80003b44 <External_17_IRQHandler>:
External_17_IRQHandler():
C:\Microsemi\SoftConsole_v5.3.0.30-20180629-171539\extras\workspace.examples\Dhrystone_RISCV/riscv_hal/riscv_hal_stubs.c:137

/*Weakly linked handler. Will be replaced with user's definition if provided*/
__attribute__((weak)) uint8_t External_17_IRQHandler(void)
{
80003b44:	ff010113          	addi	sp,sp,-16
80003b48:	00812623          	sw	s0,12(sp)
80003b4c:	01010413          	addi	s0,sp,16
C:\Microsemi\SoftConsole_v5.3.0.30-20180629-171539\extras\workspace.examples\Dhrystone_RISCV/riscv_hal/riscv_hal_stubs.c:138
	return(0U); /*Default handler*/
80003b50:	00000793          	li	a5,0
C:\Microsemi\SoftConsole_v5.3.0.30-20180629-171539\extras\workspace.examples\Dhrystone_RISCV/riscv_hal/riscv_hal_stubs.c:139
}
80003b54:	00078513          	mv	a0,a5
80003b58:	00c12403          	lw	s0,12(sp)
80003b5c:	01010113          	addi	sp,sp,16
80003b60:	00008067          	ret

80003b64 <External_18_IRQHandler>:
External_18_IRQHandler():
C:\Microsemi\SoftConsole_v5.3.0.30-20180629-171539\extras\workspace.examples\Dhrystone_RISCV/riscv_hal/riscv_hal_stubs.c:143

/*Weakly linked handler. Will be replaced with user's definition if provided*/
__attribute__((weak)) uint8_t External_18_IRQHandler(void)
{
80003b64:	ff010113          	addi	sp,sp,-16
80003b68:	00812623          	sw	s0,12(sp)
80003b6c:	01010413          	addi	s0,sp,16
C:\Microsemi\SoftConsole_v5.3.0.30-20180629-171539\extras\workspace.examples\Dhrystone_RISCV/riscv_hal/riscv_hal_stubs.c:144
	return(0U); /*Default handler*/
80003b70:	00000793          	li	a5,0
C:\Microsemi\SoftConsole_v5.3.0.30-20180629-171539\extras\workspace.examples\Dhrystone_RISCV/riscv_hal/riscv_hal_stubs.c:145
}
80003b74:	00078513          	mv	a0,a5
80003b78:	00c12403          	lw	s0,12(sp)
80003b7c:	01010113          	addi	sp,sp,16
80003b80:	00008067          	ret

80003b84 <External_19_IRQHandler>:
External_19_IRQHandler():
C:\Microsemi\SoftConsole_v5.3.0.30-20180629-171539\extras\workspace.examples\Dhrystone_RISCV/riscv_hal/riscv_hal_stubs.c:149

/*Weakly linked handler. Will be replaced with user's definition if provided*/
__attribute__((weak)) uint8_t External_19_IRQHandler(void)
{
80003b84:	ff010113          	addi	sp,sp,-16
80003b88:	00812623          	sw	s0,12(sp)
80003b8c:	01010413          	addi	s0,sp,16
C:\Microsemi\SoftConsole_v5.3.0.30-20180629-171539\extras\workspace.examples\Dhrystone_RISCV/riscv_hal/riscv_hal_stubs.c:150
	return(0U); /*Default handler*/
80003b90:	00000793          	li	a5,0
C:\Microsemi\SoftConsole_v5.3.0.30-20180629-171539\extras\workspace.examples\Dhrystone_RISCV/riscv_hal/riscv_hal_stubs.c:151
}
80003b94:	00078513          	mv	a0,a5
80003b98:	00c12403          	lw	s0,12(sp)
80003b9c:	01010113          	addi	sp,sp,16
80003ba0:	00008067          	ret

80003ba4 <External_20_IRQHandler>:
External_20_IRQHandler():
C:\Microsemi\SoftConsole_v5.3.0.30-20180629-171539\extras\workspace.examples\Dhrystone_RISCV/riscv_hal/riscv_hal_stubs.c:155

/*Weakly linked handler. Will be replaced with user's definition if provided*/
__attribute__((weak)) uint8_t External_20_IRQHandler(void)
{
80003ba4:	ff010113          	addi	sp,sp,-16
80003ba8:	00812623          	sw	s0,12(sp)
80003bac:	01010413          	addi	s0,sp,16
C:\Microsemi\SoftConsole_v5.3.0.30-20180629-171539\extras\workspace.examples\Dhrystone_RISCV/riscv_hal/riscv_hal_stubs.c:156
	return(0U); /*Default handler*/
80003bb0:	00000793          	li	a5,0
C:\Microsemi\SoftConsole_v5.3.0.30-20180629-171539\extras\workspace.examples\Dhrystone_RISCV/riscv_hal/riscv_hal_stubs.c:157
}
80003bb4:	00078513          	mv	a0,a5
80003bb8:	00c12403          	lw	s0,12(sp)
80003bbc:	01010113          	addi	sp,sp,16
80003bc0:	00008067          	ret

80003bc4 <External_21_IRQHandler>:
External_21_IRQHandler():
C:\Microsemi\SoftConsole_v5.3.0.30-20180629-171539\extras\workspace.examples\Dhrystone_RISCV/riscv_hal/riscv_hal_stubs.c:161

/*Weakly linked handler. Will be replaced with user's definition if provided*/
__attribute__((weak)) uint8_t External_21_IRQHandler(void)
{
80003bc4:	ff010113          	addi	sp,sp,-16
80003bc8:	00812623          	sw	s0,12(sp)
80003bcc:	01010413          	addi	s0,sp,16
C:\Microsemi\SoftConsole_v5.3.0.30-20180629-171539\extras\workspace.examples\Dhrystone_RISCV/riscv_hal/riscv_hal_stubs.c:162
	return(0U); /*Default handler*/
80003bd0:	00000793          	li	a5,0
C:\Microsemi\SoftConsole_v5.3.0.30-20180629-171539\extras\workspace.examples\Dhrystone_RISCV/riscv_hal/riscv_hal_stubs.c:163
}
80003bd4:	00078513          	mv	a0,a5
80003bd8:	00c12403          	lw	s0,12(sp)
80003bdc:	01010113          	addi	sp,sp,16
80003be0:	00008067          	ret

80003be4 <External_22_IRQHandler>:
External_22_IRQHandler():
C:\Microsemi\SoftConsole_v5.3.0.30-20180629-171539\extras\workspace.examples\Dhrystone_RISCV/riscv_hal/riscv_hal_stubs.c:167

/*Weakly linked handler. Will be replaced with user's definition if provided*/
__attribute__((weak)) uint8_t External_22_IRQHandler(void)
{
80003be4:	ff010113          	addi	sp,sp,-16
80003be8:	00812623          	sw	s0,12(sp)
80003bec:	01010413          	addi	s0,sp,16
C:\Microsemi\SoftConsole_v5.3.0.30-20180629-171539\extras\workspace.examples\Dhrystone_RISCV/riscv_hal/riscv_hal_stubs.c:168
	return(0U); /*Default handler*/
80003bf0:	00000793          	li	a5,0
C:\Microsemi\SoftConsole_v5.3.0.30-20180629-171539\extras\workspace.examples\Dhrystone_RISCV/riscv_hal/riscv_hal_stubs.c:169
}
80003bf4:	00078513          	mv	a0,a5
80003bf8:	00c12403          	lw	s0,12(sp)
80003bfc:	01010113          	addi	sp,sp,16
80003c00:	00008067          	ret

80003c04 <External_23_IRQHandler>:
External_23_IRQHandler():
C:\Microsemi\SoftConsole_v5.3.0.30-20180629-171539\extras\workspace.examples\Dhrystone_RISCV/riscv_hal/riscv_hal_stubs.c:173

/*Weakly linked handler. Will be replaced with user's definition if provided*/
__attribute__((weak)) uint8_t External_23_IRQHandler(void)
{
80003c04:	ff010113          	addi	sp,sp,-16
80003c08:	00812623          	sw	s0,12(sp)
80003c0c:	01010413          	addi	s0,sp,16
C:\Microsemi\SoftConsole_v5.3.0.30-20180629-171539\extras\workspace.examples\Dhrystone_RISCV/riscv_hal/riscv_hal_stubs.c:174
	return(0U); /*Default handler*/
80003c10:	00000793          	li	a5,0
C:\Microsemi\SoftConsole_v5.3.0.30-20180629-171539\extras\workspace.examples\Dhrystone_RISCV/riscv_hal/riscv_hal_stubs.c:175
}
80003c14:	00078513          	mv	a0,a5
80003c18:	00c12403          	lw	s0,12(sp)
80003c1c:	01010113          	addi	sp,sp,16
80003c20:	00008067          	ret

80003c24 <External_24_IRQHandler>:
External_24_IRQHandler():
C:\Microsemi\SoftConsole_v5.3.0.30-20180629-171539\extras\workspace.examples\Dhrystone_RISCV/riscv_hal/riscv_hal_stubs.c:179

/*Weakly linked handler. Will be replaced with user's definition if provided*/
__attribute__((weak)) uint8_t External_24_IRQHandler(void)
{
80003c24:	ff010113          	addi	sp,sp,-16
80003c28:	00812623          	sw	s0,12(sp)
80003c2c:	01010413          	addi	s0,sp,16
C:\Microsemi\SoftConsole_v5.3.0.30-20180629-171539\extras\workspace.examples\Dhrystone_RISCV/riscv_hal/riscv_hal_stubs.c:180
	return(0U); /*Default handler*/
80003c30:	00000793          	li	a5,0
C:\Microsemi\SoftConsole_v5.3.0.30-20180629-171539\extras\workspace.examples\Dhrystone_RISCV/riscv_hal/riscv_hal_stubs.c:181
}
80003c34:	00078513          	mv	a0,a5
80003c38:	00c12403          	lw	s0,12(sp)
80003c3c:	01010113          	addi	sp,sp,16
80003c40:	00008067          	ret

80003c44 <External_25_IRQHandler>:
External_25_IRQHandler():
C:\Microsemi\SoftConsole_v5.3.0.30-20180629-171539\extras\workspace.examples\Dhrystone_RISCV/riscv_hal/riscv_hal_stubs.c:185

/*Weakly linked handler. Will be replaced with user's definition if provided*/
__attribute__((weak)) uint8_t External_25_IRQHandler(void)
{
80003c44:	ff010113          	addi	sp,sp,-16
80003c48:	00812623          	sw	s0,12(sp)
80003c4c:	01010413          	addi	s0,sp,16
C:\Microsemi\SoftConsole_v5.3.0.30-20180629-171539\extras\workspace.examples\Dhrystone_RISCV/riscv_hal/riscv_hal_stubs.c:186
	return(0U); /*Default handler*/
80003c50:	00000793          	li	a5,0
C:\Microsemi\SoftConsole_v5.3.0.30-20180629-171539\extras\workspace.examples\Dhrystone_RISCV/riscv_hal/riscv_hal_stubs.c:187
}
80003c54:	00078513          	mv	a0,a5
80003c58:	00c12403          	lw	s0,12(sp)
80003c5c:	01010113          	addi	sp,sp,16
80003c60:	00008067          	ret

80003c64 <External_26_IRQHandler>:
External_26_IRQHandler():
C:\Microsemi\SoftConsole_v5.3.0.30-20180629-171539\extras\workspace.examples\Dhrystone_RISCV/riscv_hal/riscv_hal_stubs.c:191

/*Weakly linked handler. Will be replaced with user's definition if provided*/
__attribute__((weak)) uint8_t External_26_IRQHandler(void)
{
80003c64:	ff010113          	addi	sp,sp,-16
80003c68:	00812623          	sw	s0,12(sp)
80003c6c:	01010413          	addi	s0,sp,16
C:\Microsemi\SoftConsole_v5.3.0.30-20180629-171539\extras\workspace.examples\Dhrystone_RISCV/riscv_hal/riscv_hal_stubs.c:192
	return(0U); /*Default handler*/
80003c70:	00000793          	li	a5,0
C:\Microsemi\SoftConsole_v5.3.0.30-20180629-171539\extras\workspace.examples\Dhrystone_RISCV/riscv_hal/riscv_hal_stubs.c:193
}
80003c74:	00078513          	mv	a0,a5
80003c78:	00c12403          	lw	s0,12(sp)
80003c7c:	01010113          	addi	sp,sp,16
80003c80:	00008067          	ret

80003c84 <External_27_IRQHandler>:
External_27_IRQHandler():
C:\Microsemi\SoftConsole_v5.3.0.30-20180629-171539\extras\workspace.examples\Dhrystone_RISCV/riscv_hal/riscv_hal_stubs.c:197

/*Weakly linked handler. Will be replaced with user's definition if provided*/
__attribute__((weak)) uint8_t External_27_IRQHandler(void)
{
80003c84:	ff010113          	addi	sp,sp,-16
80003c88:	00812623          	sw	s0,12(sp)
80003c8c:	01010413          	addi	s0,sp,16
C:\Microsemi\SoftConsole_v5.3.0.30-20180629-171539\extras\workspace.examples\Dhrystone_RISCV/riscv_hal/riscv_hal_stubs.c:198
	return(0U); /*Default handler*/
80003c90:	00000793          	li	a5,0
C:\Microsemi\SoftConsole_v5.3.0.30-20180629-171539\extras\workspace.examples\Dhrystone_RISCV/riscv_hal/riscv_hal_stubs.c:199
}
80003c94:	00078513          	mv	a0,a5
80003c98:	00c12403          	lw	s0,12(sp)
80003c9c:	01010113          	addi	sp,sp,16
80003ca0:	00008067          	ret

80003ca4 <External_28_IRQHandler>:
External_28_IRQHandler():
C:\Microsemi\SoftConsole_v5.3.0.30-20180629-171539\extras\workspace.examples\Dhrystone_RISCV/riscv_hal/riscv_hal_stubs.c:203

/*Weakly linked handler. Will be replaced with user's definition if provided*/
__attribute__((weak)) uint8_t External_28_IRQHandler(void)
{
80003ca4:	ff010113          	addi	sp,sp,-16
80003ca8:	00812623          	sw	s0,12(sp)
80003cac:	01010413          	addi	s0,sp,16
C:\Microsemi\SoftConsole_v5.3.0.30-20180629-171539\extras\workspace.examples\Dhrystone_RISCV/riscv_hal/riscv_hal_stubs.c:204
	return(0U); /*Default handler*/
80003cb0:	00000793          	li	a5,0
C:\Microsemi\SoftConsole_v5.3.0.30-20180629-171539\extras\workspace.examples\Dhrystone_RISCV/riscv_hal/riscv_hal_stubs.c:205
}
80003cb4:	00078513          	mv	a0,a5
80003cb8:	00c12403          	lw	s0,12(sp)
80003cbc:	01010113          	addi	sp,sp,16
80003cc0:	00008067          	ret

80003cc4 <External_29_IRQHandler>:
External_29_IRQHandler():
C:\Microsemi\SoftConsole_v5.3.0.30-20180629-171539\extras\workspace.examples\Dhrystone_RISCV/riscv_hal/riscv_hal_stubs.c:209

/*Weakly linked handler. Will be replaced with user's definition if provided*/
__attribute__((weak)) uint8_t External_29_IRQHandler(void)
{
80003cc4:	ff010113          	addi	sp,sp,-16
80003cc8:	00812623          	sw	s0,12(sp)
80003ccc:	01010413          	addi	s0,sp,16
C:\Microsemi\SoftConsole_v5.3.0.30-20180629-171539\extras\workspace.examples\Dhrystone_RISCV/riscv_hal/riscv_hal_stubs.c:210
	return(0U); /*Default handler*/
80003cd0:	00000793          	li	a5,0
C:\Microsemi\SoftConsole_v5.3.0.30-20180629-171539\extras\workspace.examples\Dhrystone_RISCV/riscv_hal/riscv_hal_stubs.c:211
}
80003cd4:	00078513          	mv	a0,a5
80003cd8:	00c12403          	lw	s0,12(sp)
80003cdc:	01010113          	addi	sp,sp,16
80003ce0:	00008067          	ret

80003ce4 <External_30_IRQHandler>:
External_30_IRQHandler():
C:\Microsemi\SoftConsole_v5.3.0.30-20180629-171539\extras\workspace.examples\Dhrystone_RISCV/riscv_hal/riscv_hal_stubs.c:215

/*Weakly linked handler. Will be replaced with user's definition if provided*/
__attribute__((weak)) uint8_t External_30_IRQHandler(void)
{
80003ce4:	ff010113          	addi	sp,sp,-16
80003ce8:	00812623          	sw	s0,12(sp)
80003cec:	01010413          	addi	s0,sp,16
C:\Microsemi\SoftConsole_v5.3.0.30-20180629-171539\extras\workspace.examples\Dhrystone_RISCV/riscv_hal/riscv_hal_stubs.c:216
	return(0U); /*Default handler*/
80003cf0:	00000793          	li	a5,0
C:\Microsemi\SoftConsole_v5.3.0.30-20180629-171539\extras\workspace.examples\Dhrystone_RISCV/riscv_hal/riscv_hal_stubs.c:217
}
80003cf4:	00078513          	mv	a0,a5
80003cf8:	00c12403          	lw	s0,12(sp)
80003cfc:	01010113          	addi	sp,sp,16
80003d00:	00008067          	ret

80003d04 <External_31_IRQHandler>:
External_31_IRQHandler():
C:\Microsemi\SoftConsole_v5.3.0.30-20180629-171539\extras\workspace.examples\Dhrystone_RISCV/riscv_hal/riscv_hal_stubs.c:221

/*Weakly linked handler. Will be replaced with user's definition if provide*/
__attribute__((weak)) uint8_t External_31_IRQHandler(void)
{
80003d04:	ff010113          	addi	sp,sp,-16
80003d08:	00812623          	sw	s0,12(sp)
80003d0c:	01010413          	addi	s0,sp,16
C:\Microsemi\SoftConsole_v5.3.0.30-20180629-171539\extras\workspace.examples\Dhrystone_RISCV/riscv_hal/riscv_hal_stubs.c:222
	return(0U); /*Default handler*/
80003d10:	00000793          	li	a5,0
C:\Microsemi\SoftConsole_v5.3.0.30-20180629-171539\extras\workspace.examples\Dhrystone_RISCV/riscv_hal/riscv_hal_stubs.c:223
}
80003d14:	00078513          	mv	a0,a5
80003d18:	00c12403          	lw	s0,12(sp)
80003d1c:	01010113          	addi	sp,sp,16
80003d20:	00008067          	ret

80003d24 <memcpy>:
memcpy():
80003d24:	00a5c7b3          	xor	a5,a1,a0
80003d28:	0037f793          	andi	a5,a5,3
80003d2c:	00c508b3          	add	a7,a0,a2
80003d30:	06079263          	bnez	a5,80003d94 <memcpy+0x70>
80003d34:	00300793          	li	a5,3
80003d38:	04c7fe63          	bleu	a2,a5,80003d94 <memcpy+0x70>
80003d3c:	00357713          	andi	a4,a0,3
80003d40:	00050793          	mv	a5,a0
80003d44:	06071863          	bnez	a4,80003db4 <memcpy+0x90>
80003d48:	ffc8f813          	andi	a6,a7,-4
80003d4c:	fe080713          	addi	a4,a6,-32
80003d50:	08e7ec63          	bltu	a5,a4,80003de8 <memcpy+0xc4>
80003d54:	00058693          	mv	a3,a1
80003d58:	00078713          	mv	a4,a5
80003d5c:	0307f863          	bleu	a6,a5,80003d8c <memcpy+0x68>
80003d60:	0006a603          	lw	a2,0(a3)
80003d64:	00470713          	addi	a4,a4,4
80003d68:	00468693          	addi	a3,a3,4
80003d6c:	fec72e23          	sw	a2,-4(a4)
80003d70:	ff0768e3          	bltu	a4,a6,80003d60 <memcpy+0x3c>
80003d74:	fff7c713          	not	a4,a5
80003d78:	01070833          	add	a6,a4,a6
80003d7c:	ffc87813          	andi	a6,a6,-4
80003d80:	00480813          	addi	a6,a6,4
80003d84:	010787b3          	add	a5,a5,a6
80003d88:	010585b3          	add	a1,a1,a6
80003d8c:	0117e863          	bltu	a5,a7,80003d9c <memcpy+0x78>
80003d90:	00008067          	ret
80003d94:	00050793          	mv	a5,a0
80003d98:	ff157ce3          	bleu	a7,a0,80003d90 <memcpy+0x6c>
80003d9c:	0005c703          	lbu	a4,0(a1) # 70001000 <RAM_SIZE+0x6fff1000>
80003da0:	00178793          	addi	a5,a5,1 # 80000001 <__stack_top+0xffff5531>
80003da4:	00158593          	addi	a1,a1,1
80003da8:	fee78fa3          	sb	a4,-1(a5)
80003dac:	ff17e8e3          	bltu	a5,a7,80003d9c <memcpy+0x78>
80003db0:	00008067          	ret
80003db4:	0005c683          	lbu	a3,0(a1)
80003db8:	00178793          	addi	a5,a5,1
80003dbc:	0037f713          	andi	a4,a5,3
80003dc0:	fed78fa3          	sb	a3,-1(a5)
80003dc4:	00158593          	addi	a1,a1,1
80003dc8:	f80700e3          	beqz	a4,80003d48 <memcpy+0x24>
80003dcc:	0005c683          	lbu	a3,0(a1)
80003dd0:	00178793          	addi	a5,a5,1
80003dd4:	0037f713          	andi	a4,a5,3
80003dd8:	fed78fa3          	sb	a3,-1(a5)
80003ddc:	00158593          	addi	a1,a1,1
80003de0:	fc071ae3          	bnez	a4,80003db4 <memcpy+0x90>
80003de4:	f65ff06f          	j	80003d48 <memcpy+0x24>
80003de8:	0005a383          	lw	t2,0(a1)
80003dec:	0045a283          	lw	t0,4(a1)
80003df0:	0085af83          	lw	t6,8(a1)
80003df4:	00c5af03          	lw	t5,12(a1)
80003df8:	0105ae83          	lw	t4,16(a1)
80003dfc:	0145ae03          	lw	t3,20(a1)
80003e00:	0185a303          	lw	t1,24(a1)
80003e04:	01c5a603          	lw	a2,28(a1)
80003e08:	02458593          	addi	a1,a1,36
80003e0c:	02478793          	addi	a5,a5,36
80003e10:	ffc5a683          	lw	a3,-4(a1)
80003e14:	fc77ae23          	sw	t2,-36(a5)
80003e18:	fe57a023          	sw	t0,-32(a5)
80003e1c:	fff7a223          	sw	t6,-28(a5)
80003e20:	ffe7a423          	sw	t5,-24(a5)
80003e24:	ffd7a623          	sw	t4,-20(a5)
80003e28:	ffc7a823          	sw	t3,-16(a5)
80003e2c:	fe67aa23          	sw	t1,-12(a5)
80003e30:	fec7ac23          	sw	a2,-8(a5)
80003e34:	fed7ae23          	sw	a3,-4(a5)
80003e38:	fae7e8e3          	bltu	a5,a4,80003de8 <memcpy+0xc4>
80003e3c:	f19ff06f          	j	80003d54 <memcpy+0x30>

80003e40 <strcmp>:
strcmp():
80003e40:	00b56733          	or	a4,a0,a1
80003e44:	fff00393          	li	t2,-1
80003e48:	00377713          	andi	a4,a4,3
80003e4c:	10071063          	bnez	a4,80003f4c <strcmp+0x10c>
80003e50:	7f7f87b7          	lui	a5,0x7f7f8
80003e54:	f7f78793          	addi	a5,a5,-129 # 7f7f7f7f <RAM_SIZE+0x7f7e7f7f>
80003e58:	00052603          	lw	a2,0(a0) # 44000000 <RAM_SIZE+0x43ff0000>
80003e5c:	0005a683          	lw	a3,0(a1)
80003e60:	00f672b3          	and	t0,a2,a5
80003e64:	00f66333          	or	t1,a2,a5
80003e68:	00f282b3          	add	t0,t0,a5
80003e6c:	0062e2b3          	or	t0,t0,t1
80003e70:	10729263          	bne	t0,t2,80003f74 <strcmp+0x134>
80003e74:	08d61663          	bne	a2,a3,80003f00 <strcmp+0xc0>
80003e78:	00452603          	lw	a2,4(a0)
80003e7c:	0045a683          	lw	a3,4(a1)
80003e80:	00f672b3          	and	t0,a2,a5
80003e84:	00f66333          	or	t1,a2,a5
80003e88:	00f282b3          	add	t0,t0,a5
80003e8c:	0062e2b3          	or	t0,t0,t1
80003e90:	0c729e63          	bne	t0,t2,80003f6c <strcmp+0x12c>
80003e94:	06d61663          	bne	a2,a3,80003f00 <strcmp+0xc0>
80003e98:	00852603          	lw	a2,8(a0)
80003e9c:	0085a683          	lw	a3,8(a1)
80003ea0:	00f672b3          	and	t0,a2,a5
80003ea4:	00f66333          	or	t1,a2,a5
80003ea8:	00f282b3          	add	t0,t0,a5
80003eac:	0062e2b3          	or	t0,t0,t1
80003eb0:	0c729863          	bne	t0,t2,80003f80 <strcmp+0x140>
80003eb4:	04d61663          	bne	a2,a3,80003f00 <strcmp+0xc0>
80003eb8:	00c52603          	lw	a2,12(a0)
80003ebc:	00c5a683          	lw	a3,12(a1)
80003ec0:	00f672b3          	and	t0,a2,a5
80003ec4:	00f66333          	or	t1,a2,a5
80003ec8:	00f282b3          	add	t0,t0,a5
80003ecc:	0062e2b3          	or	t0,t0,t1
80003ed0:	0c729263          	bne	t0,t2,80003f94 <strcmp+0x154>
80003ed4:	02d61663          	bne	a2,a3,80003f00 <strcmp+0xc0>
80003ed8:	01052603          	lw	a2,16(a0)
80003edc:	0105a683          	lw	a3,16(a1)
80003ee0:	00f672b3          	and	t0,a2,a5
80003ee4:	00f66333          	or	t1,a2,a5
80003ee8:	00f282b3          	add	t0,t0,a5
80003eec:	0062e2b3          	or	t0,t0,t1
80003ef0:	0a729c63          	bne	t0,t2,80003fa8 <strcmp+0x168>
80003ef4:	01450513          	addi	a0,a0,20
80003ef8:	01458593          	addi	a1,a1,20
80003efc:	f4d60ee3          	beq	a2,a3,80003e58 <strcmp+0x18>
80003f00:	01061713          	slli	a4,a2,0x10
80003f04:	01069793          	slli	a5,a3,0x10
80003f08:	00f71e63          	bne	a4,a5,80003f24 <strcmp+0xe4>
80003f0c:	01065713          	srli	a4,a2,0x10
80003f10:	0106d793          	srli	a5,a3,0x10
80003f14:	40f70533          	sub	a0,a4,a5
80003f18:	0ff57593          	andi	a1,a0,255
80003f1c:	02059063          	bnez	a1,80003f3c <strcmp+0xfc>
80003f20:	00008067          	ret
80003f24:	01075713          	srli	a4,a4,0x10
80003f28:	0107d793          	srli	a5,a5,0x10
80003f2c:	40f70533          	sub	a0,a4,a5
80003f30:	0ff57593          	andi	a1,a0,255
80003f34:	00059463          	bnez	a1,80003f3c <strcmp+0xfc>
80003f38:	00008067          	ret
80003f3c:	0ff77713          	andi	a4,a4,255
80003f40:	0ff7f793          	andi	a5,a5,255
80003f44:	40f70533          	sub	a0,a4,a5
80003f48:	00008067          	ret
80003f4c:	00054603          	lbu	a2,0(a0)
80003f50:	0005c683          	lbu	a3,0(a1)
80003f54:	00150513          	addi	a0,a0,1
80003f58:	00158593          	addi	a1,a1,1
80003f5c:	00d61463          	bne	a2,a3,80003f64 <strcmp+0x124>
80003f60:	fe0616e3          	bnez	a2,80003f4c <strcmp+0x10c>
80003f64:	40d60533          	sub	a0,a2,a3
80003f68:	00008067          	ret
80003f6c:	00450513          	addi	a0,a0,4
80003f70:	00458593          	addi	a1,a1,4
80003f74:	fcd61ce3          	bne	a2,a3,80003f4c <strcmp+0x10c>
80003f78:	00000513          	li	a0,0
80003f7c:	00008067          	ret
80003f80:	00850513          	addi	a0,a0,8
80003f84:	00858593          	addi	a1,a1,8
80003f88:	fcd612e3          	bne	a2,a3,80003f4c <strcmp+0x10c>
80003f8c:	00000513          	li	a0,0
80003f90:	00008067          	ret
80003f94:	00c50513          	addi	a0,a0,12
80003f98:	00c58593          	addi	a1,a1,12
80003f9c:	fad618e3          	bne	a2,a3,80003f4c <strcmp+0x10c>
80003fa0:	00000513          	li	a0,0
80003fa4:	00008067          	ret
80003fa8:	01050513          	addi	a0,a0,16
80003fac:	01058593          	addi	a1,a1,16
80003fb0:	f8d61ee3          	bne	a2,a3,80003f4c <strcmp+0x10c>
80003fb4:	00000513          	li	a0,0
80003fb8:	00008067          	ret

80003fbc <strlen>:
strlen():
80003fbc:	00357793          	andi	a5,a0,3
80003fc0:	00050593          	mv	a1,a0
80003fc4:	04079c63          	bnez	a5,8000401c <strlen+0x60>
80003fc8:	7f7f86b7          	lui	a3,0x7f7f8
80003fcc:	f7f68693          	addi	a3,a3,-129 # 7f7f7f7f <RAM_SIZE+0x7f7e7f7f>
80003fd0:	fff00613          	li	a2,-1
80003fd4:	00450513          	addi	a0,a0,4
80003fd8:	ffc52703          	lw	a4,-4(a0)
80003fdc:	00d777b3          	and	a5,a4,a3
80003fe0:	00d787b3          	add	a5,a5,a3
80003fe4:	00d76733          	or	a4,a4,a3
80003fe8:	00e7e7b3          	or	a5,a5,a4
80003fec:	fec784e3          	beq	a5,a2,80003fd4 <strlen+0x18>
80003ff0:	ffc54783          	lbu	a5,-4(a0)
80003ff4:	40b505b3          	sub	a1,a0,a1
80003ff8:	ffd54703          	lbu	a4,-3(a0)
80003ffc:	ffe54503          	lbu	a0,-2(a0)
80004000:	04078063          	beqz	a5,80004040 <strlen+0x84>
80004004:	02070a63          	beqz	a4,80004038 <strlen+0x7c>
80004008:	00a03533          	snez	a0,a0
8000400c:	00b50533          	add	a0,a0,a1
80004010:	ffe50513          	addi	a0,a0,-2
80004014:	00008067          	ret
80004018:	fa0708e3          	beqz	a4,80003fc8 <strlen+0xc>
8000401c:	00054783          	lbu	a5,0(a0)
80004020:	00150513          	addi	a0,a0,1
80004024:	00357713          	andi	a4,a0,3
80004028:	fe0798e3          	bnez	a5,80004018 <strlen+0x5c>
8000402c:	40b50533          	sub	a0,a0,a1
80004030:	fff50513          	addi	a0,a0,-1
80004034:	00008067          	ret
80004038:	ffd58513          	addi	a0,a1,-3
8000403c:	00008067          	ret
80004040:	ffc58513          	addi	a0,a1,-4
80004044:	00008067          	ret

80004048 <strnlen>:
strnlen():
80004048:	00050713          	mv	a4,a0
8000404c:	02058663          	beqz	a1,80004078 <strnlen+0x30>
80004050:	00054783          	lbu	a5,0(a0)
80004054:	02078263          	beqz	a5,80004078 <strnlen+0x30>
80004058:	00b505b3          	add	a1,a0,a1
8000405c:	00c0006f          	j	80004068 <strnlen+0x20>
80004060:	00054783          	lbu	a5,0(a0)
80004064:	00078663          	beqz	a5,80004070 <strnlen+0x28>
80004068:	00150513          	addi	a0,a0,1
8000406c:	feb51ae3          	bne	a0,a1,80004060 <strnlen+0x18>
80004070:	40e50533          	sub	a0,a0,a4
80004074:	00008067          	ret
80004078:	00000513          	li	a0,0
8000407c:	00008067          	ret

80004080 <isatty>:
isatty():
80004080:	d85fe06f          	j	80002e04 <_isatty>

80004084 <sbrk>:
sbrk():
80004084:	00003797          	auipc	a5,0x3
80004088:	d6878793          	addi	a5,a5,-664 # 80006dec <_impure_ptr>
8000408c:	00050593          	mv	a1,a0
80004090:	0007a503          	lw	a0,0(a5)
80004094:	0800006f          	j	80004114 <_sbrk_r>

80004098 <write>:
write():
80004098:	00003797          	auipc	a5,0x3
8000409c:	d5478793          	addi	a5,a5,-684 # 80006dec <_impure_ptr>
800040a0:	00060693          	mv	a3,a2
800040a4:	00058613          	mv	a2,a1
800040a8:	00050593          	mv	a1,a0
800040ac:	0007a503          	lw	a0,0(a5)
800040b0:	0040006f          	j	800040b4 <_write_r>

800040b4 <_write_r>:
_write_r():
800040b4:	00058793          	mv	a5,a1
800040b8:	ff010113          	addi	sp,sp,-16
800040bc:	00812423          	sw	s0,8(sp)
800040c0:	00060593          	mv	a1,a2
800040c4:	00050413          	mv	s0,a0
800040c8:	00068613          	mv	a2,a3
800040cc:	00078513          	mv	a0,a5
800040d0:	00112623          	sw	ra,12(sp)
800040d4:	ce01a623          	sw	zero,-788(gp) # 800072cc <errno>
800040d8:	96cff0ef          	jal	ra,80003244 <_write>
800040dc:	fff00793          	li	a5,-1
800040e0:	00f50a63          	beq	a0,a5,800040f4 <_write_r+0x40>
800040e4:	00c12083          	lw	ra,12(sp)
800040e8:	00812403          	lw	s0,8(sp)
800040ec:	01010113          	addi	sp,sp,16
800040f0:	00008067          	ret
800040f4:	cec18793          	addi	a5,gp,-788 # 800072cc <errno>
800040f8:	0007a783          	lw	a5,0(a5)
800040fc:	fe0784e3          	beqz	a5,800040e4 <_write_r+0x30>
80004100:	00f42023          	sw	a5,0(s0)
80004104:	00c12083          	lw	ra,12(sp)
80004108:	00812403          	lw	s0,8(sp)
8000410c:	01010113          	addi	sp,sp,16
80004110:	00008067          	ret

80004114 <_sbrk_r>:
_sbrk_r():
80004114:	ff010113          	addi	sp,sp,-16
80004118:	00812423          	sw	s0,8(sp)
8000411c:	00050413          	mv	s0,a0
80004120:	00058513          	mv	a0,a1
80004124:	ce01a623          	sw	zero,-788(gp) # 800072cc <errno>
80004128:	00112623          	sw	ra,12(sp)
8000412c:	c4dfe0ef          	jal	ra,80002d78 <_sbrk>
80004130:	fff00793          	li	a5,-1
80004134:	00f50a63          	beq	a0,a5,80004148 <_sbrk_r+0x34>
80004138:	00c12083          	lw	ra,12(sp)
8000413c:	00812403          	lw	s0,8(sp)
80004140:	01010113          	addi	sp,sp,16
80004144:	00008067          	ret
80004148:	cec18793          	addi	a5,gp,-788 # 800072cc <errno>
8000414c:	0007a783          	lw	a5,0(a5)
80004150:	fe0784e3          	beqz	a5,80004138 <_sbrk_r+0x24>
80004154:	00f42023          	sw	a5,0(s0)
80004158:	00c12083          	lw	ra,12(sp)
8000415c:	00812403          	lw	s0,8(sp)
80004160:	01010113          	addi	sp,sp,16
80004164:	00008067          	ret

80004168 <__udivdi3>:
__udivdi3():
80004168:	00068793          	mv	a5,a3
8000416c:	00060893          	mv	a7,a2
80004170:	00050313          	mv	t1,a0
80004174:	00058813          	mv	a6,a1
80004178:	0c069c63          	bnez	a3,80004250 <__udivdi3+0xe8>
8000417c:	12c5f263          	bleu	a2,a1,800042a0 <__udivdi3+0x138>
80004180:	00010737          	lui	a4,0x10
80004184:	22e66063          	bltu	a2,a4,800043a4 <__udivdi3+0x23c>
80004188:	010007b7          	lui	a5,0x1000
8000418c:	42f66263          	bltu	a2,a5,800045b0 <__udivdi3+0x448>
80004190:	01865693          	srli	a3,a2,0x18
80004194:	01800793          	li	a5,24
80004198:	00003717          	auipc	a4,0x3
8000419c:	af070713          	addi	a4,a4,-1296 # 80006c88 <__clz_tab>
800041a0:	00d70733          	add	a4,a4,a3
800041a4:	00074703          	lbu	a4,0(a4)
800041a8:	00f707b3          	add	a5,a4,a5
800041ac:	02000713          	li	a4,32
800041b0:	40f70733          	sub	a4,a4,a5
800041b4:	00070c63          	beqz	a4,800041cc <__udivdi3+0x64>
800041b8:	00e59833          	sll	a6,a1,a4
800041bc:	00f557b3          	srl	a5,a0,a5
800041c0:	00e618b3          	sll	a7,a2,a4
800041c4:	0107e833          	or	a6,a5,a6
800041c8:	00e51333          	sll	t1,a0,a4
800041cc:	0108d613          	srli	a2,a7,0x10
800041d0:	02c85533          	divu	a0,a6,a2
800041d4:	01089693          	slli	a3,a7,0x10
800041d8:	0106d693          	srli	a3,a3,0x10
800041dc:	01035793          	srli	a5,t1,0x10
800041e0:	02c87733          	remu	a4,a6,a2
800041e4:	02a685b3          	mul	a1,a3,a0
800041e8:	01071713          	slli	a4,a4,0x10
800041ec:	00f76833          	or	a6,a4,a5
800041f0:	00b87c63          	bleu	a1,a6,80004208 <__udivdi3+0xa0>
800041f4:	01180833          	add	a6,a6,a7
800041f8:	fff50793          	addi	a5,a0,-1
800041fc:	01186463          	bltu	a6,a7,80004204 <__udivdi3+0x9c>
80004200:	3eb86c63          	bltu	a6,a1,800045f8 <__udivdi3+0x490>
80004204:	00078513          	mv	a0,a5
80004208:	40b80833          	sub	a6,a6,a1
8000420c:	02c85733          	divu	a4,a6,a2
80004210:	01031313          	slli	t1,t1,0x10
80004214:	01035313          	srli	t1,t1,0x10
80004218:	02c87833          	remu	a6,a6,a2
8000421c:	02e686b3          	mul	a3,a3,a4
80004220:	01081813          	slli	a6,a6,0x10
80004224:	00686833          	or	a6,a6,t1
80004228:	00d87c63          	bleu	a3,a6,80004240 <__udivdi3+0xd8>
8000422c:	01088833          	add	a6,a7,a6
80004230:	fff70793          	addi	a5,a4,-1
80004234:	19186463          	bltu	a6,a7,800043bc <__udivdi3+0x254>
80004238:	ffe70713          	addi	a4,a4,-2
8000423c:	18d87063          	bleu	a3,a6,800043bc <__udivdi3+0x254>
80004240:	01051513          	slli	a0,a0,0x10
80004244:	00e56533          	or	a0,a0,a4
80004248:	00000593          	li	a1,0
8000424c:	00008067          	ret
80004250:	10d5ee63          	bltu	a1,a3,8000436c <__udivdi3+0x204>
80004254:	000107b7          	lui	a5,0x10
80004258:	12f6e063          	bltu	a3,a5,80004378 <__udivdi3+0x210>
8000425c:	010007b7          	lui	a5,0x1000
80004260:	32f6e663          	bltu	a3,a5,8000458c <__udivdi3+0x424>
80004264:	0186d713          	srli	a4,a3,0x18
80004268:	01800813          	li	a6,24
8000426c:	00003797          	auipc	a5,0x3
80004270:	a1c78793          	addi	a5,a5,-1508 # 80006c88 <__clz_tab>
80004274:	00e787b3          	add	a5,a5,a4
80004278:	0007c703          	lbu	a4,0(a5)
8000427c:	02000793          	li	a5,32
80004280:	01070733          	add	a4,a4,a6
80004284:	40e78333          	sub	t1,a5,a4
80004288:	14031263          	bnez	t1,800043cc <__udivdi3+0x264>
8000428c:	32b6e863          	bltu	a3,a1,800045bc <__udivdi3+0x454>
80004290:	00c53533          	sltu	a0,a0,a2
80004294:	00154513          	xori	a0,a0,1
80004298:	00000593          	li	a1,0
8000429c:	00008067          	ret
800042a0:	00061663          	bnez	a2,800042ac <__udivdi3+0x144>
800042a4:	00100713          	li	a4,1
800042a8:	02c758b3          	divu	a7,a4,a2
800042ac:	00010737          	lui	a4,0x10
800042b0:	0ce8ee63          	bltu	a7,a4,8000438c <__udivdi3+0x224>
800042b4:	010007b7          	lui	a5,0x1000
800042b8:	2ef8e663          	bltu	a7,a5,800045a4 <__udivdi3+0x43c>
800042bc:	0188d693          	srli	a3,a7,0x18
800042c0:	01800793          	li	a5,24
800042c4:	00003717          	auipc	a4,0x3
800042c8:	9c470713          	addi	a4,a4,-1596 # 80006c88 <__clz_tab>
800042cc:	00d70733          	add	a4,a4,a3
800042d0:	00074683          	lbu	a3,0(a4)
800042d4:	02000f93          	li	t6,32
800042d8:	00f686b3          	add	a3,a3,a5
800042dc:	40df8fb3          	sub	t6,t6,a3
800042e0:	1c0f9e63          	bnez	t6,800044bc <__udivdi3+0x354>
800042e4:	01089e93          	slli	t4,a7,0x10
800042e8:	41158733          	sub	a4,a1,a7
800042ec:	0108df13          	srli	t5,a7,0x10
800042f0:	010ede93          	srli	t4,t4,0x10
800042f4:	00100593          	li	a1,1
800042f8:	01035793          	srli	a5,t1,0x10
800042fc:	03e75533          	divu	a0,a4,t5
80004300:	03e77733          	remu	a4,a4,t5
80004304:	03d506b3          	mul	a3,a0,t4
80004308:	01071713          	slli	a4,a4,0x10
8000430c:	00f767b3          	or	a5,a4,a5
80004310:	00d7fc63          	bleu	a3,a5,80004328 <__udivdi3+0x1c0>
80004314:	011787b3          	add	a5,a5,a7
80004318:	fff50713          	addi	a4,a0,-1
8000431c:	0117e463          	bltu	a5,a7,80004324 <__udivdi3+0x1bc>
80004320:	2ed7e263          	bltu	a5,a3,80004604 <__udivdi3+0x49c>
80004324:	00070513          	mv	a0,a4
80004328:	40d787b3          	sub	a5,a5,a3
8000432c:	03e7d633          	divu	a2,a5,t5
80004330:	01031313          	slli	t1,t1,0x10
80004334:	01035313          	srli	t1,t1,0x10
80004338:	03e7f7b3          	remu	a5,a5,t5
8000433c:	03d60eb3          	mul	t4,a2,t4
80004340:	01079793          	slli	a5,a5,0x10
80004344:	0067e7b3          	or	a5,a5,t1
80004348:	01d7fc63          	bleu	t4,a5,80004360 <__udivdi3+0x1f8>
8000434c:	00f887b3          	add	a5,a7,a5
80004350:	fff60713          	addi	a4,a2,-1
80004354:	0717e863          	bltu	a5,a7,800043c4 <__udivdi3+0x25c>
80004358:	ffe60613          	addi	a2,a2,-2
8000435c:	07d7f463          	bleu	t4,a5,800043c4 <__udivdi3+0x25c>
80004360:	01051513          	slli	a0,a0,0x10
80004364:	00c56533          	or	a0,a0,a2
80004368:	00008067          	ret
8000436c:	00000593          	li	a1,0
80004370:	00000513          	li	a0,0
80004374:	00008067          	ret
80004378:	0ff00793          	li	a5,255
8000437c:	20d7fe63          	bleu	a3,a5,80004598 <__udivdi3+0x430>
80004380:	0086d713          	srli	a4,a3,0x8
80004384:	00800813          	li	a6,8
80004388:	ee5ff06f          	j	8000426c <__udivdi3+0x104>
8000438c:	0ff00713          	li	a4,255
80004390:	00088693          	mv	a3,a7
80004394:	f31778e3          	bleu	a7,a4,800042c4 <__udivdi3+0x15c>
80004398:	0088d693          	srli	a3,a7,0x8
8000439c:	00800793          	li	a5,8
800043a0:	f25ff06f          	j	800042c4 <__udivdi3+0x15c>
800043a4:	0ff00713          	li	a4,255
800043a8:	00060693          	mv	a3,a2
800043ac:	dec776e3          	bleu	a2,a4,80004198 <__udivdi3+0x30>
800043b0:	00865693          	srli	a3,a2,0x8
800043b4:	00800793          	li	a5,8
800043b8:	de1ff06f          	j	80004198 <__udivdi3+0x30>
800043bc:	00078713          	mv	a4,a5
800043c0:	e81ff06f          	j	80004240 <__udivdi3+0xd8>
800043c4:	00070613          	mv	a2,a4
800043c8:	f99ff06f          	j	80004360 <__udivdi3+0x1f8>
800043cc:	00e657b3          	srl	a5,a2,a4
800043d0:	006696b3          	sll	a3,a3,t1
800043d4:	00d7e6b3          	or	a3,a5,a3
800043d8:	00e5d8b3          	srl	a7,a1,a4
800043dc:	0106df13          	srli	t5,a3,0x10
800043e0:	03e8deb3          	divu	t4,a7,t5
800043e4:	01069e13          	slli	t3,a3,0x10
800043e8:	010e5e13          	srli	t3,t3,0x10
800043ec:	00659833          	sll	a6,a1,t1
800043f0:	00e55733          	srl	a4,a0,a4
800043f4:	01076833          	or	a6,a4,a6
800043f8:	01085793          	srli	a5,a6,0x10
800043fc:	00661633          	sll	a2,a2,t1
80004400:	03e8f8b3          	remu	a7,a7,t5
80004404:	03de05b3          	mul	a1,t3,t4
80004408:	01089893          	slli	a7,a7,0x10
8000440c:	00f8e7b3          	or	a5,a7,a5
80004410:	00b7fa63          	bleu	a1,a5,80004424 <__udivdi3+0x2bc>
80004414:	00d787b3          	add	a5,a5,a3
80004418:	fffe8713          	addi	a4,t4,-1
8000441c:	1ad7fe63          	bleu	a3,a5,800045d8 <__udivdi3+0x470>
80004420:	00070e93          	mv	t4,a4
80004424:	40b787b3          	sub	a5,a5,a1
80004428:	03e7d733          	divu	a4,a5,t5
8000442c:	01081813          	slli	a6,a6,0x10
80004430:	01085813          	srli	a6,a6,0x10
80004434:	03e7f7b3          	remu	a5,a5,t5
80004438:	02ee08b3          	mul	a7,t3,a4
8000443c:	01079793          	slli	a5,a5,0x10
80004440:	0107e5b3          	or	a1,a5,a6
80004444:	0115fa63          	bleu	a7,a1,80004458 <__udivdi3+0x2f0>
80004448:	00d585b3          	add	a1,a1,a3
8000444c:	fff70793          	addi	a5,a4,-1
80004450:	16d5fc63          	bleu	a3,a1,800045c8 <__udivdi3+0x460>
80004454:	00078713          	mv	a4,a5
80004458:	010e9e93          	slli	t4,t4,0x10
8000445c:	00010f37          	lui	t5,0x10
80004460:	00eeeeb3          	or	t4,t4,a4
80004464:	ffff0793          	addi	a5,t5,-1 # ffff <HEAP_SIZE+0xf7ff>
80004468:	00fef733          	and	a4,t4,a5
8000446c:	010ed813          	srli	a6,t4,0x10
80004470:	00f677b3          	and	a5,a2,a5
80004474:	01065613          	srli	a2,a2,0x10
80004478:	02f70e33          	mul	t3,a4,a5
8000447c:	411585b3          	sub	a1,a1,a7
80004480:	02c70733          	mul	a4,a4,a2
80004484:	010e5693          	srli	a3,t3,0x10
80004488:	02f807b3          	mul	a5,a6,a5
8000448c:	00f70733          	add	a4,a4,a5
80004490:	00e68733          	add	a4,a3,a4
80004494:	02c80633          	mul	a2,a6,a2
80004498:	00f77463          	bleu	a5,a4,800044a0 <__udivdi3+0x338>
8000449c:	01e60633          	add	a2,a2,t5
800044a0:	01075813          	srli	a6,a4,0x10
800044a4:	00c80633          	add	a2,a6,a2
800044a8:	0cc5ec63          	bltu	a1,a2,80004580 <__udivdi3+0x418>
800044ac:	0ac58a63          	beq	a1,a2,80004560 <__udivdi3+0x3f8>
800044b0:	000e8513          	mv	a0,t4
800044b4:	00000593          	li	a1,0
800044b8:	00008067          	ret
800044bc:	01f898b3          	sll	a7,a7,t6
800044c0:	00d5d633          	srl	a2,a1,a3
800044c4:	0108df13          	srli	t5,a7,0x10
800044c8:	03e65e33          	divu	t3,a2,t5
800044cc:	00d557b3          	srl	a5,a0,a3
800044d0:	01089e93          	slli	t4,a7,0x10
800044d4:	01f59733          	sll	a4,a1,t6
800044d8:	010ede93          	srli	t4,t4,0x10
800044dc:	00e7e733          	or	a4,a5,a4
800044e0:	01075593          	srli	a1,a4,0x10
800044e4:	01f51333          	sll	t1,a0,t6
800044e8:	03e676b3          	remu	a3,a2,t5
800044ec:	03ce87b3          	mul	a5,t4,t3
800044f0:	01069693          	slli	a3,a3,0x10
800044f4:	00b6e6b3          	or	a3,a3,a1
800044f8:	00f6fe63          	bleu	a5,a3,80004514 <__udivdi3+0x3ac>
800044fc:	011686b3          	add	a3,a3,a7
80004500:	fffe0613          	addi	a2,t3,-1
80004504:	0f16e663          	bltu	a3,a7,800045f0 <__udivdi3+0x488>
80004508:	0ef6f463          	bleu	a5,a3,800045f0 <__udivdi3+0x488>
8000450c:	ffee0e13          	addi	t3,t3,-2
80004510:	011686b3          	add	a3,a3,a7
80004514:	40f686b3          	sub	a3,a3,a5
80004518:	03e6d7b3          	divu	a5,a3,t5
8000451c:	01071813          	slli	a6,a4,0x10
80004520:	01085813          	srli	a6,a6,0x10
80004524:	03e6f6b3          	remu	a3,a3,t5
80004528:	02fe8633          	mul	a2,t4,a5
8000452c:	01069713          	slli	a4,a3,0x10
80004530:	01076733          	or	a4,a4,a6
80004534:	00c77e63          	bleu	a2,a4,80004550 <__udivdi3+0x3e8>
80004538:	01170733          	add	a4,a4,a7
8000453c:	fff78693          	addi	a3,a5,-1 # ffffff <RAM_SIZE+0xfeffff>
80004540:	0b176463          	bltu	a4,a7,800045e8 <__udivdi3+0x480>
80004544:	0ac77263          	bleu	a2,a4,800045e8 <__udivdi3+0x480>
80004548:	ffe78793          	addi	a5,a5,-2
8000454c:	01170733          	add	a4,a4,a7
80004550:	010e1593          	slli	a1,t3,0x10
80004554:	40c70733          	sub	a4,a4,a2
80004558:	00f5e5b3          	or	a1,a1,a5
8000455c:	d9dff06f          	j	800042f8 <__udivdi3+0x190>
80004560:	000107b7          	lui	a5,0x10
80004564:	fff78793          	addi	a5,a5,-1 # ffff <HEAP_SIZE+0xf7ff>
80004568:	00f77733          	and	a4,a4,a5
8000456c:	00fe7e33          	and	t3,t3,a5
80004570:	01071713          	slli	a4,a4,0x10
80004574:	006517b3          	sll	a5,a0,t1
80004578:	01c70733          	add	a4,a4,t3
8000457c:	f2e7fae3          	bleu	a4,a5,800044b0 <__udivdi3+0x348>
80004580:	fffe8513          	addi	a0,t4,-1
80004584:	00000593          	li	a1,0
80004588:	00008067          	ret
8000458c:	0106d713          	srli	a4,a3,0x10
80004590:	01000813          	li	a6,16
80004594:	cd9ff06f          	j	8000426c <__udivdi3+0x104>
80004598:	00068713          	mv	a4,a3
8000459c:	00000813          	li	a6,0
800045a0:	ccdff06f          	j	8000426c <__udivdi3+0x104>
800045a4:	0108d693          	srli	a3,a7,0x10
800045a8:	01000793          	li	a5,16
800045ac:	d19ff06f          	j	800042c4 <__udivdi3+0x15c>
800045b0:	01065693          	srli	a3,a2,0x10
800045b4:	01000793          	li	a5,16
800045b8:	be1ff06f          	j	80004198 <__udivdi3+0x30>
800045bc:	00000593          	li	a1,0
800045c0:	00100513          	li	a0,1
800045c4:	00008067          	ret
800045c8:	e915f6e3          	bleu	a7,a1,80004454 <__udivdi3+0x2ec>
800045cc:	ffe70713          	addi	a4,a4,-2
800045d0:	00d585b3          	add	a1,a1,a3
800045d4:	e85ff06f          	j	80004458 <__udivdi3+0x2f0>
800045d8:	e4b7f4e3          	bleu	a1,a5,80004420 <__udivdi3+0x2b8>
800045dc:	ffee8e93          	addi	t4,t4,-2
800045e0:	00d787b3          	add	a5,a5,a3
800045e4:	e41ff06f          	j	80004424 <__udivdi3+0x2bc>
800045e8:	00068793          	mv	a5,a3
800045ec:	f65ff06f          	j	80004550 <__udivdi3+0x3e8>
800045f0:	00060e13          	mv	t3,a2
800045f4:	f21ff06f          	j	80004514 <__udivdi3+0x3ac>
800045f8:	ffe50513          	addi	a0,a0,-2
800045fc:	01180833          	add	a6,a6,a7
80004600:	c09ff06f          	j	80004208 <__udivdi3+0xa0>
80004604:	ffe50513          	addi	a0,a0,-2
80004608:	011787b3          	add	a5,a5,a7
8000460c:	d1dff06f          	j	80004328 <__udivdi3+0x1c0>

80004610 <__umoddi3>:
__umoddi3():
80004610:	00068793          	mv	a5,a3
80004614:	00060813          	mv	a6,a2
80004618:	00050313          	mv	t1,a0
8000461c:	00058e13          	mv	t3,a1
80004620:	0c069863          	bnez	a3,800046f0 <__umoddi3+0xe0>
80004624:	12c5f863          	bleu	a2,a1,80004754 <__umoddi3+0x144>
80004628:	00010737          	lui	a4,0x10
8000462c:	1ee67e63          	bleu	a4,a2,80004828 <__umoddi3+0x218>
80004630:	0ff00713          	li	a4,255
80004634:	00060693          	mv	a3,a2
80004638:	00c77663          	bleu	a2,a4,80004644 <__umoddi3+0x34>
8000463c:	00865693          	srli	a3,a2,0x8
80004640:	00800793          	li	a5,8
80004644:	00002717          	auipc	a4,0x2
80004648:	64470713          	addi	a4,a4,1604 # 80006c88 <__clz_tab>
8000464c:	00d70733          	add	a4,a4,a3
80004650:	00074683          	lbu	a3,0(a4)
80004654:	02000893          	li	a7,32
80004658:	00f687b3          	add	a5,a3,a5
8000465c:	40f888b3          	sub	a7,a7,a5
80004660:	00088c63          	beqz	a7,80004678 <__umoddi3+0x68>
80004664:	011595b3          	sll	a1,a1,a7
80004668:	00f557b3          	srl	a5,a0,a5
8000466c:	01161833          	sll	a6,a2,a7
80004670:	00b7ee33          	or	t3,a5,a1
80004674:	01151333          	sll	t1,a0,a7
80004678:	01085613          	srli	a2,a6,0x10
8000467c:	02ce57b3          	divu	a5,t3,a2
80004680:	01081513          	slli	a0,a6,0x10
80004684:	01055513          	srli	a0,a0,0x10
80004688:	01035713          	srli	a4,t1,0x10
8000468c:	02ce76b3          	remu	a3,t3,a2
80004690:	02f507b3          	mul	a5,a0,a5
80004694:	01069693          	slli	a3,a3,0x10
80004698:	00e6e733          	or	a4,a3,a4
8000469c:	00f77863          	bleu	a5,a4,800046ac <__umoddi3+0x9c>
800046a0:	01070733          	add	a4,a4,a6
800046a4:	01076463          	bltu	a4,a6,800046ac <__umoddi3+0x9c>
800046a8:	3af76863          	bltu	a4,a5,80004a58 <__umoddi3+0x448>
800046ac:	40f70733          	sub	a4,a4,a5
800046b0:	02c756b3          	divu	a3,a4,a2
800046b4:	01031793          	slli	a5,t1,0x10
800046b8:	0107d793          	srli	a5,a5,0x10
800046bc:	02c77733          	remu	a4,a4,a2
800046c0:	02d50533          	mul	a0,a0,a3
800046c4:	01071713          	slli	a4,a4,0x10
800046c8:	00f767b3          	or	a5,a4,a5
800046cc:	00a7fa63          	bleu	a0,a5,800046e0 <__umoddi3+0xd0>
800046d0:	010787b3          	add	a5,a5,a6
800046d4:	0107e663          	bltu	a5,a6,800046e0 <__umoddi3+0xd0>
800046d8:	00a7f463          	bleu	a0,a5,800046e0 <__umoddi3+0xd0>
800046dc:	010787b3          	add	a5,a5,a6
800046e0:	40a78533          	sub	a0,a5,a0
800046e4:	01155533          	srl	a0,a0,a7
800046e8:	00000593          	li	a1,0
800046ec:	00008067          	ret
800046f0:	fed5eee3          	bltu	a1,a3,800046ec <__umoddi3+0xdc>
800046f4:	000107b7          	lui	a5,0x10
800046f8:	10f6e263          	bltu	a3,a5,800047fc <__umoddi3+0x1ec>
800046fc:	010007b7          	lui	a5,0x1000
80004700:	30f6e463          	bltu	a3,a5,80004a08 <__umoddi3+0x3f8>
80004704:	0186d813          	srli	a6,a3,0x18
80004708:	01800713          	li	a4,24
8000470c:	00002797          	auipc	a5,0x2
80004710:	57c78793          	addi	a5,a5,1404 # 80006c88 <__clz_tab>
80004714:	010787b3          	add	a5,a5,a6
80004718:	0007ce83          	lbu	t4,0(a5)
8000471c:	02000313          	li	t1,32
80004720:	00ee8eb3          	add	t4,t4,a4
80004724:	41d30333          	sub	t1,t1,t4
80004728:	10031a63          	bnez	t1,8000483c <__umoddi3+0x22c>
8000472c:	00b6e663          	bltu	a3,a1,80004738 <__umoddi3+0x128>
80004730:	00050813          	mv	a6,a0
80004734:	00c56a63          	bltu	a0,a2,80004748 <__umoddi3+0x138>
80004738:	40c50833          	sub	a6,a0,a2
8000473c:	40d585b3          	sub	a1,a1,a3
80004740:	010536b3          	sltu	a3,a0,a6
80004744:	40d58e33          	sub	t3,a1,a3
80004748:	00080513          	mv	a0,a6
8000474c:	000e0593          	mv	a1,t3
80004750:	00008067          	ret
80004754:	00061663          	bnez	a2,80004760 <__umoddi3+0x150>
80004758:	00100713          	li	a4,1
8000475c:	02c75833          	divu	a6,a4,a2
80004760:	00010737          	lui	a4,0x10
80004764:	0ae86663          	bltu	a6,a4,80004810 <__umoddi3+0x200>
80004768:	010007b7          	lui	a5,0x1000
8000476c:	2af86a63          	bltu	a6,a5,80004a20 <__umoddi3+0x410>
80004770:	01885693          	srli	a3,a6,0x18
80004774:	01800793          	li	a5,24
80004778:	00002717          	auipc	a4,0x2
8000477c:	51070713          	addi	a4,a4,1296 # 80006c88 <__clz_tab>
80004780:	00d70733          	add	a4,a4,a3
80004784:	00074703          	lbu	a4,0(a4)
80004788:	02000893          	li	a7,32
8000478c:	00f707b3          	add	a5,a4,a5
80004790:	40f888b3          	sub	a7,a7,a5
80004794:	1a089a63          	bnez	a7,80004948 <__umoddi3+0x338>
80004798:	01081e13          	slli	t3,a6,0x10
8000479c:	410585b3          	sub	a1,a1,a6
800047a0:	01085613          	srli	a2,a6,0x10
800047a4:	010e5e13          	srli	t3,t3,0x10
800047a8:	01035713          	srli	a4,t1,0x10
800047ac:	02c5d6b3          	divu	a3,a1,a2
800047b0:	02c5f5b3          	remu	a1,a1,a2
800047b4:	03c686b3          	mul	a3,a3,t3
800047b8:	01059593          	slli	a1,a1,0x10
800047bc:	00e5e733          	or	a4,a1,a4
800047c0:	00d77a63          	bleu	a3,a4,800047d4 <__umoddi3+0x1c4>
800047c4:	01070733          	add	a4,a4,a6
800047c8:	01076663          	bltu	a4,a6,800047d4 <__umoddi3+0x1c4>
800047cc:	00d77463          	bleu	a3,a4,800047d4 <__umoddi3+0x1c4>
800047d0:	01070733          	add	a4,a4,a6
800047d4:	40d70733          	sub	a4,a4,a3
800047d8:	02c75533          	divu	a0,a4,a2
800047dc:	01031313          	slli	t1,t1,0x10
800047e0:	01035313          	srli	t1,t1,0x10
800047e4:	02c77733          	remu	a4,a4,a2
800047e8:	03c50533          	mul	a0,a0,t3
800047ec:	01071713          	slli	a4,a4,0x10
800047f0:	006767b3          	or	a5,a4,t1
800047f4:	eea7f6e3          	bleu	a0,a5,800046e0 <__umoddi3+0xd0>
800047f8:	ed9ff06f          	j	800046d0 <__umoddi3+0xc0>
800047fc:	0ff00793          	li	a5,255
80004800:	20d7fa63          	bleu	a3,a5,80004a14 <__umoddi3+0x404>
80004804:	0086d813          	srli	a6,a3,0x8
80004808:	00800713          	li	a4,8
8000480c:	f01ff06f          	j	8000470c <__umoddi3+0xfc>
80004810:	0ff00713          	li	a4,255
80004814:	00080693          	mv	a3,a6
80004818:	f70770e3          	bleu	a6,a4,80004778 <__umoddi3+0x168>
8000481c:	00885693          	srli	a3,a6,0x8
80004820:	00800793          	li	a5,8
80004824:	f55ff06f          	j	80004778 <__umoddi3+0x168>
80004828:	010007b7          	lui	a5,0x1000
8000482c:	20f66063          	bltu	a2,a5,80004a2c <__umoddi3+0x41c>
80004830:	01865693          	srli	a3,a2,0x18
80004834:	01800793          	li	a5,24
80004838:	e0dff06f          	j	80004644 <__umoddi3+0x34>
8000483c:	01d658b3          	srl	a7,a2,t4
80004840:	006696b3          	sll	a3,a3,t1
80004844:	00d8e6b3          	or	a3,a7,a3
80004848:	01d5d833          	srl	a6,a1,t4
8000484c:	0106d713          	srli	a4,a3,0x10
80004850:	02e858b3          	divu	a7,a6,a4
80004854:	01069f13          	slli	t5,a3,0x10
80004858:	010f5f13          	srli	t5,t5,0x10
8000485c:	01d557b3          	srl	a5,a0,t4
80004860:	006595b3          	sll	a1,a1,t1
80004864:	00b7e5b3          	or	a1,a5,a1
80004868:	0105df93          	srli	t6,a1,0x10
8000486c:	006617b3          	sll	a5,a2,t1
80004870:	00651533          	sll	a0,a0,t1
80004874:	02e87833          	remu	a6,a6,a4
80004878:	031f0e33          	mul	t3,t5,a7
8000487c:	01081813          	slli	a6,a6,0x10
80004880:	01f86633          	or	a2,a6,t6
80004884:	01c67a63          	bleu	t3,a2,80004898 <__umoddi3+0x288>
80004888:	00d60633          	add	a2,a2,a3
8000488c:	fff88813          	addi	a6,a7,-1
80004890:	1ad67c63          	bleu	a3,a2,80004a48 <__umoddi3+0x438>
80004894:	00080893          	mv	a7,a6
80004898:	41c60633          	sub	a2,a2,t3
8000489c:	02e65833          	divu	a6,a2,a4
800048a0:	01059593          	slli	a1,a1,0x10
800048a4:	0105d593          	srli	a1,a1,0x10
800048a8:	02e67633          	remu	a2,a2,a4
800048ac:	030f0f33          	mul	t5,t5,a6
800048b0:	01061713          	slli	a4,a2,0x10
800048b4:	00b76733          	or	a4,a4,a1
800048b8:	01e77a63          	bleu	t5,a4,800048cc <__umoddi3+0x2bc>
800048bc:	00d70733          	add	a4,a4,a3
800048c0:	fff80613          	addi	a2,a6,-1
800048c4:	16d77a63          	bleu	a3,a4,80004a38 <__umoddi3+0x428>
800048c8:	00060813          	mv	a6,a2
800048cc:	01089893          	slli	a7,a7,0x10
800048d0:	000102b7          	lui	t0,0x10
800048d4:	0108e8b3          	or	a7,a7,a6
800048d8:	fff28813          	addi	a6,t0,-1 # ffff <HEAP_SIZE+0xf7ff>
800048dc:	0108fe33          	and	t3,a7,a6
800048e0:	0107d593          	srli	a1,a5,0x10
800048e4:	0108d893          	srli	a7,a7,0x10
800048e8:	0107f833          	and	a6,a5,a6
800048ec:	030e0fb3          	mul	t6,t3,a6
800048f0:	41e70733          	sub	a4,a4,t5
800048f4:	03088833          	mul	a6,a7,a6
800048f8:	010fd613          	srli	a2,t6,0x10
800048fc:	02be0e33          	mul	t3,t3,a1
80004900:	010e0e33          	add	t3,t3,a6
80004904:	01c60633          	add	a2,a2,t3
80004908:	02b888b3          	mul	a7,a7,a1
8000490c:	01067463          	bleu	a6,a2,80004914 <__umoddi3+0x304>
80004910:	005888b3          	add	a7,a7,t0
80004914:	00010837          	lui	a6,0x10
80004918:	fff80813          	addi	a6,a6,-1 # ffff <HEAP_SIZE+0xf7ff>
8000491c:	01065593          	srli	a1,a2,0x10
80004920:	01067633          	and	a2,a2,a6
80004924:	01061613          	slli	a2,a2,0x10
80004928:	010fffb3          	and	t6,t6,a6
8000492c:	011588b3          	add	a7,a1,a7
80004930:	01f60633          	add	a2,a2,t6
80004934:	0b176063          	bltu	a4,a7,800049d4 <__umoddi3+0x3c4>
80004938:	13170463          	beq	a4,a7,80004a60 <__umoddi3+0x450>
8000493c:	411705b3          	sub	a1,a4,a7
80004940:	00060793          	mv	a5,a2
80004944:	0a40006f          	j	800049e8 <__umoddi3+0x3d8>
80004948:	01181833          	sll	a6,a6,a7
8000494c:	00f5d733          	srl	a4,a1,a5
80004950:	01085613          	srli	a2,a6,0x10
80004954:	02c756b3          	divu	a3,a4,a2
80004958:	01081e13          	slli	t3,a6,0x10
8000495c:	00f557b3          	srl	a5,a0,a5
80004960:	010e5e13          	srli	t3,t3,0x10
80004964:	011595b3          	sll	a1,a1,a7
80004968:	00b7e5b3          	or	a1,a5,a1
8000496c:	0105de93          	srli	t4,a1,0x10
80004970:	01151333          	sll	t1,a0,a7
80004974:	02c77733          	remu	a4,a4,a2
80004978:	02de07b3          	mul	a5,t3,a3
8000497c:	01071693          	slli	a3,a4,0x10
80004980:	01d6e6b3          	or	a3,a3,t4
80004984:	00f6fa63          	bleu	a5,a3,80004998 <__umoddi3+0x388>
80004988:	010686b3          	add	a3,a3,a6
8000498c:	0106e663          	bltu	a3,a6,80004998 <__umoddi3+0x388>
80004990:	00f6f463          	bleu	a5,a3,80004998 <__umoddi3+0x388>
80004994:	010686b3          	add	a3,a3,a6
80004998:	40f686b3          	sub	a3,a3,a5
8000499c:	02c6d733          	divu	a4,a3,a2
800049a0:	01059793          	slli	a5,a1,0x10
800049a4:	0107d793          	srli	a5,a5,0x10
800049a8:	02c6f6b3          	remu	a3,a3,a2
800049ac:	02ee0733          	mul	a4,t3,a4
800049b0:	01069593          	slli	a1,a3,0x10
800049b4:	00f5e5b3          	or	a1,a1,a5
800049b8:	00e5fa63          	bleu	a4,a1,800049cc <__umoddi3+0x3bc>
800049bc:	010585b3          	add	a1,a1,a6
800049c0:	0105e663          	bltu	a1,a6,800049cc <__umoddi3+0x3bc>
800049c4:	00e5f463          	bleu	a4,a1,800049cc <__umoddi3+0x3bc>
800049c8:	010585b3          	add	a1,a1,a6
800049cc:	40e585b3          	sub	a1,a1,a4
800049d0:	dd9ff06f          	j	800047a8 <__umoddi3+0x198>
800049d4:	40f607b3          	sub	a5,a2,a5
800049d8:	40d885b3          	sub	a1,a7,a3
800049dc:	00f63633          	sltu	a2,a2,a5
800049e0:	40c585b3          	sub	a1,a1,a2
800049e4:	40b705b3          	sub	a1,a4,a1
800049e8:	40f507b3          	sub	a5,a0,a5
800049ec:	00f53533          	sltu	a0,a0,a5
800049f0:	40a585b3          	sub	a1,a1,a0
800049f4:	01d59eb3          	sll	t4,a1,t4
800049f8:	0067d533          	srl	a0,a5,t1
800049fc:	00aee533          	or	a0,t4,a0
80004a00:	0065d5b3          	srl	a1,a1,t1
80004a04:	00008067          	ret
80004a08:	0106d813          	srli	a6,a3,0x10
80004a0c:	01000713          	li	a4,16
80004a10:	cfdff06f          	j	8000470c <__umoddi3+0xfc>
80004a14:	00068813          	mv	a6,a3
80004a18:	00000713          	li	a4,0
80004a1c:	cf1ff06f          	j	8000470c <__umoddi3+0xfc>
80004a20:	01085693          	srli	a3,a6,0x10
80004a24:	01000793          	li	a5,16
80004a28:	d51ff06f          	j	80004778 <__umoddi3+0x168>
80004a2c:	01065693          	srli	a3,a2,0x10
80004a30:	01000793          	li	a5,16
80004a34:	c11ff06f          	j	80004644 <__umoddi3+0x34>
80004a38:	e9e778e3          	bleu	t5,a4,800048c8 <__umoddi3+0x2b8>
80004a3c:	ffe80813          	addi	a6,a6,-2
80004a40:	00d70733          	add	a4,a4,a3
80004a44:	e89ff06f          	j	800048cc <__umoddi3+0x2bc>
80004a48:	e5c676e3          	bleu	t3,a2,80004894 <__umoddi3+0x284>
80004a4c:	ffe88893          	addi	a7,a7,-2
80004a50:	00d60633          	add	a2,a2,a3
80004a54:	e45ff06f          	j	80004898 <__umoddi3+0x288>
80004a58:	01070733          	add	a4,a4,a6
80004a5c:	c51ff06f          	j	800046ac <__umoddi3+0x9c>
80004a60:	f6c56ae3          	bltu	a0,a2,800049d4 <__umoddi3+0x3c4>
80004a64:	00060793          	mv	a5,a2
80004a68:	00000593          	li	a1,0
80004a6c:	f7dff06f          	j	800049e8 <__umoddi3+0x3d8>

80004a70 <__divdf3>:
__divdf3():
80004a70:	fc010113          	addi	sp,sp,-64
80004a74:	02812c23          	sw	s0,56(sp)
80004a78:	02912a23          	sw	s1,52(sp)
80004a7c:	0145d413          	srli	s0,a1,0x14
80004a80:	001004b7          	lui	s1,0x100
80004a84:	03212823          	sw	s2,48(sp)
80004a88:	03412423          	sw	s4,40(sp)
80004a8c:	fff48493          	addi	s1,s1,-1 # fffff <RAM_SIZE+0xeffff>
80004a90:	02112e23          	sw	ra,60(sp)
80004a94:	03312623          	sw	s3,44(sp)
80004a98:	03512223          	sw	s5,36(sp)
80004a9c:	03612023          	sw	s6,32(sp)
80004aa0:	01712e23          	sw	s7,28(sp)
80004aa4:	7ff47413          	andi	s0,s0,2047
80004aa8:	00050913          	mv	s2,a0
80004aac:	00b4f4b3          	and	s1,s1,a1
80004ab0:	01f5da13          	srli	s4,a1,0x1f
80004ab4:	1a040863          	beqz	s0,80004c64 <__divdf3+0x1f4>
80004ab8:	7ff00793          	li	a5,2047
80004abc:	0af40063          	beq	s0,a5,80004b5c <__divdf3+0xec>
80004ac0:	00349493          	slli	s1,s1,0x3
80004ac4:	008007b7          	lui	a5,0x800
80004ac8:	00f4e4b3          	or	s1,s1,a5
80004acc:	01d55b93          	srli	s7,a0,0x1d
80004ad0:	009bebb3          	or	s7,s7,s1
80004ad4:	00351b13          	slli	s6,a0,0x3
80004ad8:	c0140413          	addi	s0,s0,-1023
80004adc:	00000993          	li	s3,0
80004ae0:	00000493          	li	s1,0
80004ae4:	0146d513          	srli	a0,a3,0x14
80004ae8:	00100937          	lui	s2,0x100
80004aec:	fff90913          	addi	s2,s2,-1 # fffff <RAM_SIZE+0xeffff>
80004af0:	7ff57513          	andi	a0,a0,2047
80004af4:	00060813          	mv	a6,a2
80004af8:	00d97933          	and	s2,s2,a3
80004afc:	01f6da93          	srli	s5,a3,0x1f
80004b00:	08050a63          	beqz	a0,80004b94 <__divdf3+0x124>
80004b04:	7ff00793          	li	a5,2047
80004b08:	1af50e63          	beq	a0,a5,80004cc4 <__divdf3+0x254>
80004b0c:	00800737          	lui	a4,0x800
80004b10:	00391913          	slli	s2,s2,0x3
80004b14:	00e96933          	or	s2,s2,a4
80004b18:	c0150513          	addi	a0,a0,-1023
80004b1c:	01d65713          	srli	a4,a2,0x1d
80004b20:	40a40433          	sub	s0,s0,a0
80004b24:	01276733          	or	a4,a4,s2
80004b28:	00361813          	slli	a6,a2,0x3
80004b2c:	00000513          	li	a0,0
80004b30:	015a4633          	xor	a2,s4,s5
80004b34:	00f00793          	li	a5,15
80004b38:	00060593          	mv	a1,a2
80004b3c:	2737e663          	bltu	a5,s3,80004da8 <__divdf3+0x338>
80004b40:	00002697          	auipc	a3,0x2
80004b44:	04868693          	addi	a3,a3,72 # 80006b88 <__clzsi2+0x854>
80004b48:	00299993          	slli	s3,s3,0x2
80004b4c:	00d989b3          	add	s3,s3,a3
80004b50:	0009a783          	lw	a5,0(s3)
80004b54:	00d787b3          	add	a5,a5,a3
80004b58:	00078067          	jr	a5
80004b5c:	00a4ebb3          	or	s7,s1,a0
80004b60:	1a0b9263          	bnez	s7,80004d04 <__divdf3+0x294>
80004b64:	0146d513          	srli	a0,a3,0x14
80004b68:	00100937          	lui	s2,0x100
80004b6c:	fff90913          	addi	s2,s2,-1 # fffff <RAM_SIZE+0xeffff>
80004b70:	7ff57513          	andi	a0,a0,2047
80004b74:	00800993          	li	s3,8
80004b78:	00000b13          	li	s6,0
80004b7c:	7ff00413          	li	s0,2047
80004b80:	00200493          	li	s1,2
80004b84:	00060813          	mv	a6,a2
80004b88:	00d97933          	and	s2,s2,a3
80004b8c:	01f6da93          	srli	s5,a3,0x1f
80004b90:	f6051ae3          	bnez	a0,80004b04 <__divdf3+0x94>
80004b94:	00c96733          	or	a4,s2,a2
80004b98:	14070463          	beqz	a4,80004ce0 <__divdf3+0x270>
80004b9c:	46090a63          	beqz	s2,80005010 <__divdf3+0x5a0>
80004ba0:	00090513          	mv	a0,s2
80004ba4:	00c12423          	sw	a2,8(sp)
80004ba8:	78c010ef          	jal	ra,80006334 <__clzsi2>
80004bac:	00812603          	lw	a2,8(sp)
80004bb0:	ff550793          	addi	a5,a0,-11
80004bb4:	01c00713          	li	a4,28
80004bb8:	44f74463          	blt	a4,a5,80005000 <__divdf3+0x590>
80004bbc:	01d00713          	li	a4,29
80004bc0:	ff850813          	addi	a6,a0,-8
80004bc4:	40f70733          	sub	a4,a4,a5
80004bc8:	01091933          	sll	s2,s2,a6
80004bcc:	00e65733          	srl	a4,a2,a4
80004bd0:	01276733          	or	a4,a4,s2
80004bd4:	01061833          	sll	a6,a2,a6
80004bd8:	00a40433          	add	s0,s0,a0
80004bdc:	3f340413          	addi	s0,s0,1011
80004be0:	00000513          	li	a0,0
80004be4:	f4dff06f          	j	80004b30 <__divdf3+0xc0>
80004be8:	7ff00693          	li	a3,2047
80004bec:	00000793          	li	a5,0
80004bf0:	00000813          	li	a6,0
80004bf4:	00100737          	lui	a4,0x100
80004bf8:	fff70713          	addi	a4,a4,-1 # fffff <RAM_SIZE+0xeffff>
80004bfc:	00e7f7b3          	and	a5,a5,a4
80004c00:	80100737          	lui	a4,0x80100
80004c04:	fff70713          	addi	a4,a4,-1 # 800fffff <__stack_top+0xf552f>
80004c08:	03c12083          	lw	ra,60(sp)
80004c0c:	03812403          	lw	s0,56(sp)
80004c10:	01469693          	slli	a3,a3,0x14
80004c14:	00e7f7b3          	and	a5,a5,a4
80004c18:	01f61613          	slli	a2,a2,0x1f
80004c1c:	00d7e7b3          	or	a5,a5,a3
80004c20:	00c7e7b3          	or	a5,a5,a2
80004c24:	03412483          	lw	s1,52(sp)
80004c28:	03012903          	lw	s2,48(sp)
80004c2c:	02c12983          	lw	s3,44(sp)
80004c30:	02812a03          	lw	s4,40(sp)
80004c34:	02412a83          	lw	s5,36(sp)
80004c38:	02012b03          	lw	s6,32(sp)
80004c3c:	01c12b83          	lw	s7,28(sp)
80004c40:	00080513          	mv	a0,a6
80004c44:	00078593          	mv	a1,a5
80004c48:	04010113          	addi	sp,sp,64
80004c4c:	00008067          	ret
80004c50:	00000613          	li	a2,0
80004c54:	7ff00693          	li	a3,2047
80004c58:	000807b7          	lui	a5,0x80
80004c5c:	00000813          	li	a6,0
80004c60:	f95ff06f          	j	80004bf4 <__divdf3+0x184>
80004c64:	00a4ebb3          	or	s7,s1,a0
80004c68:	080b8463          	beqz	s7,80004cf0 <__divdf3+0x280>
80004c6c:	00d12623          	sw	a3,12(sp)
80004c70:	00c12423          	sw	a2,8(sp)
80004c74:	36048c63          	beqz	s1,80004fec <__divdf3+0x57c>
80004c78:	00048513          	mv	a0,s1
80004c7c:	6b8010ef          	jal	ra,80006334 <__clzsi2>
80004c80:	00812603          	lw	a2,8(sp)
80004c84:	00c12683          	lw	a3,12(sp)
80004c88:	ff550793          	addi	a5,a0,-11
80004c8c:	01c00713          	li	a4,28
80004c90:	34f74663          	blt	a4,a5,80004fdc <__divdf3+0x56c>
80004c94:	01d00b93          	li	s7,29
80004c98:	ff850b13          	addi	s6,a0,-8
80004c9c:	40fb8bb3          	sub	s7,s7,a5
80004ca0:	016494b3          	sll	s1,s1,s6
80004ca4:	01795bb3          	srl	s7,s2,s7
80004ca8:	009bebb3          	or	s7,s7,s1
80004cac:	01691b33          	sll	s6,s2,s6
80004cb0:	c0d00413          	li	s0,-1011
80004cb4:	40a40433          	sub	s0,s0,a0
80004cb8:	00000993          	li	s3,0
80004cbc:	00000493          	li	s1,0
80004cc0:	e25ff06f          	j	80004ae4 <__divdf3+0x74>
80004cc4:	00c96733          	or	a4,s2,a2
80004cc8:	80140413          	addi	s0,s0,-2047
80004ccc:	04071863          	bnez	a4,80004d1c <__divdf3+0x2ac>
80004cd0:	0029e993          	ori	s3,s3,2
80004cd4:	00000813          	li	a6,0
80004cd8:	00200513          	li	a0,2
80004cdc:	e55ff06f          	j	80004b30 <__divdf3+0xc0>
80004ce0:	0019e993          	ori	s3,s3,1
80004ce4:	00000813          	li	a6,0
80004ce8:	00100513          	li	a0,1
80004cec:	e45ff06f          	j	80004b30 <__divdf3+0xc0>
80004cf0:	00400993          	li	s3,4
80004cf4:	00000b13          	li	s6,0
80004cf8:	00000413          	li	s0,0
80004cfc:	00100493          	li	s1,1
80004d00:	de5ff06f          	j	80004ae4 <__divdf3+0x74>
80004d04:	00048b93          	mv	s7,s1
80004d08:	00050b13          	mv	s6,a0
80004d0c:	00c00993          	li	s3,12
80004d10:	7ff00413          	li	s0,2047
80004d14:	00300493          	li	s1,3
80004d18:	dcdff06f          	j	80004ae4 <__divdf3+0x74>
80004d1c:	0039e993          	ori	s3,s3,3
80004d20:	00090713          	mv	a4,s2
80004d24:	00300513          	li	a0,3
80004d28:	e09ff06f          	j	80004b30 <__divdf3+0xc0>
80004d2c:	00000693          	li	a3,0
80004d30:	00000793          	li	a5,0
80004d34:	00000813          	li	a6,0
80004d38:	ebdff06f          	j	80004bf4 <__divdf3+0x184>
80004d3c:	000a8593          	mv	a1,s5
80004d40:	00200793          	li	a5,2
80004d44:	50f50463          	beq	a0,a5,8000524c <__divdf3+0x7dc>
80004d48:	00300793          	li	a5,3
80004d4c:	f0f502e3          	beq	a0,a5,80004c50 <__divdf3+0x1e0>
80004d50:	00100793          	li	a5,1
80004d54:	4cf50c63          	beq	a0,a5,8000522c <__divdf3+0x7bc>
80004d58:	3ff40693          	addi	a3,s0,1023
80004d5c:	30d05e63          	blez	a3,80005078 <__divdf3+0x608>
80004d60:	00787793          	andi	a5,a6,7
80004d64:	3a079863          	bnez	a5,80005114 <__divdf3+0x6a4>
80004d68:	00385513          	srli	a0,a6,0x3
80004d6c:	00771793          	slli	a5,a4,0x7
80004d70:	0007da63          	bgez	a5,80004d84 <__divdf3+0x314>
80004d74:	ff0007b7          	lui	a5,0xff000
80004d78:	fff78793          	addi	a5,a5,-1 # feffffff <__stack_top+0x7eff552f>
80004d7c:	00f77733          	and	a4,a4,a5
80004d80:	40040693          	addi	a3,s0,1024
80004d84:	7fe00793          	li	a5,2046
80004d88:	00058613          	mv	a2,a1
80004d8c:	e4d7cee3          	blt	a5,a3,80004be8 <__divdf3+0x178>
80004d90:	01d71813          	slli	a6,a4,0x1d
80004d94:	00971713          	slli	a4,a4,0x9
80004d98:	00a86833          	or	a6,a6,a0
80004d9c:	00c75793          	srli	a5,a4,0xc
80004da0:	7ff6f693          	andi	a3,a3,2047
80004da4:	e51ff06f          	j	80004bf4 <__divdf3+0x184>
80004da8:	2b776c63          	bltu	a4,s7,80005060 <__divdf3+0x5f0>
80004dac:	2aeb8863          	beq	s7,a4,8000505c <__divdf3+0x5ec>
80004db0:	000b0613          	mv	a2,s6
80004db4:	fff40413          	addi	s0,s0,-1
80004db8:	000b8493          	mv	s1,s7
80004dbc:	00000b13          	li	s6,0
80004dc0:	00871913          	slli	s2,a4,0x8
80004dc4:	01885513          	srli	a0,a6,0x18
80004dc8:	01256533          	or	a0,a0,s2
80004dcc:	01055313          	srli	t1,a0,0x10
80004dd0:	0264deb3          	divu	t4,s1,t1
80004dd4:	01051e13          	slli	t3,a0,0x10
80004dd8:	010e5e13          	srli	t3,t3,0x10
80004ddc:	01065693          	srli	a3,a2,0x10
80004de0:	00881893          	slli	a7,a6,0x8
80004de4:	0264f4b3          	remu	s1,s1,t1
80004de8:	03de07b3          	mul	a5,t3,t4
80004dec:	01049493          	slli	s1,s1,0x10
80004df0:	0096e6b3          	or	a3,a3,s1
80004df4:	00f6fe63          	bleu	a5,a3,80004e10 <__divdf3+0x3a0>
80004df8:	00a686b3          	add	a3,a3,a0
80004dfc:	fffe8713          	addi	a4,t4,-1
80004e00:	34a6e863          	bltu	a3,a0,80005150 <__divdf3+0x6e0>
80004e04:	34f6f663          	bleu	a5,a3,80005150 <__divdf3+0x6e0>
80004e08:	ffee8e93          	addi	t4,t4,-2
80004e0c:	00a686b3          	add	a3,a3,a0
80004e10:	40f686b3          	sub	a3,a3,a5
80004e14:	0266d733          	divu	a4,a3,t1
80004e18:	01061613          	slli	a2,a2,0x10
80004e1c:	01065613          	srli	a2,a2,0x10
80004e20:	0266f6b3          	remu	a3,a3,t1
80004e24:	02ee0833          	mul	a6,t3,a4
80004e28:	01069693          	slli	a3,a3,0x10
80004e2c:	00d666b3          	or	a3,a2,a3
80004e30:	0106fe63          	bleu	a6,a3,80004e4c <__divdf3+0x3dc>
80004e34:	00a686b3          	add	a3,a3,a0
80004e38:	fff70793          	addi	a5,a4,-1
80004e3c:	30a6e663          	bltu	a3,a0,80005148 <__divdf3+0x6d8>
80004e40:	3106f463          	bleu	a6,a3,80005148 <__divdf3+0x6d8>
80004e44:	ffe70713          	addi	a4,a4,-2
80004e48:	00a686b3          	add	a3,a3,a0
80004e4c:	010e9913          	slli	s2,t4,0x10
80004e50:	000104b7          	lui	s1,0x10
80004e54:	00e96733          	or	a4,s2,a4
80004e58:	fff48e93          	addi	t4,s1,-1 # ffff <HEAP_SIZE+0xf7ff>
80004e5c:	01d77633          	and	a2,a4,t4
80004e60:	01075f93          	srli	t6,a4,0x10
80004e64:	0108df13          	srli	t5,a7,0x10
80004e68:	01d8feb3          	and	t4,a7,t4
80004e6c:	03df83b3          	mul	t2,t6,t4
80004e70:	41068833          	sub	a6,a3,a6
80004e74:	03d602b3          	mul	t0,a2,t4
80004e78:	02cf07b3          	mul	a5,t5,a2
80004e7c:	0102d693          	srli	a3,t0,0x10
80004e80:	007787b3          	add	a5,a5,t2
80004e84:	00f687b3          	add	a5,a3,a5
80004e88:	03ef8fb3          	mul	t6,t6,t5
80004e8c:	0077f463          	bleu	t2,a5,80004e94 <__divdf3+0x424>
80004e90:	009f8fb3          	add	t6,t6,s1
80004e94:	00010637          	lui	a2,0x10
80004e98:	fff60613          	addi	a2,a2,-1 # ffff <HEAP_SIZE+0xf7ff>
80004e9c:	0107d693          	srli	a3,a5,0x10
80004ea0:	00c7f7b3          	and	a5,a5,a2
80004ea4:	01079793          	slli	a5,a5,0x10
80004ea8:	00c2f633          	and	a2,t0,a2
80004eac:	01f68fb3          	add	t6,a3,t6
80004eb0:	00c787b3          	add	a5,a5,a2
80004eb4:	17f86e63          	bltu	a6,t6,80005030 <__divdf3+0x5c0>
80004eb8:	41f80633          	sub	a2,a6,t6
80004ebc:	17f80663          	beq	a6,t6,80005028 <__divdf3+0x5b8>
80004ec0:	40fb07b3          	sub	a5,s6,a5
80004ec4:	00fb3b33          	sltu	s6,s6,a5
80004ec8:	41660b33          	sub	s6,a2,s6
80004ecc:	3ff40693          	addi	a3,s0,1023
80004ed0:	29650463          	beq	a0,s6,80005158 <__divdf3+0x6e8>
80004ed4:	026b5833          	divu	a6,s6,t1
80004ed8:	0107d613          	srli	a2,a5,0x10
80004edc:	026b7b33          	remu	s6,s6,t1
80004ee0:	030e0fb3          	mul	t6,t3,a6
80004ee4:	010b1b13          	slli	s6,s6,0x10
80004ee8:	01666b33          	or	s6,a2,s6
80004eec:	01fb7e63          	bleu	t6,s6,80004f08 <__divdf3+0x498>
80004ef0:	00ab0b33          	add	s6,s6,a0
80004ef4:	fff80613          	addi	a2,a6,-1
80004ef8:	2cab6463          	bltu	s6,a0,800051c0 <__divdf3+0x750>
80004efc:	2dfb7263          	bleu	t6,s6,800051c0 <__divdf3+0x750>
80004f00:	ffe80813          	addi	a6,a6,-2
80004f04:	00ab0b33          	add	s6,s6,a0
80004f08:	41fb0b33          	sub	s6,s6,t6
80004f0c:	026b5633          	divu	a2,s6,t1
80004f10:	01079793          	slli	a5,a5,0x10
80004f14:	0107d793          	srli	a5,a5,0x10
80004f18:	026b7b33          	remu	s6,s6,t1
80004f1c:	02ce0e33          	mul	t3,t3,a2
80004f20:	010b1b13          	slli	s6,s6,0x10
80004f24:	0167e7b3          	or	a5,a5,s6
80004f28:	01c7fe63          	bleu	t3,a5,80004f44 <__divdf3+0x4d4>
80004f2c:	00a787b3          	add	a5,a5,a0
80004f30:	fff60313          	addi	t1,a2,-1
80004f34:	28a7e263          	bltu	a5,a0,800051b8 <__divdf3+0x748>
80004f38:	29c7f063          	bleu	t3,a5,800051b8 <__divdf3+0x748>
80004f3c:	ffe60613          	addi	a2,a2,-2
80004f40:	00a787b3          	add	a5,a5,a0
80004f44:	01081813          	slli	a6,a6,0x10
80004f48:	00c86833          	or	a6,a6,a2
80004f4c:	01081313          	slli	t1,a6,0x10
80004f50:	01085293          	srli	t0,a6,0x10
80004f54:	01035313          	srli	t1,t1,0x10
80004f58:	03d30fb3          	mul	t6,t1,t4
80004f5c:	41c787b3          	sub	a5,a5,t3
80004f60:	026f0333          	mul	t1,t5,t1
80004f64:	010fd613          	srli	a2,t6,0x10
80004f68:	03d28eb3          	mul	t4,t0,t4
80004f6c:	01d30333          	add	t1,t1,t4
80004f70:	00660633          	add	a2,a2,t1
80004f74:	025f0f33          	mul	t5,t5,t0
80004f78:	01d67663          	bleu	t4,a2,80004f84 <__divdf3+0x514>
80004f7c:	00010337          	lui	t1,0x10
80004f80:	006f0f33          	add	t5,t5,t1
80004f84:	00010e37          	lui	t3,0x10
80004f88:	fffe0e13          	addi	t3,t3,-1 # ffff <HEAP_SIZE+0xf7ff>
80004f8c:	01065313          	srli	t1,a2,0x10
80004f90:	01c67633          	and	a2,a2,t3
80004f94:	01061613          	slli	a2,a2,0x10
80004f98:	01cfffb3          	and	t6,t6,t3
80004f9c:	01e30f33          	add	t5,t1,t5
80004fa0:	01f60633          	add	a2,a2,t6
80004fa4:	17e7f263          	bleu	t5,a5,80005108 <__divdf3+0x698>
80004fa8:	00f507b3          	add	a5,a0,a5
80004fac:	fff80313          	addi	t1,a6,-1
80004fb0:	28a7e863          	bltu	a5,a0,80005240 <__divdf3+0x7d0>
80004fb4:	23e7e863          	bltu	a5,t5,800051e4 <__divdf3+0x774>
80004fb8:	2be78c63          	beq	a5,t5,80005270 <__divdf3+0x800>
80004fbc:	00030813          	mv	a6,t1
80004fc0:	00186813          	ori	a6,a6,1
80004fc4:	d99ff06f          	j	80004d5c <__divdf3+0x2ec>
80004fc8:	000a0593          	mv	a1,s4
80004fcc:	000b8713          	mv	a4,s7
80004fd0:	000b0813          	mv	a6,s6
80004fd4:	00048513          	mv	a0,s1
80004fd8:	d69ff06f          	j	80004d40 <__divdf3+0x2d0>
80004fdc:	fd850493          	addi	s1,a0,-40
80004fe0:	00991bb3          	sll	s7,s2,s1
80004fe4:	00000b13          	li	s6,0
80004fe8:	cc9ff06f          	j	80004cb0 <__divdf3+0x240>
80004fec:	348010ef          	jal	ra,80006334 <__clzsi2>
80004ff0:	02050513          	addi	a0,a0,32
80004ff4:	00c12683          	lw	a3,12(sp)
80004ff8:	00812603          	lw	a2,8(sp)
80004ffc:	c8dff06f          	j	80004c88 <__divdf3+0x218>
80005000:	fd850913          	addi	s2,a0,-40
80005004:	01261733          	sll	a4,a2,s2
80005008:	00000813          	li	a6,0
8000500c:	bcdff06f          	j	80004bd8 <__divdf3+0x168>
80005010:	00060513          	mv	a0,a2
80005014:	00c12423          	sw	a2,8(sp)
80005018:	31c010ef          	jal	ra,80006334 <__clzsi2>
8000501c:	02050513          	addi	a0,a0,32
80005020:	00812603          	lw	a2,8(sp)
80005024:	b8dff06f          	j	80004bb0 <__divdf3+0x140>
80005028:	00000613          	li	a2,0
8000502c:	e8fb7ae3          	bleu	a5,s6,80004ec0 <__divdf3+0x450>
80005030:	011b0b33          	add	s6,s6,a7
80005034:	011b36b3          	sltu	a3,s6,a7
80005038:	00a686b3          	add	a3,a3,a0
8000503c:	010686b3          	add	a3,a3,a6
80005040:	fff70813          	addi	a6,a4,-1
80005044:	0ed57863          	bleu	a3,a0,80005134 <__divdf3+0x6c4>
80005048:	19f6e063          	bltu	a3,t6,800051c8 <__divdf3+0x758>
8000504c:	20df8a63          	beq	t6,a3,80005260 <__divdf3+0x7f0>
80005050:	41f68633          	sub	a2,a3,t6
80005054:	00080713          	mv	a4,a6
80005058:	e69ff06f          	j	80004ec0 <__divdf3+0x450>
8000505c:	d50b6ae3          	bltu	s6,a6,80004db0 <__divdf3+0x340>
80005060:	001b5693          	srli	a3,s6,0x1
80005064:	01fb9613          	slli	a2,s7,0x1f
80005068:	001bd493          	srli	s1,s7,0x1
8000506c:	00d66633          	or	a2,a2,a3
80005070:	01fb1b13          	slli	s6,s6,0x1f
80005074:	d4dff06f          	j	80004dc0 <__divdf3+0x350>
80005078:	0e068c63          	beqz	a3,80005170 <__divdf3+0x700>
8000507c:	00100913          	li	s2,1
80005080:	0015f593          	andi	a1,a1,1
80005084:	40d90933          	sub	s2,s2,a3
80005088:	03800793          	li	a5,56
8000508c:	0ff5f613          	andi	a2,a1,255
80005090:	c927cee3          	blt	a5,s2,80004d2c <__divdf3+0x2bc>
80005094:	01f00793          	li	a5,31
80005098:	0f27d063          	ble	s2,a5,80005178 <__divdf3+0x708>
8000509c:	fe100793          	li	a5,-31
800050a0:	40d786b3          	sub	a3,a5,a3
800050a4:	02000793          	li	a5,32
800050a8:	00d756b3          	srl	a3,a4,a3
800050ac:	00f90863          	beq	s2,a5,800050bc <__divdf3+0x64c>
800050b0:	43e40413          	addi	s0,s0,1086
800050b4:	00871733          	sll	a4,a4,s0
800050b8:	00e86833          	or	a6,a6,a4
800050bc:	01003833          	snez	a6,a6
800050c0:	00d86833          	or	a6,a6,a3
800050c4:	00787713          	andi	a4,a6,7
800050c8:	00000793          	li	a5,0
800050cc:	14070863          	beqz	a4,8000521c <__divdf3+0x7ac>
800050d0:	00f87793          	andi	a5,a6,15
800050d4:	00400713          	li	a4,4
800050d8:	00000913          	li	s2,0
800050dc:	00080513          	mv	a0,a6
800050e0:	12e78663          	beq	a5,a4,8000520c <__divdf3+0x79c>
800050e4:	00480513          	addi	a0,a6,4
800050e8:	01053833          	sltu	a6,a0,a6
800050ec:	01090933          	add	s2,s2,a6
800050f0:	00891793          	slli	a5,s2,0x8
800050f4:	1007dc63          	bgez	a5,8000520c <__divdf3+0x79c>
800050f8:	00100693          	li	a3,1
800050fc:	00000793          	li	a5,0
80005100:	00000813          	li	a6,0
80005104:	af1ff06f          	j	80004bf4 <__divdf3+0x184>
80005108:	ebe79ce3          	bne	a5,t5,80004fc0 <__divdf3+0x550>
8000510c:	c40608e3          	beqz	a2,80004d5c <__divdf3+0x2ec>
80005110:	e99ff06f          	j	80004fa8 <__divdf3+0x538>
80005114:	00f87793          	andi	a5,a6,15
80005118:	00400613          	li	a2,4
8000511c:	c4c786e3          	beq	a5,a2,80004d68 <__divdf3+0x2f8>
80005120:	00480513          	addi	a0,a6,4
80005124:	01053833          	sltu	a6,a0,a6
80005128:	00355513          	srli	a0,a0,0x3
8000512c:	01070733          	add	a4,a4,a6
80005130:	c3dff06f          	j	80004d6c <__divdf3+0x2fc>
80005134:	f0d51ee3          	bne	a0,a3,80005050 <__divdf3+0x5e0>
80005138:	f11b78e3          	bleu	a7,s6,80005048 <__divdf3+0x5d8>
8000513c:	41f50633          	sub	a2,a0,t6
80005140:	00080713          	mv	a4,a6
80005144:	d7dff06f          	j	80004ec0 <__divdf3+0x450>
80005148:	00078713          	mv	a4,a5
8000514c:	d01ff06f          	j	80004e4c <__divdf3+0x3dc>
80005150:	00070e93          	mv	t4,a4
80005154:	cbdff06f          	j	80004e10 <__divdf3+0x3a0>
80005158:	00000513          	li	a0,0
8000515c:	00100813          	li	a6,1
80005160:	fcd046e3          	bgtz	a3,8000512c <__divdf3+0x6bc>
80005164:	fff00813          	li	a6,-1
80005168:	f0069ae3          	bnez	a3,8000507c <__divdf3+0x60c>
8000516c:	c0100413          	li	s0,-1023
80005170:	00100913          	li	s2,1
80005174:	0015f593          	andi	a1,a1,1
80005178:	41e40413          	addi	s0,s0,1054
8000517c:	012857b3          	srl	a5,a6,s2
80005180:	00871533          	sll	a0,a4,s0
80005184:	00881833          	sll	a6,a6,s0
80005188:	00f56533          	or	a0,a0,a5
8000518c:	01003833          	snez	a6,a6
80005190:	01056533          	or	a0,a0,a6
80005194:	00757793          	andi	a5,a0,7
80005198:	01275933          	srl	s2,a4,s2
8000519c:	0ff5f613          	andi	a2,a1,255
800051a0:	f40788e3          	beqz	a5,800050f0 <__divdf3+0x680>
800051a4:	00f57793          	andi	a5,a0,15
800051a8:	00400713          	li	a4,4
800051ac:	f4e782e3          	beq	a5,a4,800050f0 <__divdf3+0x680>
800051b0:	00050813          	mv	a6,a0
800051b4:	f31ff06f          	j	800050e4 <__divdf3+0x674>
800051b8:	00030613          	mv	a2,t1
800051bc:	d89ff06f          	j	80004f44 <__divdf3+0x4d4>
800051c0:	00060813          	mv	a6,a2
800051c4:	d45ff06f          	j	80004f08 <__divdf3+0x498>
800051c8:	011b0b33          	add	s6,s6,a7
800051cc:	011b3633          	sltu	a2,s6,a7
800051d0:	00a60633          	add	a2,a2,a0
800051d4:	00d606b3          	add	a3,a2,a3
800051d8:	ffe70713          	addi	a4,a4,-2
800051dc:	41f68633          	sub	a2,a3,t6
800051e0:	ce1ff06f          	j	80004ec0 <__divdf3+0x450>
800051e4:	00189313          	slli	t1,a7,0x1
800051e8:	011338b3          	sltu	a7,t1,a7
800051ec:	00a88533          	add	a0,a7,a0
800051f0:	00a787b3          	add	a5,a5,a0
800051f4:	ffe80813          	addi	a6,a6,-2
800051f8:	00030893          	mv	a7,t1
800051fc:	dde792e3          	bne	a5,t5,80004fc0 <__divdf3+0x550>
80005200:	b5160ee3          	beq	a2,a7,80004d5c <__divdf3+0x2ec>
80005204:	00186813          	ori	a6,a6,1
80005208:	b55ff06f          	j	80004d5c <__divdf3+0x2ec>
8000520c:	00991693          	slli	a3,s2,0x9
80005210:	01d91713          	slli	a4,s2,0x1d
80005214:	00c6d793          	srli	a5,a3,0xc
80005218:	00050813          	mv	a6,a0
8000521c:	00385813          	srli	a6,a6,0x3
80005220:	00e86833          	or	a6,a6,a4
80005224:	00000693          	li	a3,0
80005228:	9cdff06f          	j	80004bf4 <__divdf3+0x184>
8000522c:	00058613          	mv	a2,a1
80005230:	00000693          	li	a3,0
80005234:	00000793          	li	a5,0
80005238:	00000813          	li	a6,0
8000523c:	9b9ff06f          	j	80004bf4 <__divdf3+0x184>
80005240:	00030813          	mv	a6,t1
80005244:	fbe78ee3          	beq	a5,t5,80005200 <__divdf3+0x790>
80005248:	d79ff06f          	j	80004fc0 <__divdf3+0x550>
8000524c:	00058613          	mv	a2,a1
80005250:	7ff00693          	li	a3,2047
80005254:	00000793          	li	a5,0
80005258:	00000813          	li	a6,0
8000525c:	999ff06f          	j	80004bf4 <__divdf3+0x184>
80005260:	f6fb64e3          	bltu	s6,a5,800051c8 <__divdf3+0x758>
80005264:	00080713          	mv	a4,a6
80005268:	00000613          	li	a2,0
8000526c:	c55ff06f          	j	80004ec0 <__divdf3+0x450>
80005270:	f6c8eae3          	bltu	a7,a2,800051e4 <__divdf3+0x774>
80005274:	00030813          	mv	a6,t1
80005278:	f91616e3          	bne	a2,a7,80005204 <__divdf3+0x794>
8000527c:	ae1ff06f          	j	80004d5c <__divdf3+0x2ec>

80005280 <__ledf2>:
__ltdf2():
80005280:	0145d713          	srli	a4,a1,0x14
80005284:	001007b7          	lui	a5,0x100
80005288:	fff78793          	addi	a5,a5,-1 # fffff <RAM_SIZE+0xeffff>
8000528c:	0146d813          	srli	a6,a3,0x14
80005290:	7ff77713          	andi	a4,a4,2047
80005294:	7ff00893          	li	a7,2047
80005298:	00b7fe33          	and	t3,a5,a1
8000529c:	00050e93          	mv	t4,a0
800052a0:	00d7f7b3          	and	a5,a5,a3
800052a4:	01f5d593          	srli	a1,a1,0x1f
800052a8:	00060f13          	mv	t5,a2
800052ac:	7ff87813          	andi	a6,a6,2047
800052b0:	01f6d693          	srli	a3,a3,0x1f
800052b4:	05170463          	beq	a4,a7,800052fc <__ledf2+0x7c>
800052b8:	03180863          	beq	a6,a7,800052e8 <__ledf2+0x68>
800052bc:	04071863          	bnez	a4,8000530c <__ledf2+0x8c>
800052c0:	00ae68b3          	or	a7,t3,a0
800052c4:	06081063          	bnez	a6,80005324 <__ledf2+0xa4>
800052c8:	00c7e633          	or	a2,a5,a2
800052cc:	04061c63          	bnez	a2,80005324 <__ledf2+0xa4>
800052d0:	00000313          	li	t1,0
800052d4:	06088a63          	beqz	a7,80005348 <__ledf2+0xc8>
800052d8:	00100313          	li	t1,1
800052dc:	06058663          	beqz	a1,80005348 <__ledf2+0xc8>
800052e0:	fff00313          	li	t1,-1
800052e4:	0640006f          	j	80005348 <__ledf2+0xc8>
800052e8:	00c7e8b3          	or	a7,a5,a2
800052ec:	00200313          	li	t1,2
800052f0:	04089c63          	bnez	a7,80005348 <__ledf2+0xc8>
800052f4:	fc0706e3          	beqz	a4,800052c0 <__ledf2+0x40>
800052f8:	0140006f          	j	8000530c <__ledf2+0x8c>
800052fc:	00ae68b3          	or	a7,t3,a0
80005300:	00200313          	li	t1,2
80005304:	04089263          	bnez	a7,80005348 <__ledf2+0xc8>
80005308:	04e80a63          	beq	a6,a4,8000535c <__ledf2+0xdc>
8000530c:	04081c63          	bnez	a6,80005364 <__ledf2+0xe4>
80005310:	00c7e633          	or	a2,a5,a2
80005314:	04061863          	bnez	a2,80005364 <__ledf2+0xe4>
80005318:	00100313          	li	t1,1
8000531c:	02058663          	beqz	a1,80005348 <__ledf2+0xc8>
80005320:	fc1ff06f          	j	800052e0 <__ledf2+0x60>
80005324:	02088663          	beqz	a7,80005350 <__ledf2+0xd0>
80005328:	fad598e3          	bne	a1,a3,800052d8 <__ledf2+0x58>
8000532c:	01074a63          	blt	a4,a6,80005340 <__ledf2+0xc0>
80005330:	fbc7e4e3          	bltu	a5,t3,800052d8 <__ledf2+0x58>
80005334:	02fe0e63          	beq	t3,a5,80005370 <__ledf2+0xf0>
80005338:	00000313          	li	t1,0
8000533c:	00fe7663          	bleu	a5,t3,80005348 <__ledf2+0xc8>
80005340:	fa0580e3          	beqz	a1,800052e0 <__ledf2+0x60>
80005344:	00100313          	li	t1,1
80005348:	00030513          	mv	a0,t1
8000534c:	00008067          	ret
80005350:	fe069ae3          	bnez	a3,80005344 <__ledf2+0xc4>
80005354:	fff00313          	li	t1,-1
80005358:	ff1ff06f          	j	80005348 <__ledf2+0xc8>
8000535c:	00c7e633          	or	a2,a5,a2
80005360:	fe0614e3          	bnez	a2,80005348 <__ledf2+0xc8>
80005364:	f6d59ae3          	bne	a1,a3,800052d8 <__ledf2+0x58>
80005368:	f6e848e3          	blt	a6,a4,800052d8 <__ledf2+0x58>
8000536c:	fc1ff06f          	j	8000532c <__ledf2+0xac>
80005370:	f7df64e3          	bltu	t5,t4,800052d8 <__ledf2+0x58>
80005374:	00000313          	li	t1,0
80005378:	fdeef8e3          	bleu	t5,t4,80005348 <__ledf2+0xc8>
8000537c:	fc0594e3          	bnez	a1,80005344 <__ledf2+0xc4>
80005380:	f61ff06f          	j	800052e0 <__ledf2+0x60>

80005384 <__muldf3>:
__muldf3():
80005384:	fc010113          	addi	sp,sp,-64
80005388:	02812c23          	sw	s0,56(sp)
8000538c:	0145d793          	srli	a5,a1,0x14
80005390:	00100437          	lui	s0,0x100
80005394:	02912a23          	sw	s1,52(sp)
80005398:	03312623          	sw	s3,44(sp)
8000539c:	00050493          	mv	s1,a0
800053a0:	fff40413          	addi	s0,s0,-1 # fffff <RAM_SIZE+0xeffff>
800053a4:	02112e23          	sw	ra,60(sp)
800053a8:	03212823          	sw	s2,48(sp)
800053ac:	03412423          	sw	s4,40(sp)
800053b0:	03512223          	sw	s5,36(sp)
800053b4:	03612023          	sw	s6,32(sp)
800053b8:	01712e23          	sw	s7,28(sp)
800053bc:	7ff7f513          	andi	a0,a5,2047
800053c0:	00b47433          	and	s0,s0,a1
800053c4:	01f5d993          	srli	s3,a1,0x1f
800053c8:	1e050e63          	beqz	a0,800055c4 <__muldf3+0x240>
800053cc:	7ff00793          	li	a5,2047
800053d0:	0af50063          	beq	a0,a5,80005470 <__muldf3+0xec>
800053d4:	00341413          	slli	s0,s0,0x3
800053d8:	008007b7          	lui	a5,0x800
800053dc:	01d4db13          	srli	s6,s1,0x1d
800053e0:	00f46433          	or	s0,s0,a5
800053e4:	00349a13          	slli	s4,s1,0x3
800053e8:	008b6b33          	or	s6,s6,s0
800053ec:	c0150a93          	addi	s5,a0,-1023
800053f0:	00000493          	li	s1,0
800053f4:	00000b93          	li	s7,0
800053f8:	0146d893          	srli	a7,a3,0x14
800053fc:	00100437          	lui	s0,0x100
80005400:	fff40413          	addi	s0,s0,-1 # fffff <RAM_SIZE+0xeffff>
80005404:	7ff8f893          	andi	a7,a7,2047
80005408:	00060813          	mv	a6,a2
8000540c:	00d47433          	and	s0,s0,a3
80005410:	01f6d913          	srli	s2,a3,0x1f
80005414:	08088a63          	beqz	a7,800054a8 <__muldf3+0x124>
80005418:	7ff00793          	li	a5,2047
8000541c:	20f88463          	beq	a7,a5,80005624 <__muldf3+0x2a0>
80005420:	00800737          	lui	a4,0x800
80005424:	00341413          	slli	s0,s0,0x3
80005428:	00e46433          	or	s0,s0,a4
8000542c:	c0188893          	addi	a7,a7,-1023
80005430:	01d65713          	srli	a4,a2,0x1d
80005434:	00876733          	or	a4,a4,s0
80005438:	00361813          	slli	a6,a2,0x3
8000543c:	011a8ab3          	add	s5,s5,a7
80005440:	00000513          	li	a0,0
80005444:	00f00693          	li	a3,15
80005448:	0129c7b3          	xor	a5,s3,s2
8000544c:	001a8593          	addi	a1,s5,1
80005450:	1e96e863          	bltu	a3,s1,80005640 <__muldf3+0x2bc>
80005454:	00001617          	auipc	a2,0x1
80005458:	77460613          	addi	a2,a2,1908 # 80006bc8 <__clzsi2+0x894>
8000545c:	00249493          	slli	s1,s1,0x2
80005460:	00c484b3          	add	s1,s1,a2
80005464:	0004a683          	lw	a3,0(s1)
80005468:	00c686b3          	add	a3,a3,a2
8000546c:	00068067          	jr	a3
80005470:	00946b33          	or	s6,s0,s1
80005474:	400b1663          	bnez	s6,80005880 <__muldf3+0x4fc>
80005478:	0146d893          	srli	a7,a3,0x14
8000547c:	00100437          	lui	s0,0x100
80005480:	fff40413          	addi	s0,s0,-1 # fffff <RAM_SIZE+0xeffff>
80005484:	7ff8f893          	andi	a7,a7,2047
80005488:	00800493          	li	s1,8
8000548c:	00000a13          	li	s4,0
80005490:	7ff00a93          	li	s5,2047
80005494:	00200b93          	li	s7,2
80005498:	00060813          	mv	a6,a2
8000549c:	00d47433          	and	s0,s0,a3
800054a0:	01f6d913          	srli	s2,a3,0x1f
800054a4:	f6089ae3          	bnez	a7,80005418 <__muldf3+0x94>
800054a8:	00c46733          	or	a4,s0,a2
800054ac:	3e070663          	beqz	a4,80005898 <__muldf3+0x514>
800054b0:	4a040463          	beqz	s0,80005958 <__muldf3+0x5d4>
800054b4:	00040513          	mv	a0,s0
800054b8:	00c12423          	sw	a2,8(sp)
800054bc:	679000ef          	jal	ra,80006334 <__clzsi2>
800054c0:	00812603          	lw	a2,8(sp)
800054c4:	ff550793          	addi	a5,a0,-11
800054c8:	01c00713          	li	a4,28
800054cc:	44f74a63          	blt	a4,a5,80005920 <__muldf3+0x59c>
800054d0:	01d00713          	li	a4,29
800054d4:	ff850813          	addi	a6,a0,-8
800054d8:	40f70733          	sub	a4,a4,a5
800054dc:	01041433          	sll	s0,s0,a6
800054e0:	00e65733          	srl	a4,a2,a4
800054e4:	00876733          	or	a4,a4,s0
800054e8:	01061833          	sll	a6,a2,a6
800054ec:	40aa8533          	sub	a0,s5,a0
800054f0:	c0d50a93          	addi	s5,a0,-1011
800054f4:	00000513          	li	a0,0
800054f8:	f4dff06f          	j	80005444 <__muldf3+0xc0>
800054fc:	00000613          	li	a2,0
80005500:	7ff00713          	li	a4,2047
80005504:	000807b7          	lui	a5,0x80
80005508:	00000813          	li	a6,0
8000550c:	001006b7          	lui	a3,0x100
80005510:	fff68693          	addi	a3,a3,-1 # fffff <RAM_SIZE+0xeffff>
80005514:	00d7f7b3          	and	a5,a5,a3
80005518:	801006b7          	lui	a3,0x80100
8000551c:	fff68693          	addi	a3,a3,-1 # 800fffff <__stack_top+0xf552f>
80005520:	00d7f7b3          	and	a5,a5,a3
80005524:	03c12083          	lw	ra,60(sp)
80005528:	03812403          	lw	s0,56(sp)
8000552c:	01471713          	slli	a4,a4,0x14
80005530:	01f61693          	slli	a3,a2,0x1f
80005534:	00e7e7b3          	or	a5,a5,a4
80005538:	00d7e7b3          	or	a5,a5,a3
8000553c:	03412483          	lw	s1,52(sp)
80005540:	03012903          	lw	s2,48(sp)
80005544:	02c12983          	lw	s3,44(sp)
80005548:	02812a03          	lw	s4,40(sp)
8000554c:	02412a83          	lw	s5,36(sp)
80005550:	02012b03          	lw	s6,32(sp)
80005554:	01c12b83          	lw	s7,28(sp)
80005558:	00080513          	mv	a0,a6
8000555c:	00078593          	mv	a1,a5
80005560:	04010113          	addi	sp,sp,64
80005564:	00008067          	ret
80005568:	00090793          	mv	a5,s2
8000556c:	00200693          	li	a3,2
80005570:	02d51863          	bne	a0,a3,800055a0 <__muldf3+0x21c>
80005574:	00078613          	mv	a2,a5
80005578:	7ff00713          	li	a4,2047
8000557c:	00000793          	li	a5,0
80005580:	00000813          	li	a6,0
80005584:	f89ff06f          	j	8000550c <__muldf3+0x188>
80005588:	00098793          	mv	a5,s3
8000558c:	000b8513          	mv	a0,s7
80005590:	00200693          	li	a3,2
80005594:	000b0713          	mv	a4,s6
80005598:	000a0813          	mv	a6,s4
8000559c:	fcd50ce3          	beq	a0,a3,80005574 <__muldf3+0x1f0>
800055a0:	00300693          	li	a3,3
800055a4:	f4d50ce3          	beq	a0,a3,800054fc <__muldf3+0x178>
800055a8:	00100693          	li	a3,1
800055ac:	24d51a63          	bne	a0,a3,80005800 <__muldf3+0x47c>
800055b0:	00078613          	mv	a2,a5
800055b4:	00000713          	li	a4,0
800055b8:	00000793          	li	a5,0
800055bc:	00000813          	li	a6,0
800055c0:	f4dff06f          	j	8000550c <__muldf3+0x188>
800055c4:	00946b33          	or	s6,s0,s1
800055c8:	2a0b0263          	beqz	s6,8000586c <__muldf3+0x4e8>
800055cc:	00d12623          	sw	a3,12(sp)
800055d0:	00c12423          	sw	a2,8(sp)
800055d4:	36040663          	beqz	s0,80005940 <__muldf3+0x5bc>
800055d8:	00040513          	mv	a0,s0
800055dc:	559000ef          	jal	ra,80006334 <__clzsi2>
800055e0:	00812603          	lw	a2,8(sp)
800055e4:	00c12683          	lw	a3,12(sp)
800055e8:	ff550793          	addi	a5,a0,-11
800055ec:	01c00713          	li	a4,28
800055f0:	34f74063          	blt	a4,a5,80005930 <__muldf3+0x5ac>
800055f4:	01d00b13          	li	s6,29
800055f8:	ff850a13          	addi	s4,a0,-8
800055fc:	40fb0b33          	sub	s6,s6,a5
80005600:	01441433          	sll	s0,s0,s4
80005604:	0164db33          	srl	s6,s1,s6
80005608:	008b6b33          	or	s6,s6,s0
8000560c:	01449a33          	sll	s4,s1,s4
80005610:	c0d00a93          	li	s5,-1011
80005614:	40aa8ab3          	sub	s5,s5,a0
80005618:	00000493          	li	s1,0
8000561c:	00000b93          	li	s7,0
80005620:	dd9ff06f          	j	800053f8 <__muldf3+0x74>
80005624:	00c46733          	or	a4,s0,a2
80005628:	7ffa8a93          	addi	s5,s5,2047
8000562c:	26071e63          	bnez	a4,800058a8 <__muldf3+0x524>
80005630:	0024e493          	ori	s1,s1,2
80005634:	00000813          	li	a6,0
80005638:	00200513          	li	a0,2
8000563c:	e09ff06f          	j	80005444 <__muldf3+0xc0>
80005640:	00010eb7          	lui	t4,0x10
80005644:	fffe8613          	addi	a2,t4,-1 # ffff <HEAP_SIZE+0xf7ff>
80005648:	010a5693          	srli	a3,s4,0x10
8000564c:	01085313          	srli	t1,a6,0x10
80005650:	00ca7a33          	and	s4,s4,a2
80005654:	00c87833          	and	a6,a6,a2
80005658:	03480633          	mul	a2,a6,s4
8000565c:	03068e33          	mul	t3,a3,a6
80005660:	01065513          	srli	a0,a2,0x10
80005664:	034308b3          	mul	a7,t1,s4
80005668:	01c888b3          	add	a7,a7,t3
8000566c:	01150533          	add	a0,a0,a7
80005670:	02668f33          	mul	t5,a3,t1
80005674:	01c57463          	bleu	t3,a0,8000567c <__muldf3+0x2f8>
80005678:	01df0f33          	add	t5,t5,t4
8000567c:	00010e37          	lui	t3,0x10
80005680:	fffe0893          	addi	a7,t3,-1 # ffff <HEAP_SIZE+0xf7ff>
80005684:	011773b3          	and	t2,a4,a7
80005688:	01075293          	srli	t0,a4,0x10
8000568c:	01157733          	and	a4,a0,a7
80005690:	011678b3          	and	a7,a2,a7
80005694:	01071713          	slli	a4,a4,0x10
80005698:	03438633          	mul	a2,t2,s4
8000569c:	011708b3          	add	a7,a4,a7
800056a0:	01055513          	srli	a0,a0,0x10
800056a4:	02768eb3          	mul	t4,a3,t2
800056a8:	01065713          	srli	a4,a2,0x10
800056ac:	03428a33          	mul	s4,t0,s4
800056b0:	01da0a33          	add	s4,s4,t4
800056b4:	01470a33          	add	s4,a4,s4
800056b8:	025686b3          	mul	a3,a3,t0
800056bc:	01da7463          	bleu	t4,s4,800056c4 <__muldf3+0x340>
800056c0:	01c686b3          	add	a3,a3,t3
800056c4:	00010937          	lui	s2,0x10
800056c8:	fff90713          	addi	a4,s2,-1 # ffff <HEAP_SIZE+0xf7ff>
800056cc:	010b5f93          	srli	t6,s6,0x10
800056d0:	00eb7433          	and	s0,s6,a4
800056d4:	00ea7eb3          	and	t4,s4,a4
800056d8:	00e67633          	and	a2,a2,a4
800056dc:	010e9e93          	slli	t4,t4,0x10
800056e0:	028804b3          	mul	s1,a6,s0
800056e4:	010a5a13          	srli	s4,s4,0x10
800056e8:	00ce8eb3          	add	t4,t4,a2
800056ec:	00da0a33          	add	s4,s4,a3
800056f0:	01d50533          	add	a0,a0,t4
800056f4:	02830733          	mul	a4,t1,s0
800056f8:	0104de13          	srli	t3,s1,0x10
800056fc:	030f8833          	mul	a6,t6,a6
80005700:	01070733          	add	a4,a4,a6
80005704:	00ee0e33          	add	t3,t3,a4
80005708:	03f30333          	mul	t1,t1,t6
8000570c:	010e7463          	bleu	a6,t3,80005714 <__muldf3+0x390>
80005710:	01230333          	add	t1,t1,s2
80005714:	00010937          	lui	s2,0x10
80005718:	fff90613          	addi	a2,s2,-1 # ffff <HEAP_SIZE+0xf7ff>
8000571c:	00ce76b3          	and	a3,t3,a2
80005720:	010e5e13          	srli	t3,t3,0x10
80005724:	006e0333          	add	t1,t3,t1
80005728:	01069693          	slli	a3,a3,0x10
8000572c:	00c4f4b3          	and	s1,s1,a2
80005730:	02838e33          	mul	t3,t2,s0
80005734:	00968633          	add	a2,a3,s1
80005738:	027f8833          	mul	a6,t6,t2
8000573c:	010e5713          	srli	a4,t3,0x10
80005740:	02828433          	mul	s0,t0,s0
80005744:	01040433          	add	s0,s0,a6
80005748:	00870433          	add	s0,a4,s0
8000574c:	03f28fb3          	mul	t6,t0,t6
80005750:	01047463          	bleu	a6,s0,80005758 <__muldf3+0x3d4>
80005754:	012f8fb3          	add	t6,t6,s2
80005758:	00010737          	lui	a4,0x10
8000575c:	fff70713          	addi	a4,a4,-1 # ffff <HEAP_SIZE+0xf7ff>
80005760:	00e476b3          	and	a3,s0,a4
80005764:	01069693          	slli	a3,a3,0x10
80005768:	00ee7733          	and	a4,t3,a4
8000576c:	01e50533          	add	a0,a0,t5
80005770:	00e686b3          	add	a3,a3,a4
80005774:	01d53eb3          	sltu	t4,a0,t4
80005778:	01468733          	add	a4,a3,s4
8000577c:	00c50533          	add	a0,a0,a2
80005780:	01d70833          	add	a6,a4,t4
80005784:	00c536b3          	sltu	a3,a0,a2
80005788:	00680e33          	add	t3,a6,t1
8000578c:	00de0633          	add	a2,t3,a3
80005790:	01d83eb3          	sltu	t4,a6,t4
80005794:	01473733          	sltu	a4,a4,s4
80005798:	01d76733          	or	a4,a4,t4
8000579c:	01045413          	srli	s0,s0,0x10
800057a0:	006e3333          	sltu	t1,t3,t1
800057a4:	00d636b3          	sltu	a3,a2,a3
800057a8:	00d366b3          	or	a3,t1,a3
800057ac:	00870733          	add	a4,a4,s0
800057b0:	00d70733          	add	a4,a4,a3
800057b4:	00951813          	slli	a6,a0,0x9
800057b8:	01186833          	or	a6,a6,a7
800057bc:	01f70733          	add	a4,a4,t6
800057c0:	00971713          	slli	a4,a4,0x9
800057c4:	01765893          	srli	a7,a2,0x17
800057c8:	01003833          	snez	a6,a6
800057cc:	01755513          	srli	a0,a0,0x17
800057d0:	00961693          	slli	a3,a2,0x9
800057d4:	00a86833          	or	a6,a6,a0
800057d8:	01176733          	or	a4,a4,a7
800057dc:	00d86833          	or	a6,a6,a3
800057e0:	00771693          	slli	a3,a4,0x7
800057e4:	1806d663          	bgez	a3,80005970 <__muldf3+0x5ec>
800057e8:	00185693          	srli	a3,a6,0x1
800057ec:	00187813          	andi	a6,a6,1
800057f0:	01f71613          	slli	a2,a4,0x1f
800057f4:	0106e833          	or	a6,a3,a6
800057f8:	00c86833          	or	a6,a6,a2
800057fc:	00175713          	srli	a4,a4,0x1
80005800:	3ff58693          	addi	a3,a1,1023
80005804:	00078613          	mv	a2,a5
80005808:	0ad05863          	blez	a3,800058b8 <__muldf3+0x534>
8000580c:	00787793          	andi	a5,a6,7
80005810:	02078063          	beqz	a5,80005830 <__muldf3+0x4ac>
80005814:	00f87793          	andi	a5,a6,15
80005818:	00400513          	li	a0,4
8000581c:	00a78a63          	beq	a5,a0,80005830 <__muldf3+0x4ac>
80005820:	00480793          	addi	a5,a6,4
80005824:	0107b833          	sltu	a6,a5,a6
80005828:	01070733          	add	a4,a4,a6
8000582c:	00078813          	mv	a6,a5
80005830:	00771793          	slli	a5,a4,0x7
80005834:	0007da63          	bgez	a5,80005848 <__muldf3+0x4c4>
80005838:	ff0007b7          	lui	a5,0xff000
8000583c:	fff78793          	addi	a5,a5,-1 # feffffff <__stack_top+0x7eff552f>
80005840:	00f77733          	and	a4,a4,a5
80005844:	40058693          	addi	a3,a1,1024
80005848:	7fe00793          	li	a5,2046
8000584c:	12d7c663          	blt	a5,a3,80005978 <__muldf3+0x5f4>
80005850:	00385793          	srli	a5,a6,0x3
80005854:	01d71813          	slli	a6,a4,0x1d
80005858:	00971713          	slli	a4,a4,0x9
8000585c:	00f86833          	or	a6,a6,a5
80005860:	00c75793          	srli	a5,a4,0xc
80005864:	7ff6f713          	andi	a4,a3,2047
80005868:	ca5ff06f          	j	8000550c <__muldf3+0x188>
8000586c:	00400493          	li	s1,4
80005870:	00000a13          	li	s4,0
80005874:	00000a93          	li	s5,0
80005878:	00100b93          	li	s7,1
8000587c:	b7dff06f          	j	800053f8 <__muldf3+0x74>
80005880:	00048a13          	mv	s4,s1
80005884:	00040b13          	mv	s6,s0
80005888:	00c00493          	li	s1,12
8000588c:	7ff00a93          	li	s5,2047
80005890:	00300b93          	li	s7,3
80005894:	b65ff06f          	j	800053f8 <__muldf3+0x74>
80005898:	0014e493          	ori	s1,s1,1
8000589c:	00000813          	li	a6,0
800058a0:	00100513          	li	a0,1
800058a4:	ba1ff06f          	j	80005444 <__muldf3+0xc0>
800058a8:	0034e493          	ori	s1,s1,3
800058ac:	00040713          	mv	a4,s0
800058b0:	00300513          	li	a0,3
800058b4:	b91ff06f          	j	80005444 <__muldf3+0xc0>
800058b8:	00100793          	li	a5,1
800058bc:	40d787b3          	sub	a5,a5,a3
800058c0:	0c069463          	bnez	a3,80005988 <__muldf3+0x604>
800058c4:	41e58593          	addi	a1,a1,1054
800058c8:	00b816b3          	sll	a3,a6,a1
800058cc:	00b715b3          	sll	a1,a4,a1
800058d0:	00f85833          	srl	a6,a6,a5
800058d4:	00d036b3          	snez	a3,a3
800058d8:	0105e5b3          	or	a1,a1,a6
800058dc:	00d5e5b3          	or	a1,a1,a3
800058e0:	0075f693          	andi	a3,a1,7
800058e4:	00f75733          	srl	a4,a4,a5
800058e8:	02068063          	beqz	a3,80005908 <__muldf3+0x584>
800058ec:	00f5f793          	andi	a5,a1,15
800058f0:	00400693          	li	a3,4
800058f4:	00d78a63          	beq	a5,a3,80005908 <__muldf3+0x584>
800058f8:	00058813          	mv	a6,a1
800058fc:	00480593          	addi	a1,a6,4
80005900:	0105b833          	sltu	a6,a1,a6
80005904:	01070733          	add	a4,a4,a6
80005908:	00871793          	slli	a5,a4,0x8
8000590c:	0e07d263          	bgez	a5,800059f0 <__muldf3+0x66c>
80005910:	00100713          	li	a4,1
80005914:	00000793          	li	a5,0
80005918:	00000813          	li	a6,0
8000591c:	bf1ff06f          	j	8000550c <__muldf3+0x188>
80005920:	fd850713          	addi	a4,a0,-40
80005924:	00e61733          	sll	a4,a2,a4
80005928:	00000813          	li	a6,0
8000592c:	bc1ff06f          	j	800054ec <__muldf3+0x168>
80005930:	fd850413          	addi	s0,a0,-40
80005934:	00849b33          	sll	s6,s1,s0
80005938:	00000a13          	li	s4,0
8000593c:	cd5ff06f          	j	80005610 <__muldf3+0x28c>
80005940:	00048513          	mv	a0,s1
80005944:	1f1000ef          	jal	ra,80006334 <__clzsi2>
80005948:	02050513          	addi	a0,a0,32
8000594c:	00c12683          	lw	a3,12(sp)
80005950:	00812603          	lw	a2,8(sp)
80005954:	c95ff06f          	j	800055e8 <__muldf3+0x264>
80005958:	00060513          	mv	a0,a2
8000595c:	00c12423          	sw	a2,8(sp)
80005960:	1d5000ef          	jal	ra,80006334 <__clzsi2>
80005964:	02050513          	addi	a0,a0,32
80005968:	00812603          	lw	a2,8(sp)
8000596c:	b59ff06f          	j	800054c4 <__muldf3+0x140>
80005970:	000a8593          	mv	a1,s5
80005974:	e8dff06f          	j	80005800 <__muldf3+0x47c>
80005978:	7ff00713          	li	a4,2047
8000597c:	00000793          	li	a5,0
80005980:	00000813          	li	a6,0
80005984:	b89ff06f          	j	8000550c <__muldf3+0x188>
80005988:	03800513          	li	a0,56
8000598c:	00f55a63          	ble	a5,a0,800059a0 <__muldf3+0x61c>
80005990:	00000713          	li	a4,0
80005994:	00000793          	li	a5,0
80005998:	00000813          	li	a6,0
8000599c:	b71ff06f          	j	8000550c <__muldf3+0x188>
800059a0:	01f00513          	li	a0,31
800059a4:	f2f550e3          	ble	a5,a0,800058c4 <__muldf3+0x540>
800059a8:	fe100513          	li	a0,-31
800059ac:	40d506b3          	sub	a3,a0,a3
800059b0:	02000513          	li	a0,32
800059b4:	00d756b3          	srl	a3,a4,a3
800059b8:	00a78863          	beq	a5,a0,800059c8 <__muldf3+0x644>
800059bc:	43e58593          	addi	a1,a1,1086
800059c0:	00b71733          	sll	a4,a4,a1
800059c4:	00e86833          	or	a6,a6,a4
800059c8:	01003833          	snez	a6,a6
800059cc:	00d86833          	or	a6,a6,a3
800059d0:	00787713          	andi	a4,a6,7
800059d4:	00000793          	li	a5,0
800059d8:	02070463          	beqz	a4,80005a00 <__muldf3+0x67c>
800059dc:	00f87793          	andi	a5,a6,15
800059e0:	00400693          	li	a3,4
800059e4:	00000713          	li	a4,0
800059e8:	00080593          	mv	a1,a6
800059ec:	f0d798e3          	bne	a5,a3,800058fc <__muldf3+0x578>
800059f0:	00971693          	slli	a3,a4,0x9
800059f4:	00c6d793          	srli	a5,a3,0xc
800059f8:	01d71713          	slli	a4,a4,0x1d
800059fc:	00058813          	mv	a6,a1
80005a00:	00385813          	srli	a6,a6,0x3
80005a04:	00e86833          	or	a6,a6,a4
80005a08:	00000713          	li	a4,0
80005a0c:	b01ff06f          	j	8000550c <__muldf3+0x188>

80005a10 <__fixunsdfdi>:
__fixunsdfdi():
80005a10:	0145d713          	srli	a4,a1,0x14
80005a14:	001006b7          	lui	a3,0x100
80005a18:	fff68793          	addi	a5,a3,-1 # fffff <RAM_SIZE+0xeffff>
80005a1c:	7ff77713          	andi	a4,a4,2047
80005a20:	3fe00613          	li	a2,1022
80005a24:	00b7f7b3          	and	a5,a5,a1
80005a28:	01f5d593          	srli	a1,a1,0x1f
80005a2c:	00e65463          	ble	a4,a2,80005a34 <__fixunsdfdi+0x24>
80005a30:	00058863          	beqz	a1,80005a40 <__fixunsdfdi+0x30>
80005a34:	00000513          	li	a0,0
80005a38:	00000593          	li	a1,0
80005a3c:	00008067          	ret
80005a40:	43e00613          	li	a2,1086
80005a44:	02e64c63          	blt	a2,a4,80005a7c <__fixunsdfdi+0x6c>
80005a48:	43200613          	li	a2,1074
80005a4c:	00d7e7b3          	or	a5,a5,a3
80005a50:	02e64c63          	blt	a2,a4,80005a88 <__fixunsdfdi+0x78>
80005a54:	43300593          	li	a1,1075
80005a58:	40e585b3          	sub	a1,a1,a4
80005a5c:	01f00693          	li	a3,31
80005a60:	04b6d863          	ble	a1,a3,80005ab0 <__fixunsdfdi+0xa0>
80005a64:	41300693          	li	a3,1043
80005a68:	40e68733          	sub	a4,a3,a4
80005a6c:	00e7d733          	srl	a4,a5,a4
80005a70:	00000593          	li	a1,0
80005a74:	00070513          	mv	a0,a4
80005a78:	00008067          	ret
80005a7c:	fff00513          	li	a0,-1
80005a80:	fff00593          	li	a1,-1
80005a84:	00008067          	ret
80005a88:	bcd70713          	addi	a4,a4,-1075
80005a8c:	02077693          	andi	a3,a4,32
80005a90:	02069c63          	bnez	a3,80005ac8 <__fixunsdfdi+0xb8>
80005a94:	00155693          	srli	a3,a0,0x1
80005a98:	fff74613          	not	a2,a4
80005a9c:	00c6d6b3          	srl	a3,a3,a2
80005aa0:	00e795b3          	sll	a1,a5,a4
80005aa4:	00b6e5b3          	or	a1,a3,a1
80005aa8:	00e51533          	sll	a0,a0,a4
80005aac:	00008067          	ret
80005ab0:	bed70693          	addi	a3,a4,-1043
80005ab4:	00b55533          	srl	a0,a0,a1
80005ab8:	00d796b3          	sll	a3,a5,a3
80005abc:	00a6e733          	or	a4,a3,a0
80005ac0:	00b7d5b3          	srl	a1,a5,a1
80005ac4:	fb1ff06f          	j	80005a74 <__fixunsdfdi+0x64>
80005ac8:	00e515b3          	sll	a1,a0,a4
80005acc:	00000513          	li	a0,0
80005ad0:	00008067          	ret

80005ad4 <__divsf3>:
__divsf3():
80005ad4:	fc010113          	addi	sp,sp,-64
80005ad8:	01755793          	srli	a5,a0,0x17
80005adc:	00800737          	lui	a4,0x800
80005ae0:	03312623          	sw	s3,44(sp)
80005ae4:	03512223          	sw	s5,36(sp)
80005ae8:	fff70713          	addi	a4,a4,-1 # 7fffff <RAM_SIZE+0x7effff>
80005aec:	02112e23          	sw	ra,60(sp)
80005af0:	02812c23          	sw	s0,56(sp)
80005af4:	02912a23          	sw	s1,52(sp)
80005af8:	03212823          	sw	s2,48(sp)
80005afc:	03412423          	sw	s4,40(sp)
80005b00:	03612023          	sw	s6,32(sp)
80005b04:	01712e23          	sw	s7,28(sp)
80005b08:	0ff7f793          	andi	a5,a5,255
80005b0c:	00a779b3          	and	s3,a4,a0
80005b10:	01f55a93          	srli	s5,a0,0x1f
80005b14:	1c078a63          	beqz	a5,80005ce8 <__divsf3+0x214>
80005b18:	0ff00713          	li	a4,255
80005b1c:	08e78463          	beq	a5,a4,80005ba4 <__divsf3+0xd0>
80005b20:	00399713          	slli	a4,s3,0x3
80005b24:	040006b7          	lui	a3,0x4000
80005b28:	00d769b3          	or	s3,a4,a3
80005b2c:	f8178913          	addi	s2,a5,-127
80005b30:	00000493          	li	s1,0
80005b34:	00000b93          	li	s7,0
80005b38:	0175d793          	srli	a5,a1,0x17
80005b3c:	00800437          	lui	s0,0x800
80005b40:	01f5da13          	srli	s4,a1,0x1f
80005b44:	fff40413          	addi	s0,s0,-1 # 7fffff <RAM_SIZE+0x7effff>
80005b48:	0ff7f793          	andi	a5,a5,255
80005b4c:	00b47433          	and	s0,s0,a1
80005b50:	000a0b13          	mv	s6,s4
80005b54:	08078063          	beqz	a5,80005bd4 <__divsf3+0x100>
80005b58:	0ff00713          	li	a4,255
80005b5c:	1ae78063          	beq	a5,a4,80005cfc <__divsf3+0x228>
80005b60:	04000737          	lui	a4,0x4000
80005b64:	00341593          	slli	a1,s0,0x3
80005b68:	f8178793          	addi	a5,a5,-127
80005b6c:	00e5e433          	or	s0,a1,a4
80005b70:	40f90933          	sub	s2,s2,a5
80005b74:	00000713          	li	a4,0
80005b78:	014ac6b3          	xor	a3,s5,s4
80005b7c:	00f00793          	li	a5,15
80005b80:	00068813          	mv	a6,a3
80005b84:	2097e063          	bltu	a5,s1,80005d84 <__divsf3+0x2b0>
80005b88:	00001617          	auipc	a2,0x1
80005b8c:	08060613          	addi	a2,a2,128 # 80006c08 <__clzsi2+0x8d4>
80005b90:	00249493          	slli	s1,s1,0x2
80005b94:	00c484b3          	add	s1,s1,a2
80005b98:	0004a783          	lw	a5,0(s1)
80005b9c:	00c787b3          	add	a5,a5,a2
80005ba0:	00078067          	jr	a5
80005ba4:	16099463          	bnez	s3,80005d0c <__divsf3+0x238>
80005ba8:	0175d793          	srli	a5,a1,0x17
80005bac:	00800437          	lui	s0,0x800
80005bb0:	01f5da13          	srli	s4,a1,0x1f
80005bb4:	fff40413          	addi	s0,s0,-1 # 7fffff <RAM_SIZE+0x7effff>
80005bb8:	0ff7f793          	andi	a5,a5,255
80005bbc:	00800493          	li	s1,8
80005bc0:	0ff00913          	li	s2,255
80005bc4:	00200b93          	li	s7,2
80005bc8:	00b47433          	and	s0,s0,a1
80005bcc:	000a0b13          	mv	s6,s4
80005bd0:	f80794e3          	bnez	a5,80005b58 <__divsf3+0x84>
80005bd4:	18041063          	bnez	s0,80005d54 <__divsf3+0x280>
80005bd8:	00100713          	li	a4,1
80005bdc:	009764b3          	or	s1,a4,s1
80005be0:	00f00793          	li	a5,15
80005be4:	014ac6b3          	xor	a3,s5,s4
80005be8:	0297e063          	bltu	a5,s1,80005c08 <__divsf3+0x134>
80005bec:	00001617          	auipc	a2,0x1
80005bf0:	05c60613          	addi	a2,a2,92 # 80006c48 <__clzsi2+0x914>
80005bf4:	00249493          	slli	s1,s1,0x2
80005bf8:	00c484b3          	add	s1,s1,a2
80005bfc:	0004a783          	lw	a5,0(s1)
80005c00:	00c787b3          	add	a5,a5,a2
80005c04:	00078067          	jr	a5
80005c08:	0ff00793          	li	a5,255
80005c0c:	00000513          	li	a0,0
80005c10:	00800737          	lui	a4,0x800
80005c14:	fff70713          	addi	a4,a4,-1 # 7fffff <RAM_SIZE+0x7effff>
80005c18:	00e57533          	and	a0,a0,a4
80005c1c:	80800737          	lui	a4,0x80800
80005c20:	03c12083          	lw	ra,60(sp)
80005c24:	03812403          	lw	s0,56(sp)
80005c28:	fff70713          	addi	a4,a4,-1 # 807fffff <__stack_top+0x7f552f>
80005c2c:	01779793          	slli	a5,a5,0x17
80005c30:	00e57533          	and	a0,a0,a4
80005c34:	01f69693          	slli	a3,a3,0x1f
80005c38:	00f56533          	or	a0,a0,a5
80005c3c:	03412483          	lw	s1,52(sp)
80005c40:	03012903          	lw	s2,48(sp)
80005c44:	02c12983          	lw	s3,44(sp)
80005c48:	02812a03          	lw	s4,40(sp)
80005c4c:	02412a83          	lw	s5,36(sp)
80005c50:	02012b03          	lw	s6,32(sp)
80005c54:	01c12b83          	lw	s7,28(sp)
80005c58:	00d56533          	or	a0,a0,a3
80005c5c:	04010113          	addi	sp,sp,64
80005c60:	00008067          	ret
80005c64:	00000693          	li	a3,0
80005c68:	0ff00793          	li	a5,255
80005c6c:	00400537          	lui	a0,0x400
80005c70:	fa1ff06f          	j	80005c10 <__divsf3+0x13c>
80005c74:	00000413          	li	s0,0
80005c78:	00200793          	li	a5,2
80005c7c:	22f70a63          	beq	a4,a5,80005eb0 <__divsf3+0x3dc>
80005c80:	00300793          	li	a5,3
80005c84:	fef700e3          	beq	a4,a5,80005c64 <__divsf3+0x190>
80005c88:	00100793          	li	a5,1
80005c8c:	0ef70463          	beq	a4,a5,80005d74 <__divsf3+0x2a0>
80005c90:	000b0813          	mv	a6,s6
80005c94:	07f90713          	addi	a4,s2,127
80005c98:	00187693          	andi	a3,a6,1
80005c9c:	18e05e63          	blez	a4,80005e38 <__divsf3+0x364>
80005ca0:	00747793          	andi	a5,s0,7
80005ca4:	00078a63          	beqz	a5,80005cb8 <__divsf3+0x1e4>
80005ca8:	00f47793          	andi	a5,s0,15
80005cac:	00400613          	li	a2,4
80005cb0:	00c78463          	beq	a5,a2,80005cb8 <__divsf3+0x1e4>
80005cb4:	00440413          	addi	s0,s0,4
80005cb8:	00441793          	slli	a5,s0,0x4
80005cbc:	0007da63          	bgez	a5,80005cd0 <__divsf3+0x1fc>
80005cc0:	f80007b7          	lui	a5,0xf8000
80005cc4:	fff78793          	addi	a5,a5,-1 # f7ffffff <__stack_top+0x77ff552f>
80005cc8:	00f47433          	and	s0,s0,a5
80005ccc:	08090713          	addi	a4,s2,128
80005cd0:	0fe00793          	li	a5,254
80005cd4:	f2e7cae3          	blt	a5,a4,80005c08 <__divsf3+0x134>
80005cd8:	00641593          	slli	a1,s0,0x6
80005cdc:	0095d513          	srli	a0,a1,0x9
80005ce0:	0ff77793          	andi	a5,a4,255
80005ce4:	f2dff06f          	j	80005c10 <__divsf3+0x13c>
80005ce8:	04099063          	bnez	s3,80005d28 <__divsf3+0x254>
80005cec:	00400493          	li	s1,4
80005cf0:	00000913          	li	s2,0
80005cf4:	00100b93          	li	s7,1
80005cf8:	e41ff06f          	j	80005b38 <__divsf3+0x64>
80005cfc:	f0190913          	addi	s2,s2,-255
80005d00:	00041e63          	bnez	s0,80005d1c <__divsf3+0x248>
80005d04:	00200713          	li	a4,2
80005d08:	ed5ff06f          	j	80005bdc <__divsf3+0x108>
80005d0c:	00c00493          	li	s1,12
80005d10:	0ff00913          	li	s2,255
80005d14:	00300b93          	li	s7,3
80005d18:	e21ff06f          	j	80005b38 <__divsf3+0x64>
80005d1c:	0034e493          	ori	s1,s1,3
80005d20:	00300713          	li	a4,3
80005d24:	e55ff06f          	j	80005b78 <__divsf3+0xa4>
80005d28:	00098513          	mv	a0,s3
80005d2c:	00b12623          	sw	a1,12(sp)
80005d30:	604000ef          	jal	ra,80006334 <__clzsi2>
80005d34:	ffb50793          	addi	a5,a0,-5 # 3ffffb <RAM_SIZE+0x3efffb>
80005d38:	00f999b3          	sll	s3,s3,a5
80005d3c:	f8a00793          	li	a5,-118
80005d40:	40a78933          	sub	s2,a5,a0
80005d44:	00000493          	li	s1,0
80005d48:	00000b93          	li	s7,0
80005d4c:	00c12583          	lw	a1,12(sp)
80005d50:	de9ff06f          	j	80005b38 <__divsf3+0x64>
80005d54:	00040513          	mv	a0,s0
80005d58:	5dc000ef          	jal	ra,80006334 <__clzsi2>
80005d5c:	ffb50713          	addi	a4,a0,-5
80005d60:	00a907b3          	add	a5,s2,a0
80005d64:	00e41433          	sll	s0,s0,a4
80005d68:	07678913          	addi	s2,a5,118
80005d6c:	00000713          	li	a4,0
80005d70:	e09ff06f          	j	80005b78 <__divsf3+0xa4>
80005d74:	000b0693          	mv	a3,s6
80005d78:	00000793          	li	a5,0
80005d7c:	00000513          	li	a0,0
80005d80:	e91ff06f          	j	80005c10 <__divsf3+0x13c>
80005d84:	000107b7          	lui	a5,0x10
80005d88:	00541893          	slli	a7,s0,0x5
80005d8c:	fff78793          	addi	a5,a5,-1 # ffff <HEAP_SIZE+0xf7ff>
80005d90:	0108d513          	srli	a0,a7,0x10
80005d94:	00f8f7b3          	and	a5,a7,a5
80005d98:	1089f063          	bleu	s0,s3,80005e98 <__divsf3+0x3c4>
80005d9c:	02a9d633          	divu	a2,s3,a0
80005da0:	fff90913          	addi	s2,s2,-1
80005da4:	00098693          	mv	a3,s3
80005da8:	00000713          	li	a4,0
80005dac:	02c785b3          	mul	a1,a5,a2
80005db0:	02a6f6b3          	remu	a3,a3,a0
80005db4:	01069693          	slli	a3,a3,0x10
80005db8:	00e6e733          	or	a4,a3,a4
80005dbc:	00b77e63          	bleu	a1,a4,80005dd8 <__divsf3+0x304>
80005dc0:	01170733          	add	a4,a4,a7
80005dc4:	fff60693          	addi	a3,a2,-1
80005dc8:	0f176c63          	bltu	a4,a7,80005ec0 <__divsf3+0x3ec>
80005dcc:	0eb77a63          	bleu	a1,a4,80005ec0 <__divsf3+0x3ec>
80005dd0:	ffe60613          	addi	a2,a2,-2
80005dd4:	01170733          	add	a4,a4,a7
80005dd8:	40b70733          	sub	a4,a4,a1
80005ddc:	02a75433          	divu	s0,a4,a0
80005de0:	02a77733          	remu	a4,a4,a0
80005de4:	02f406b3          	mul	a3,s0,a5
80005de8:	01071793          	slli	a5,a4,0x10
80005dec:	00d7fe63          	bleu	a3,a5,80005e08 <__divsf3+0x334>
80005df0:	011787b3          	add	a5,a5,a7
80005df4:	fff40713          	addi	a4,s0,-1
80005df8:	0d17e863          	bltu	a5,a7,80005ec8 <__divsf3+0x3f4>
80005dfc:	0cd7f663          	bleu	a3,a5,80005ec8 <__divsf3+0x3f4>
80005e00:	ffe40413          	addi	s0,s0,-2
80005e04:	011787b3          	add	a5,a5,a7
80005e08:	01061593          	slli	a1,a2,0x10
80005e0c:	40d787b3          	sub	a5,a5,a3
80005e10:	0085e5b3          	or	a1,a1,s0
80005e14:	00f037b3          	snez	a5,a5
80005e18:	00f5e433          	or	s0,a1,a5
80005e1c:	e79ff06f          	j	80005c94 <__divsf3+0x1c0>
80005e20:	000b8713          	mv	a4,s7
80005e24:	00200793          	li	a5,2
80005e28:	00098413          	mv	s0,s3
80005e2c:	000a8b13          	mv	s6,s5
80005e30:	e4f718e3          	bne	a4,a5,80005c80 <__divsf3+0x1ac>
80005e34:	07c0006f          	j	80005eb0 <__divsf3+0x3dc>
80005e38:	00100593          	li	a1,1
80005e3c:	40e585b3          	sub	a1,a1,a4
80005e40:	00070a63          	beqz	a4,80005e54 <__divsf3+0x380>
80005e44:	01b00713          	li	a4,27
80005e48:	00000793          	li	a5,0
80005e4c:	00000513          	li	a0,0
80005e50:	dcb740e3          	blt	a4,a1,80005c10 <__divsf3+0x13c>
80005e54:	09e90513          	addi	a0,s2,158
80005e58:	00a41533          	sll	a0,s0,a0
80005e5c:	00b455b3          	srl	a1,s0,a1
80005e60:	00a03533          	snez	a0,a0
80005e64:	00a5e5b3          	or	a1,a1,a0
80005e68:	0075f793          	andi	a5,a1,7
80005e6c:	00078a63          	beqz	a5,80005e80 <__divsf3+0x3ac>
80005e70:	00f5f793          	andi	a5,a1,15
80005e74:	00400713          	li	a4,4
80005e78:	00e78463          	beq	a5,a4,80005e80 <__divsf3+0x3ac>
80005e7c:	00458593          	addi	a1,a1,4
80005e80:	00559793          	slli	a5,a1,0x5
80005e84:	0407c663          	bltz	a5,80005ed0 <__divsf3+0x3fc>
80005e88:	00659513          	slli	a0,a1,0x6
80005e8c:	00955513          	srli	a0,a0,0x9
80005e90:	00000793          	li	a5,0
80005e94:	d7dff06f          	j	80005c10 <__divsf3+0x13c>
80005e98:	0019d693          	srli	a3,s3,0x1
80005e9c:	02a6d633          	divu	a2,a3,a0
80005ea0:	01f99713          	slli	a4,s3,0x1f
80005ea4:	01075713          	srli	a4,a4,0x10
80005ea8:	02c785b3          	mul	a1,a5,a2
80005eac:	f05ff06f          	j	80005db0 <__divsf3+0x2dc>
80005eb0:	000b0693          	mv	a3,s6
80005eb4:	0ff00793          	li	a5,255
80005eb8:	00000513          	li	a0,0
80005ebc:	d55ff06f          	j	80005c10 <__divsf3+0x13c>
80005ec0:	00068613          	mv	a2,a3
80005ec4:	f15ff06f          	j	80005dd8 <__divsf3+0x304>
80005ec8:	00070413          	mv	s0,a4
80005ecc:	f3dff06f          	j	80005e08 <__divsf3+0x334>
80005ed0:	00100793          	li	a5,1
80005ed4:	00000513          	li	a0,0
80005ed8:	d39ff06f          	j	80005c10 <__divsf3+0x13c>

80005edc <__floatsisf>:
__floatsisf():
80005edc:	ff010113          	addi	sp,sp,-16
80005ee0:	00112623          	sw	ra,12(sp)
80005ee4:	00812423          	sw	s0,8(sp)
80005ee8:	00912223          	sw	s1,4(sp)
80005eec:	10050663          	beqz	a0,80005ff8 <__floatsisf+0x11c>
80005ef0:	00050413          	mv	s0,a0
80005ef4:	01f55493          	srli	s1,a0,0x1f
80005ef8:	10054863          	bltz	a0,80006008 <__floatsisf+0x12c>
80005efc:	00040513          	mv	a0,s0
80005f00:	434000ef          	jal	ra,80006334 <__clzsi2>
80005f04:	09e00713          	li	a4,158
80005f08:	40a70733          	sub	a4,a4,a0
80005f0c:	09600793          	li	a5,150
80005f10:	02e7c463          	blt	a5,a4,80005f38 <__floatsisf+0x5c>
80005f14:	00800793          	li	a5,8
80005f18:	0ff77713          	andi	a4,a4,255
80005f1c:	10a7d663          	ble	a0,a5,80006028 <__floatsisf+0x14c>
80005f20:	ff850513          	addi	a0,a0,-8
80005f24:	008007b7          	lui	a5,0x800
80005f28:	00a41533          	sll	a0,s0,a0
80005f2c:	fff78793          	addi	a5,a5,-1 # 7fffff <RAM_SIZE+0x7effff>
80005f30:	00f57533          	and	a0,a0,a5
80005f34:	07c0006f          	j	80005fb0 <__floatsisf+0xd4>
80005f38:	09900793          	li	a5,153
80005f3c:	02e7d063          	ble	a4,a5,80005f5c <__floatsisf+0x80>
80005f40:	01b50793          	addi	a5,a0,27
80005f44:	00500693          	li	a3,5
80005f48:	00f417b3          	sll	a5,s0,a5
80005f4c:	40a686b3          	sub	a3,a3,a0
80005f50:	00d45433          	srl	s0,s0,a3
80005f54:	00f037b3          	snez	a5,a5
80005f58:	00f46433          	or	s0,s0,a5
80005f5c:	00500793          	li	a5,5
80005f60:	00a7d663          	ble	a0,a5,80005f6c <__floatsisf+0x90>
80005f64:	ffb50793          	addi	a5,a0,-5
80005f68:	00f41433          	sll	s0,s0,a5
80005f6c:	fc0006b7          	lui	a3,0xfc000
80005f70:	fff68693          	addi	a3,a3,-1 # fbffffff <__stack_top+0x7bff552f>
80005f74:	00747613          	andi	a2,s0,7
80005f78:	00d477b3          	and	a5,s0,a3
80005f7c:	02060463          	beqz	a2,80005fa4 <__floatsisf+0xc8>
80005f80:	00f47413          	andi	s0,s0,15
80005f84:	00400613          	li	a2,4
80005f88:	00c40e63          	beq	s0,a2,80005fa4 <__floatsisf+0xc8>
80005f8c:	00478793          	addi	a5,a5,4
80005f90:	00579613          	slli	a2,a5,0x5
80005f94:	00065863          	bgez	a2,80005fa4 <__floatsisf+0xc8>
80005f98:	09f00713          	li	a4,159
80005f9c:	00d7f7b3          	and	a5,a5,a3
80005fa0:	40a70733          	sub	a4,a4,a0
80005fa4:	00679513          	slli	a0,a5,0x6
80005fa8:	00955513          	srli	a0,a0,0x9
80005fac:	0ff77713          	andi	a4,a4,255
80005fb0:	008007b7          	lui	a5,0x800
80005fb4:	fff78793          	addi	a5,a5,-1 # 7fffff <RAM_SIZE+0x7effff>
80005fb8:	00f57533          	and	a0,a0,a5
80005fbc:	808007b7          	lui	a5,0x80800
80005fc0:	fff78793          	addi	a5,a5,-1 # 807fffff <__stack_top+0x7f552f>
80005fc4:	00f57533          	and	a0,a0,a5
80005fc8:	00c12083          	lw	ra,12(sp)
80005fcc:	00812403          	lw	s0,8(sp)
80005fd0:	01771713          	slli	a4,a4,0x17
80005fd4:	800007b7          	lui	a5,0x80000
80005fd8:	00e56533          	or	a0,a0,a4
80005fdc:	fff7c793          	not	a5,a5
80005fe0:	01f49493          	slli	s1,s1,0x1f
80005fe4:	00f57533          	and	a0,a0,a5
80005fe8:	00956533          	or	a0,a0,s1
80005fec:	00412483          	lw	s1,4(sp)
80005ff0:	01010113          	addi	sp,sp,16
80005ff4:	00008067          	ret
80005ff8:	00000493          	li	s1,0
80005ffc:	00000713          	li	a4,0
80006000:	00000513          	li	a0,0
80006004:	fadff06f          	j	80005fb0 <__floatsisf+0xd4>
80006008:	40a00433          	neg	s0,a0
8000600c:	00040513          	mv	a0,s0
80006010:	324000ef          	jal	ra,80006334 <__clzsi2>
80006014:	09e00713          	li	a4,158
80006018:	40a70733          	sub	a4,a4,a0
8000601c:	09600793          	li	a5,150
80006020:	f0e7cce3          	blt	a5,a4,80005f38 <__floatsisf+0x5c>
80006024:	ef1ff06f          	j	80005f14 <__floatsisf+0x38>
80006028:	008007b7          	lui	a5,0x800
8000602c:	fff78793          	addi	a5,a5,-1 # 7fffff <RAM_SIZE+0x7effff>
80006030:	00f47533          	and	a0,s0,a5
80006034:	f7dff06f          	j	80005fb0 <__floatsisf+0xd4>

80006038 <__extendsfdf2>:
__extendsfdf2():
80006038:	01755713          	srli	a4,a0,0x17
8000603c:	ff010113          	addi	sp,sp,-16
80006040:	0ff77713          	andi	a4,a4,255
80006044:	00812423          	sw	s0,8(sp)
80006048:	00170693          	addi	a3,a4,1
8000604c:	00800437          	lui	s0,0x800
80006050:	00912223          	sw	s1,4(sp)
80006054:	fff40413          	addi	s0,s0,-1 # 7fffff <RAM_SIZE+0x7effff>
80006058:	00112623          	sw	ra,12(sp)
8000605c:	0ff6f693          	andi	a3,a3,255
80006060:	00100793          	li	a5,1
80006064:	00a47433          	and	s0,s0,a0
80006068:	01f55493          	srli	s1,a0,0x1f
8000606c:	06d7d663          	ble	a3,a5,800060d8 <__extendsfdf2+0xa0>
80006070:	001006b7          	lui	a3,0x100
80006074:	00345793          	srli	a5,s0,0x3
80006078:	fff68693          	addi	a3,a3,-1 # fffff <RAM_SIZE+0xeffff>
8000607c:	00d7f7b3          	and	a5,a5,a3
80006080:	01d41413          	slli	s0,s0,0x1d
80006084:	38070713          	addi	a4,a4,896
80006088:	001006b7          	lui	a3,0x100
8000608c:	fff68693          	addi	a3,a3,-1 # fffff <RAM_SIZE+0xeffff>
80006090:	00d7f7b3          	and	a5,a5,a3
80006094:	801006b7          	lui	a3,0x80100
80006098:	fff68693          	addi	a3,a3,-1 # 800fffff <__stack_top+0xf552f>
8000609c:	01471713          	slli	a4,a4,0x14
800060a0:	00d7f7b3          	and	a5,a5,a3
800060a4:	00e7e7b3          	or	a5,a5,a4
800060a8:	80000737          	lui	a4,0x80000
800060ac:	fff74713          	not	a4,a4
800060b0:	01f49513          	slli	a0,s1,0x1f
800060b4:	00e7f7b3          	and	a5,a5,a4
800060b8:	00a7e7b3          	or	a5,a5,a0
800060bc:	00c12083          	lw	ra,12(sp)
800060c0:	00040513          	mv	a0,s0
800060c4:	00812403          	lw	s0,8(sp)
800060c8:	00412483          	lw	s1,4(sp)
800060cc:	00078593          	mv	a1,a5
800060d0:	01010113          	addi	sp,sp,16
800060d4:	00008067          	ret
800060d8:	04071463          	bnez	a4,80006120 <__extendsfdf2+0xe8>
800060dc:	06040c63          	beqz	s0,80006154 <__extendsfdf2+0x11c>
800060e0:	00040513          	mv	a0,s0
800060e4:	250000ef          	jal	ra,80006334 <__clzsi2>
800060e8:	00a00793          	li	a5,10
800060ec:	06a7ca63          	blt	a5,a0,80006160 <__extendsfdf2+0x128>
800060f0:	00b00713          	li	a4,11
800060f4:	40a70733          	sub	a4,a4,a0
800060f8:	01550793          	addi	a5,a0,21
800060fc:	00e45733          	srl	a4,s0,a4
80006100:	00f41433          	sll	s0,s0,a5
80006104:	38900693          	li	a3,905
80006108:	001007b7          	lui	a5,0x100
8000610c:	40a686b3          	sub	a3,a3,a0
80006110:	fff78793          	addi	a5,a5,-1 # fffff <RAM_SIZE+0xeffff>
80006114:	00f777b3          	and	a5,a4,a5
80006118:	7ff6f713          	andi	a4,a3,2047
8000611c:	f6dff06f          	j	80006088 <__extendsfdf2+0x50>
80006120:	02040463          	beqz	s0,80006148 <__extendsfdf2+0x110>
80006124:	00345713          	srli	a4,s0,0x3
80006128:	000807b7          	lui	a5,0x80
8000612c:	00f767b3          	or	a5,a4,a5
80006130:	00100737          	lui	a4,0x100
80006134:	fff70713          	addi	a4,a4,-1 # fffff <RAM_SIZE+0xeffff>
80006138:	00e7f7b3          	and	a5,a5,a4
8000613c:	01d41413          	slli	s0,s0,0x1d
80006140:	7ff00713          	li	a4,2047
80006144:	f45ff06f          	j	80006088 <__extendsfdf2+0x50>
80006148:	7ff00713          	li	a4,2047
8000614c:	00000793          	li	a5,0
80006150:	f39ff06f          	j	80006088 <__extendsfdf2+0x50>
80006154:	00000713          	li	a4,0
80006158:	00000793          	li	a5,0
8000615c:	f2dff06f          	j	80006088 <__extendsfdf2+0x50>
80006160:	ff550713          	addi	a4,a0,-11
80006164:	00e41733          	sll	a4,s0,a4
80006168:	00000413          	li	s0,0
8000616c:	f99ff06f          	j	80006104 <__extendsfdf2+0xcc>

80006170 <__truncdfsf2>:
__truncdfsf2():
80006170:	0145d693          	srli	a3,a1,0x14
80006174:	001007b7          	lui	a5,0x100
80006178:	7ff6f613          	andi	a2,a3,2047
8000617c:	fff78793          	addi	a5,a5,-1 # fffff <RAM_SIZE+0xeffff>
80006180:	00b7f7b3          	and	a5,a5,a1
80006184:	00160693          	addi	a3,a2,1
80006188:	00379793          	slli	a5,a5,0x3
8000618c:	01d55713          	srli	a4,a0,0x1d
80006190:	7ff6f693          	andi	a3,a3,2047
80006194:	00100313          	li	t1,1
80006198:	01f5d593          	srli	a1,a1,0x1f
8000619c:	00f76833          	or	a6,a4,a5
800061a0:	00351893          	slli	a7,a0,0x3
800061a4:	0cd35063          	ble	a3,t1,80006264 <__truncdfsf2+0xf4>
800061a8:	c8060693          	addi	a3,a2,-896
800061ac:	0fe00793          	li	a5,254
800061b0:	04d7d263          	ble	a3,a5,800061f4 <__truncdfsf2+0x84>
800061b4:	0ff00693          	li	a3,255
800061b8:	00000793          	li	a5,0
800061bc:	00800537          	lui	a0,0x800
800061c0:	fff50513          	addi	a0,a0,-1 # 7fffff <RAM_SIZE+0x7effff>
800061c4:	00a7f7b3          	and	a5,a5,a0
800061c8:	80800537          	lui	a0,0x80800
800061cc:	fff50513          	addi	a0,a0,-1 # 807fffff <__stack_top+0x7f552f>
800061d0:	01769693          	slli	a3,a3,0x17
800061d4:	00a7f533          	and	a0,a5,a0
800061d8:	800007b7          	lui	a5,0x80000
800061dc:	00d56533          	or	a0,a0,a3
800061e0:	fff7c793          	not	a5,a5
800061e4:	01f59593          	slli	a1,a1,0x1f
800061e8:	00f57533          	and	a0,a0,a5
800061ec:	00b56533          	or	a0,a0,a1
800061f0:	00008067          	ret
800061f4:	0cd05263          	blez	a3,800062b8 <__truncdfsf2+0x148>
800061f8:	00651793          	slli	a5,a0,0x6
800061fc:	00381713          	slli	a4,a6,0x3
80006200:	00f037b3          	snez	a5,a5
80006204:	00e7e7b3          	or	a5,a5,a4
80006208:	01d8d893          	srli	a7,a7,0x1d
8000620c:	0117e7b3          	or	a5,a5,a7
80006210:	0077f713          	andi	a4,a5,7
80006214:	00070a63          	beqz	a4,80006228 <__truncdfsf2+0xb8>
80006218:	00f7f713          	andi	a4,a5,15
8000621c:	00400613          	li	a2,4
80006220:	00c70463          	beq	a4,a2,80006228 <__truncdfsf2+0xb8>
80006224:	00478793          	addi	a5,a5,4 # 80000004 <__stack_top+0xffff5534>
80006228:	04000737          	lui	a4,0x4000
8000622c:	00e7f733          	and	a4,a5,a4
80006230:	06070063          	beqz	a4,80006290 <__truncdfsf2+0x120>
80006234:	00168693          	addi	a3,a3,1
80006238:	0ff00713          	li	a4,255
8000623c:	f6e68ce3          	beq	a3,a4,800061b4 <__truncdfsf2+0x44>
80006240:	1f800737          	lui	a4,0x1f800
80006244:	fff70713          	addi	a4,a4,-1 # 1f7fffff <RAM_SIZE+0x1f7effff>
80006248:	0037d793          	srli	a5,a5,0x3
8000624c:	00e7f7b3          	and	a5,a5,a4
80006250:	00800737          	lui	a4,0x800
80006254:	fff70713          	addi	a4,a4,-1 # 7fffff <RAM_SIZE+0x7effff>
80006258:	00e7f7b3          	and	a5,a5,a4
8000625c:	0ff6f693          	andi	a3,a3,255
80006260:	f5dff06f          	j	800061bc <__truncdfsf2+0x4c>
80006264:	011867b3          	or	a5,a6,a7
80006268:	00061a63          	bnez	a2,8000627c <__truncdfsf2+0x10c>
8000626c:	04079263          	bnez	a5,800062b0 <__truncdfsf2+0x140>
80006270:	00000693          	li	a3,0
80006274:	00000793          	li	a5,0
80006278:	f45ff06f          	j	800061bc <__truncdfsf2+0x4c>
8000627c:	f2078ce3          	beqz	a5,800061b4 <__truncdfsf2+0x44>
80006280:	00000593          	li	a1,0
80006284:	0ff00693          	li	a3,255
80006288:	004007b7          	lui	a5,0x400
8000628c:	f31ff06f          	j	800061bc <__truncdfsf2+0x4c>
80006290:	0037d793          	srli	a5,a5,0x3
80006294:	00068613          	mv	a2,a3
80006298:	00800737          	lui	a4,0x800
8000629c:	fff70713          	addi	a4,a4,-1 # 7fffff <RAM_SIZE+0x7effff>
800062a0:	00e7f7b3          	and	a5,a5,a4
800062a4:	0ff67693          	andi	a3,a2,255
800062a8:	f15ff06f          	j	800061bc <__truncdfsf2+0x4c>
800062ac:	00000613          	li	a2,0
800062b0:	00000793          	li	a5,0
800062b4:	fe5ff06f          	j	80006298 <__truncdfsf2+0x128>
800062b8:	fe900793          	li	a5,-23
800062bc:	fef6c8e3          	blt	a3,a5,800062ac <__truncdfsf2+0x13c>
800062c0:	01e00713          	li	a4,30
800062c4:	00800537          	lui	a0,0x800
800062c8:	40d70733          	sub	a4,a4,a3
800062cc:	01f00793          	li	a5,31
800062d0:	00a86533          	or	a0,a6,a0
800062d4:	02e7dc63          	ble	a4,a5,8000630c <__truncdfsf2+0x19c>
800062d8:	ffe00793          	li	a5,-2
800062dc:	40d787b3          	sub	a5,a5,a3
800062e0:	02000693          	li	a3,32
800062e4:	00f55833          	srl	a6,a0,a5
800062e8:	00d70863          	beq	a4,a3,800062f8 <__truncdfsf2+0x188>
800062ec:	ca260693          	addi	a3,a2,-862
800062f0:	00d51533          	sll	a0,a0,a3
800062f4:	00a8e8b3          	or	a7,a7,a0
800062f8:	011037b3          	snez	a5,a7
800062fc:	0107e7b3          	or	a5,a5,a6
80006300:	0077f713          	andi	a4,a5,7
80006304:	00000693          	li	a3,0
80006308:	f0dff06f          	j	80006214 <__truncdfsf2+0xa4>
8000630c:	c8260693          	addi	a3,a2,-894
80006310:	00d89833          	sll	a6,a7,a3
80006314:	00d51533          	sll	a0,a0,a3
80006318:	01003833          	snez	a6,a6
8000631c:	00e8d7b3          	srl	a5,a7,a4
80006320:	00a86533          	or	a0,a6,a0
80006324:	00a7e7b3          	or	a5,a5,a0
80006328:	0077f713          	andi	a4,a5,7
8000632c:	00000693          	li	a3,0
80006330:	ee5ff06f          	j	80006214 <__truncdfsf2+0xa4>

80006334 <__clzsi2>:
__clzsi2():
80006334:	000107b7          	lui	a5,0x10
80006338:	02f57463          	bleu	a5,a0,80006360 <__clzsi2+0x2c>
8000633c:	0ff00793          	li	a5,255
80006340:	02000713          	li	a4,32
80006344:	04a7e263          	bltu	a5,a0,80006388 <__clzsi2+0x54>
80006348:	00001797          	auipc	a5,0x1
8000634c:	94078793          	addi	a5,a5,-1728 # 80006c88 <__clz_tab>
80006350:	00a78533          	add	a0,a5,a0
80006354:	00054503          	lbu	a0,0(a0) # 800000 <RAM_SIZE+0x7f0000>
80006358:	40a70533          	sub	a0,a4,a0
8000635c:	00008067          	ret
80006360:	010007b7          	lui	a5,0x1000
80006364:	04f56263          	bltu	a0,a5,800063a8 <__clzsi2+0x74>
80006368:	00001797          	auipc	a5,0x1
8000636c:	92078793          	addi	a5,a5,-1760 # 80006c88 <__clz_tab>
80006370:	01855513          	srli	a0,a0,0x18
80006374:	00a78533          	add	a0,a5,a0
80006378:	00054503          	lbu	a0,0(a0)
8000637c:	00800713          	li	a4,8
80006380:	40a70533          	sub	a0,a4,a0
80006384:	00008067          	ret
80006388:	00001797          	auipc	a5,0x1
8000638c:	90078793          	addi	a5,a5,-1792 # 80006c88 <__clz_tab>
80006390:	00855513          	srli	a0,a0,0x8
80006394:	00a78533          	add	a0,a5,a0
80006398:	00054503          	lbu	a0,0(a0)
8000639c:	01800713          	li	a4,24
800063a0:	40a70533          	sub	a0,a4,a0
800063a4:	00008067          	ret
800063a8:	00001797          	auipc	a5,0x1
800063ac:	8e078793          	addi	a5,a5,-1824 # 80006c88 <__clz_tab>
800063b0:	01055513          	srli	a0,a0,0x10
800063b4:	00a78533          	add	a0,a5,a0
800063b8:	00054503          	lbu	a0,0(a0)
800063bc:	01000713          	li	a4,16
800063c0:	40a70533          	sub	a0,a4,a0
800063c4:	00008067          	ret
	...
800063d0:	6568                	flw	fa0,76(a0)
800063d2:	6c6c                	flw	fa1,92(s0)
800063d4:	0000006f          	j	800063d4 <__clzsi2+0xa0>
800063d8:	4844                	lw	s1,20(s0)
800063da:	5952                	lw	s2,52(sp)
800063dc:	4e4f5453          	0x4e4f5453
800063e0:	2045                	jal	80006480 <__clzsi2+0x14c>
800063e2:	5250                	lw	a2,36(a2)
800063e4:	4152474f          	fnmadd.s	fa4,ft4,fs5,fs0,rmm
800063e8:	2c4d                	jal	8000669a <__clzsi2+0x366>
800063ea:	5320                	lw	s0,96(a4)
800063ec:	20454d4f          	fnmadd.s	fs10,fa0,ft4,ft4,rmm
800063f0:	49525453          	0x49525453
800063f4:	474e                	lw	a4,208(sp)
800063f6:	0000                	unimp
800063f8:	4844                	lw	s1,20(s0)
800063fa:	5952                	lw	s2,52(sp)
800063fc:	4e4f5453          	0x4e4f5453
80006400:	2045                	jal	800064a0 <__clzsi2+0x16c>
80006402:	5250                	lw	a2,36(a2)
80006404:	4152474f          	fnmadd.s	fa4,ft4,fs5,fs0,rmm
80006408:	2c4d                	jal	800066ba <__clzsi2+0x386>
8000640a:	3120                	fld	fs0,96(a0)
8000640c:	20545327          	0x20545327
80006410:	49525453          	0x49525453
80006414:	474e                	lw	a4,208(sp)
80006416:	0000                	unimp
80006418:	000a                	c.slli	zero,0x2
8000641a:	0000                	unimp
8000641c:	6844                	flw	fs1,20(s0)
8000641e:	7972                	flw	fs2,60(sp)
80006420:	6e6f7473          	csrrci	s0,0x6e6,30
80006424:	2065                	jal	800064cc <__clzsi2+0x198>
80006426:	6542                	flw	fa0,16(sp)
80006428:	636e                	flw	ft6,216(sp)
8000642a:	6d68                	flw	fa0,92(a0)
8000642c:	7261                	lui	tp,0xffff8
8000642e:	56202c6b          	0x56202c6b
80006432:	7265                	lui	tp,0xffff9
80006434:	6e6f6973          	csrrsi	s2,0x6e6,30
80006438:	3220                	fld	fs0,96(a2)
8000643a:	312e                	fld	ft2,232(sp)
8000643c:	2820                	fld	fs0,80(s0)
8000643e:	614c                	flw	fa1,4(a0)
80006440:	676e                	flw	fa4,216(sp)
80006442:	6175                	addi	sp,sp,368
80006444:	203a6567          	0x203a6567
80006448:	000a2943          	fmadd.s	fs2,fs4,ft0,ft0,rdn
8000644c:	7250                	flw	fa2,36(a2)
8000644e:	6172676f          	jal	a4,8002d264 <__stack_top+0x22794>
80006452:	206d                	jal	800064fc <__clzsi2+0x1c8>
80006454:	706d6f63          	bltu	s10,t1,80006b72 <__clzsi2+0x83e>
80006458:	6c69                	lui	s8,0x1a
8000645a:	6465                	lui	s0,0x19
8000645c:	7720                	flw	fs0,104(a4)
8000645e:	7469                	lui	s0,0xffffa
80006460:	2068                	fld	fa0,192(s0)
80006462:	67657227          	0x67657227
80006466:	7369                	lui	t1,0xffffa
80006468:	6574                	flw	fa3,76(a0)
8000646a:	2772                	fld	fa4,280(sp)
8000646c:	6120                	flw	fs0,64(a0)
8000646e:	7474                	flw	fa3,108(s0)
80006470:	6972                	flw	fs2,28(sp)
80006472:	7562                	flw	fa0,56(sp)
80006474:	6574                	flw	fa3,76(a0)
80006476:	000a                	c.slli	zero,0x2
80006478:	7250                	flw	fa2,36(a2)
8000647a:	6172676f          	jal	a4,8002d290 <__stack_top+0x227c0>
8000647e:	206d                	jal	80006528 <__clzsi2+0x1f4>
80006480:	706d6f63          	bltu	s10,t1,80006b9e <__clzsi2+0x86a>
80006484:	6c69                	lui	s8,0x1a
80006486:	6465                	lui	s0,0x19
80006488:	7720                	flw	fs0,104(a4)
8000648a:	7469                	lui	s0,0xffffa
8000648c:	6f68                	flw	fa0,92(a4)
8000648e:	7475                	lui	s0,0xffffd
80006490:	2720                	fld	fs0,72(a4)
80006492:	6572                	flw	fa0,28(sp)
80006494:	74736967          	0x74736967
80006498:	7265                	lui	tp,0xffff9
8000649a:	74612027          	fsw	ft6,1856(sp)
8000649e:	7274                	flw	fa3,100(a2)
800064a0:	6269                	lui	tp,0x1a
800064a2:	7475                	lui	s0,0xffffd
800064a4:	0a65                	addi	s4,s4,25
800064a6:	0000                	unimp
800064a8:	6c50                	flw	fa2,28(s0)
800064aa:	6165                	addi	sp,sp,112
800064ac:	67206573          	csrrsi	a0,0x672,0
800064b0:	7669                	lui	a2,0xffffa
800064b2:	2065                	jal	8000655a <__clzsi2+0x226>
800064b4:	6874                	flw	fa3,84(s0)
800064b6:	2065                	jal	8000655e <__clzsi2+0x22a>
800064b8:	756e                	flw	fa0,248(sp)
800064ba:	626d                	lui	tp,0x1b
800064bc:	7265                	lui	tp,0xffff9
800064be:	6f20                	flw	fs0,88(a4)
800064c0:	2066                	fld	ft0,88(sp)
800064c2:	7572                	flw	fa0,60(sp)
800064c4:	736e                	flw	ft6,248(sp)
800064c6:	7420                	flw	fs0,104(s0)
800064c8:	7268                	flw	fa0,100(a2)
800064ca:	6867756f          	jal	a0,8007db50 <__stack_top+0x73080>
800064ce:	7420                	flw	fs0,104(s0)
800064d0:	6568                	flw	fa0,76(a0)
800064d2:	6220                	flw	fs0,64(a2)
800064d4:	6e65                	lui	t3,0x19
800064d6:	616d6863          	bltu	s10,s6,80006ae6 <__clzsi2+0x7b2>
800064da:	6b72                	flw	fs6,28(sp)
800064dc:	203a                	fld	ft0,392(sp)
800064de:	0000                	unimp
800064e0:	6425                	lui	s0,0x9
800064e2:	0000                	unimp
800064e4:	7845                	lui	a6,0xffff1
800064e6:	6365                	lui	t1,0x19
800064e8:	7475                	lui	s0,0xffffd
800064ea:	6f69                	lui	t5,0x1a
800064ec:	206e                	fld	ft0,216(sp)
800064ee:	72617473          	csrrci	s0,0x726,2
800064f2:	7374                	flw	fa3,100(a4)
800064f4:	202c                	fld	fa1,64(s0)
800064f6:	6425                	lui	s0,0x9
800064f8:	7220                	flw	fs0,96(a2)
800064fa:	6e75                	lui	t3,0x1d
800064fc:	68742073          	csrs	0x687,s0
80006500:	6f72                	flw	ft10,28(sp)
80006502:	6775                	lui	a4,0x1d
80006504:	2068                	fld	fa0,192(s0)
80006506:	6844                	flw	fs1,20(s0)
80006508:	7972                	flw	fs2,60(sp)
8000650a:	6e6f7473          	csrrci	s0,0x6e6,30
8000650e:	0a65                	addi	s4,s4,25
80006510:	0000                	unimp
80006512:	0000                	unimp
80006514:	4844                	lw	s1,20(s0)
80006516:	5952                	lw	s2,52(sp)
80006518:	4e4f5453          	0x4e4f5453
8000651c:	2045                	jal	800065bc <__clzsi2+0x288>
8000651e:	5250                	lw	a2,36(a2)
80006520:	4152474f          	fnmadd.s	fa4,ft4,fs5,fs0,rmm
80006524:	2c4d                	jal	800067d6 <__clzsi2+0x4a2>
80006526:	3220                	fld	fs0,96(a2)
80006528:	20444e27          	fsq	ft4,540(s0) # 921c <HEAP_SIZE+0x8a1c>
8000652c:	49525453          	0x49525453
80006530:	474e                	lw	a4,208(sp)
80006532:	0000                	unimp
80006534:	4844                	lw	s1,20(s0)
80006536:	5952                	lw	s2,52(sp)
80006538:	4e4f5453          	0x4e4f5453
8000653c:	2045                	jal	800065dc <__clzsi2+0x2a8>
8000653e:	5250                	lw	a2,36(a2)
80006540:	4152474f          	fnmadd.s	fa4,ft4,fs5,fs0,rmm
80006544:	2c4d                	jal	800067f6 <__clzsi2+0x4c2>
80006546:	3320                	fld	fs0,96(a4)
80006548:	20445227          	0x20445227
8000654c:	49525453          	0x49525453
80006550:	474e                	lw	a4,208(sp)
80006552:	0000                	unimp
80006554:	7845                	lui	a6,0xffff1
80006556:	6365                	lui	t1,0x19
80006558:	7475                	lui	s0,0xffffd
8000655a:	6f69                	lui	t5,0x1a
8000655c:	206e                	fld	ft0,216(sp)
8000655e:	6e65                	lui	t3,0x19
80006560:	7364                	flw	fs1,100(a4)
80006562:	000a                	c.slli	zero,0x2
80006564:	6946                	flw	fs2,80(sp)
80006566:	616e                	flw	ft2,216(sp)
80006568:	206c                	fld	fa1,192(s0)
8000656a:	6176                	flw	ft2,92(sp)
8000656c:	756c                	flw	fa1,108(a0)
8000656e:	7365                	lui	t1,0xffff9
80006570:	6f20                	flw	fs0,88(a4)
80006572:	2066                	fld	ft0,88(sp)
80006574:	6874                	flw	fa3,84(s0)
80006576:	2065                	jal	8000661e <__clzsi2+0x2ea>
80006578:	6176                	flw	ft2,92(sp)
8000657a:	6972                	flw	fs2,28(sp)
8000657c:	6261                	lui	tp,0x18
8000657e:	656c                	flw	fa1,76(a0)
80006580:	73752073          	csrs	0x737,a0
80006584:	6465                	lui	s0,0x19
80006586:	6920                	flw	fs0,80(a0)
80006588:	206e                	fld	ft0,216(sp)
8000658a:	6874                	flw	fa3,84(s0)
8000658c:	2065                	jal	80006634 <__clzsi2+0x300>
8000658e:	6562                	flw	fa0,24(sp)
80006590:	636e                	flw	ft6,216(sp)
80006592:	6d68                	flw	fa0,92(a0)
80006594:	7261                	lui	tp,0xffff8
80006596:	000a3a6b          	0xa3a6b
8000659a:	0000                	unimp
8000659c:	6e49                	lui	t3,0x12
8000659e:	5f74                	lw	a3,124(a4)
800065a0:	626f6c47          	fmsub.d	fs8,ft10,ft6,fa2,unknown
800065a4:	203a                	fld	ft0,392(sp)
800065a6:	2020                	fld	fs0,64(s0)
800065a8:	2020                	fld	fs0,64(s0)
800065aa:	2020                	fld	fs0,64(s0)
800065ac:	2020                	fld	fs0,64(s0)
800065ae:	2020                	fld	fs0,64(s0)
800065b0:	2520                	fld	fs0,72(a0)
800065b2:	0a64                	addi	s1,sp,284
800065b4:	0000                	unimp
800065b6:	0000                	unimp
800065b8:	2020                	fld	fs0,64(s0)
800065ba:	2020                	fld	fs0,64(s0)
800065bc:	2020                	fld	fs0,64(s0)
800065be:	2020                	fld	fs0,64(s0)
800065c0:	756f6873          	csrrsi	a6,0x756,30
800065c4:	646c                	flw	fa1,76(s0)
800065c6:	6220                	flw	fs0,64(a2)
800065c8:	3a65                	jal	80005f80 <__floatsisf+0xa4>
800065ca:	2020                	fld	fs0,64(s0)
800065cc:	2520                	fld	fs0,72(a0)
800065ce:	0a64                	addi	s1,sp,284
800065d0:	0000                	unimp
800065d2:	0000                	unimp
800065d4:	6f42                	flw	ft10,16(sp)
800065d6:	475f6c6f          	jal	s8,800fd24a <__stack_top+0xf277a>
800065da:	6f6c                	flw	fa1,92(a4)
800065dc:	3a62                	fld	fs4,56(sp)
800065de:	2020                	fld	fs0,64(s0)
800065e0:	2020                	fld	fs0,64(s0)
800065e2:	2020                	fld	fs0,64(s0)
800065e4:	2020                	fld	fs0,64(s0)
800065e6:	2020                	fld	fs0,64(s0)
800065e8:	2520                	fld	fs0,72(a0)
800065ea:	0a64                	addi	s1,sp,284
800065ec:	0000                	unimp
800065ee:	0000                	unimp
800065f0:	315f6843          	fmadd.s	fa6,ft10,fs5,ft6,unknown
800065f4:	475f 6f6c 3a62      	0x3a626f6c475f
800065fa:	2020                	fld	fs0,64(s0)
800065fc:	2020                	fld	fs0,64(s0)
800065fe:	2020                	fld	fs0,64(s0)
80006600:	2020                	fld	fs0,64(s0)
80006602:	2020                	fld	fs0,64(s0)
80006604:	2520                	fld	fs0,72(a0)
80006606:	00000a63          	beqz	zero,8000661a <__clzsi2+0x2e6>
8000660a:	0000                	unimp
8000660c:	2020                	fld	fs0,64(s0)
8000660e:	2020                	fld	fs0,64(s0)
80006610:	2020                	fld	fs0,64(s0)
80006612:	2020                	fld	fs0,64(s0)
80006614:	756f6873          	csrrsi	a6,0x756,30
80006618:	646c                	flw	fa1,76(s0)
8000661a:	6220                	flw	fs0,64(a2)
8000661c:	3a65                	jal	80005fd4 <__floatsisf+0xf8>
8000661e:	2020                	fld	fs0,64(s0)
80006620:	2520                	fld	fs0,72(a0)
80006622:	00000a63          	beqz	zero,80006636 <__clzsi2+0x302>
80006626:	0000                	unimp
80006628:	325f6843          	fmadd.d	fa6,ft10,ft5,ft6,unknown
8000662c:	475f 6f6c 3a62      	0x3a626f6c475f
80006632:	2020                	fld	fs0,64(s0)
80006634:	2020                	fld	fs0,64(s0)
80006636:	2020                	fld	fs0,64(s0)
80006638:	2020                	fld	fs0,64(s0)
8000663a:	2020                	fld	fs0,64(s0)
8000663c:	2520                	fld	fs0,72(a0)
8000663e:	00000a63          	beqz	zero,80006652 <__clzsi2+0x31e>
80006642:	0000                	unimp
80006644:	7241                	lui	tp,0xffff0
80006646:	5f72                	lw	t5,60(sp)
80006648:	5f31                	li	t5,-20
8000664a:	626f6c47          	fmsub.d	fs8,ft10,ft6,fa2,unknown
8000664e:	3a5d385b          	0x3a5d385b
80006652:	2020                	fld	fs0,64(s0)
80006654:	2020                	fld	fs0,64(s0)
80006656:	2020                	fld	fs0,64(s0)
80006658:	2520                	fld	fs0,72(a0)
8000665a:	0a64                	addi	s1,sp,284
8000665c:	0000                	unimp
8000665e:	0000                	unimp
80006660:	7241                	lui	tp,0xffff0
80006662:	5f72                	lw	t5,60(sp)
80006664:	5f32                	lw	t5,44(sp)
80006666:	626f6c47          	fmsub.d	fs8,ft10,ft6,fa2,unknown
8000666a:	5b5d385b          	0x5b5d385b
8000666e:	203a5d37          	lui	s10,0x203a5
80006672:	2020                	fld	fs0,64(s0)
80006674:	2520                	fld	fs0,72(a0)
80006676:	0a64                	addi	s1,sp,284
80006678:	0000                	unimp
8000667a:	0000                	unimp
8000667c:	2020                	fld	fs0,64(s0)
8000667e:	2020                	fld	fs0,64(s0)
80006680:	2020                	fld	fs0,64(s0)
80006682:	2020                	fld	fs0,64(s0)
80006684:	756f6873          	csrrsi	a6,0x756,30
80006688:	646c                	flw	fa1,76(s0)
8000668a:	6220                	flw	fs0,64(a2)
8000668c:	3a65                	jal	80006044 <__extendsfdf2+0xc>
8000668e:	2020                	fld	fs0,64(s0)
80006690:	4e20                	lw	s0,88(a2)
80006692:	6d75                	lui	s10,0x1d
80006694:	6562                	flw	fa0,24(sp)
80006696:	5f72                	lw	t5,60(sp)
80006698:	525f664f          	fnmadd.d	fa2,ft10,ft5,fa0,unknown
8000669c:	6e75                	lui	t3,0x1d
8000669e:	202b2073          	csrs	hedeleg,s6
800066a2:	3031                	jal	80005eae <__divsf3+0x3da>
800066a4:	000a                	c.slli	zero,0x2
800066a6:	0000                	unimp
800066a8:	7450                	flw	fa2,44(s0)
800066aa:	5f72                	lw	t5,60(sp)
800066ac:	626f6c47          	fmsub.d	fs8,ft10,ft6,fa2,unknown
800066b0:	3e2d                	jal	800061ea <__truncdfsf2+0x7a>
800066b2:	000a                	c.slli	zero,0x2
800066b4:	2020                	fld	fs0,64(s0)
800066b6:	7450                	flw	fa2,44(s0)
800066b8:	5f72                	lw	t5,60(sp)
800066ba:	706d6f43          	fmadd.s	ft10,fs10,ft6,fa4,unknown
800066be:	203a                	fld	ft0,392(sp)
800066c0:	2020                	fld	fs0,64(s0)
800066c2:	2020                	fld	fs0,64(s0)
800066c4:	2020                	fld	fs0,64(s0)
800066c6:	2020                	fld	fs0,64(s0)
800066c8:	2520                	fld	fs0,72(a0)
800066ca:	0a64                	addi	s1,sp,284
800066cc:	0000                	unimp
800066ce:	0000                	unimp
800066d0:	2020                	fld	fs0,64(s0)
800066d2:	2020                	fld	fs0,64(s0)
800066d4:	2020                	fld	fs0,64(s0)
800066d6:	2020                	fld	fs0,64(s0)
800066d8:	756f6873          	csrrsi	a6,0x756,30
800066dc:	646c                	flw	fa1,76(s0)
800066de:	6220                	flw	fs0,64(a2)
800066e0:	3a65                	jal	80006098 <__extendsfdf2+0x60>
800066e2:	2020                	fld	fs0,64(s0)
800066e4:	2820                	fld	fs0,80(s0)
800066e6:	6d69                	lui	s10,0x1a
800066e8:	6c70                	flw	fa2,92(s0)
800066ea:	6d65                	lui	s10,0x19
800066ec:	6e65                	lui	t3,0x19
800066ee:	6174                	flw	fa3,68(a0)
800066f0:	6974                	flw	fa3,84(a0)
800066f2:	642d6e6f          	jal	t3,800dcd34 <__stack_top+0xd2264>
800066f6:	7065                	c.lui	zero,0xffff9
800066f8:	6e65                	lui	t3,0x19
800066fa:	6564                	flw	fs1,76(a0)
800066fc:	746e                	flw	fs0,248(sp)
800066fe:	0a29                	addi	s4,s4,10
80006700:	0000                	unimp
80006702:	0000                	unimp
80006704:	2020                	fld	fs0,64(s0)
80006706:	6944                	flw	fs1,20(a0)
80006708:	3a726373          	csrrsi	t1,0x3a7,4
8000670c:	2020                	fld	fs0,64(s0)
8000670e:	2020                	fld	fs0,64(s0)
80006710:	2020                	fld	fs0,64(s0)
80006712:	2020                	fld	fs0,64(s0)
80006714:	2020                	fld	fs0,64(s0)
80006716:	2020                	fld	fs0,64(s0)
80006718:	2520                	fld	fs0,72(a0)
8000671a:	0a64                	addi	s1,sp,284
8000671c:	0000                	unimp
8000671e:	0000                	unimp
80006720:	2020                	fld	fs0,64(s0)
80006722:	6e45                	lui	t3,0x11
80006724:	6d75                	lui	s10,0x1d
80006726:	435f 6d6f 3a70      	0x3a706d6f435f
8000672c:	2020                	fld	fs0,64(s0)
8000672e:	2020                	fld	fs0,64(s0)
80006730:	2020                	fld	fs0,64(s0)
80006732:	2020                	fld	fs0,64(s0)
80006734:	2520                	fld	fs0,72(a0)
80006736:	0a64                	addi	s1,sp,284
80006738:	0000                	unimp
8000673a:	0000                	unimp
8000673c:	2020                	fld	fs0,64(s0)
8000673e:	6e49                	lui	t3,0x12
80006740:	5f74                	lw	a3,124(a4)
80006742:	706d6f43          	fmadd.s	ft10,fs10,ft6,fa4,unknown
80006746:	203a                	fld	ft0,392(sp)
80006748:	2020                	fld	fs0,64(s0)
8000674a:	2020                	fld	fs0,64(s0)
8000674c:	2020                	fld	fs0,64(s0)
8000674e:	2020                	fld	fs0,64(s0)
80006750:	2520                	fld	fs0,72(a0)
80006752:	0a64                	addi	s1,sp,284
80006754:	0000                	unimp
80006756:	0000                	unimp
80006758:	2020                	fld	fs0,64(s0)
8000675a:	5f727453          	0x5f727453
8000675e:	706d6f43          	fmadd.s	ft10,fs10,ft6,fa4,unknown
80006762:	203a                	fld	ft0,392(sp)
80006764:	2020                	fld	fs0,64(s0)
80006766:	2020                	fld	fs0,64(s0)
80006768:	2020                	fld	fs0,64(s0)
8000676a:	2020                	fld	fs0,64(s0)
8000676c:	2520                	fld	fs0,72(a0)
8000676e:	00000a73          	0xa73
80006772:	0000                	unimp
80006774:	2020                	fld	fs0,64(s0)
80006776:	2020                	fld	fs0,64(s0)
80006778:	2020                	fld	fs0,64(s0)
8000677a:	2020                	fld	fs0,64(s0)
8000677c:	756f6873          	csrrsi	a6,0x756,30
80006780:	646c                	flw	fa1,76(s0)
80006782:	6220                	flw	fs0,64(a2)
80006784:	3a65                	jal	8000613c <__extendsfdf2+0x104>
80006786:	2020                	fld	fs0,64(s0)
80006788:	4420                	lw	s0,72(s0)
8000678a:	5248                	lw	a0,36(a2)
8000678c:	5359                	li	t1,-10
8000678e:	4f54                	lw	a3,28(a4)
80006790:	454e                	lw	a0,208(sp)
80006792:	5020                	lw	s0,96(s0)
80006794:	4f52                	lw	t5,20(sp)
80006796:	4d415247          	0x4d415247
8000679a:	202c                	fld	fa1,64(s0)
8000679c:	454d4f53          	0x454d4f53
800067a0:	5320                	lw	s0,96(a4)
800067a2:	5254                	lw	a3,36(a2)
800067a4:	4e49                	li	t3,18
800067a6:	00000a47          	fmsub.s	fs4,ft0,ft0,ft0,rne
800067aa:	0000                	unimp
800067ac:	654e                	flw	fa0,208(sp)
800067ae:	7478                	flw	fa4,108(s0)
800067b0:	505f 7274 475f      	0x475f7274505f
800067b6:	6f6c                	flw	fa1,92(a4)
800067b8:	2d62                	fld	fs10,24(sp)
800067ba:	0a3e                	slli	s4,s4,0xf
800067bc:	0000                	unimp
800067be:	0000                	unimp
800067c0:	2020                	fld	fs0,64(s0)
800067c2:	2020                	fld	fs0,64(s0)
800067c4:	2020                	fld	fs0,64(s0)
800067c6:	2020                	fld	fs0,64(s0)
800067c8:	756f6873          	csrrsi	a6,0x756,30
800067cc:	646c                	flw	fa1,76(s0)
800067ce:	6220                	flw	fs0,64(a2)
800067d0:	3a65                	jal	80006188 <__truncdfsf2+0x18>
800067d2:	2020                	fld	fs0,64(s0)
800067d4:	2820                	fld	fs0,80(s0)
800067d6:	6d69                	lui	s10,0x1a
800067d8:	6c70                	flw	fa2,92(s0)
800067da:	6d65                	lui	s10,0x19
800067dc:	6e65                	lui	t3,0x19
800067de:	6174                	flw	fa3,68(a0)
800067e0:	6974                	flw	fa3,84(a0)
800067e2:	642d6e6f          	jal	t3,800dce24 <__stack_top+0xd2354>
800067e6:	7065                	c.lui	zero,0xffff9
800067e8:	6e65                	lui	t3,0x19
800067ea:	6564                	flw	fs1,76(a0)
800067ec:	746e                	flw	fs0,248(sp)
800067ee:	2c29                	jal	80006a08 <__clzsi2+0x6d4>
800067f0:	7320                	flw	fs0,96(a4)
800067f2:	6d61                	lui	s10,0x18
800067f4:	2065                	jal	8000689c <__clzsi2+0x568>
800067f6:	7361                	lui	t1,0xffff8
800067f8:	6120                	flw	fs0,64(a0)
800067fa:	6f62                	flw	ft10,24(sp)
800067fc:	6576                	flw	fa0,92(sp)
800067fe:	000a                	c.slli	zero,0x2
80006800:	6e49                	lui	t3,0x12
80006802:	5f74                	lw	a3,124(a4)
80006804:	5f31                	li	t5,-20
80006806:	6f4c                	flw	fa1,28(a4)
80006808:	20203a63          	0x20203a63
8000680c:	2020                	fld	fs0,64(s0)
8000680e:	2020                	fld	fs0,64(s0)
80006810:	2020                	fld	fs0,64(s0)
80006812:	2020                	fld	fs0,64(s0)
80006814:	2520                	fld	fs0,72(a0)
80006816:	0a64                	addi	s1,sp,284
80006818:	0000                	unimp
8000681a:	0000                	unimp
8000681c:	6e49                	lui	t3,0x12
8000681e:	5f74                	lw	a3,124(a4)
80006820:	5f32                	lw	t5,44(sp)
80006822:	6f4c                	flw	fa1,28(a4)
80006824:	20203a63          	0x20203a63
80006828:	2020                	fld	fs0,64(s0)
8000682a:	2020                	fld	fs0,64(s0)
8000682c:	2020                	fld	fs0,64(s0)
8000682e:	2020                	fld	fs0,64(s0)
80006830:	2520                	fld	fs0,72(a0)
80006832:	0a64                	addi	s1,sp,284
80006834:	0000                	unimp
80006836:	0000                	unimp
80006838:	6e49                	lui	t3,0x12
8000683a:	5f74                	lw	a3,124(a4)
8000683c:	6f4c5f33          	0x6f4c5f33
80006840:	20203a63          	0x20203a63
80006844:	2020                	fld	fs0,64(s0)
80006846:	2020                	fld	fs0,64(s0)
80006848:	2020                	fld	fs0,64(s0)
8000684a:	2020                	fld	fs0,64(s0)
8000684c:	2520                	fld	fs0,72(a0)
8000684e:	0a64                	addi	s1,sp,284
80006850:	0000                	unimp
80006852:	0000                	unimp
80006854:	6e45                	lui	t3,0x11
80006856:	6d75                	lui	s10,0x1d
80006858:	4c5f 636f 203a      	0x203a636f4c5f
8000685e:	2020                	fld	fs0,64(s0)
80006860:	2020                	fld	fs0,64(s0)
80006862:	2020                	fld	fs0,64(s0)
80006864:	2020                	fld	fs0,64(s0)
80006866:	2020                	fld	fs0,64(s0)
80006868:	2520                	fld	fs0,72(a0)
8000686a:	0a64                	addi	s1,sp,284
8000686c:	0000                	unimp
8000686e:	0000                	unimp
80006870:	5f727453          	0x5f727453
80006874:	5f31                	li	t5,-20
80006876:	6f4c                	flw	fa1,28(a4)
80006878:	20203a63          	0x20203a63
8000687c:	2020                	fld	fs0,64(s0)
8000687e:	2020                	fld	fs0,64(s0)
80006880:	2020                	fld	fs0,64(s0)
80006882:	2020                	fld	fs0,64(s0)
80006884:	2520                	fld	fs0,72(a0)
80006886:	00000a73          	0xa73
8000688a:	0000                	unimp
8000688c:	2020                	fld	fs0,64(s0)
8000688e:	2020                	fld	fs0,64(s0)
80006890:	2020                	fld	fs0,64(s0)
80006892:	2020                	fld	fs0,64(s0)
80006894:	756f6873          	csrrsi	a6,0x756,30
80006898:	646c                	flw	fa1,76(s0)
8000689a:	6220                	flw	fs0,64(a2)
8000689c:	3a65                	jal	80006254 <__truncdfsf2+0xe4>
8000689e:	2020                	fld	fs0,64(s0)
800068a0:	4420                	lw	s0,72(s0)
800068a2:	5248                	lw	a0,36(a2)
800068a4:	5359                	li	t1,-10
800068a6:	4f54                	lw	a3,28(a4)
800068a8:	454e                	lw	a0,208(sp)
800068aa:	5020                	lw	s0,96(s0)
800068ac:	4f52                	lw	t5,20(sp)
800068ae:	4d415247          	0x4d415247
800068b2:	202c                	fld	fa1,64(s0)
800068b4:	2731                	jal	80006fc0 <impure_data+0x150>
800068b6:	53205453          	0x53205453
800068ba:	5254                	lw	a3,36(a2)
800068bc:	4e49                	li	t3,18
800068be:	00000a47          	fmsub.s	fs4,ft0,ft0,ft0,rne
800068c2:	0000                	unimp
800068c4:	5f727453          	0x5f727453
800068c8:	5f32                	lw	t5,44(sp)
800068ca:	6f4c                	flw	fa1,28(a4)
800068cc:	20203a63          	0x20203a63
800068d0:	2020                	fld	fs0,64(s0)
800068d2:	2020                	fld	fs0,64(s0)
800068d4:	2020                	fld	fs0,64(s0)
800068d6:	2020                	fld	fs0,64(s0)
800068d8:	2520                	fld	fs0,72(a0)
800068da:	00000a73          	0xa73
800068de:	0000                	unimp
800068e0:	2020                	fld	fs0,64(s0)
800068e2:	2020                	fld	fs0,64(s0)
800068e4:	2020                	fld	fs0,64(s0)
800068e6:	2020                	fld	fs0,64(s0)
800068e8:	756f6873          	csrrsi	a6,0x756,30
800068ec:	646c                	flw	fa1,76(s0)
800068ee:	6220                	flw	fs0,64(a2)
800068f0:	3a65                	jal	800062a8 <__truncdfsf2+0x138>
800068f2:	2020                	fld	fs0,64(s0)
800068f4:	4420                	lw	s0,72(s0)
800068f6:	5248                	lw	a0,36(a2)
800068f8:	5359                	li	t1,-10
800068fa:	4f54                	lw	a3,28(a4)
800068fc:	454e                	lw	a0,208(sp)
800068fe:	5020                	lw	s0,96(s0)
80006900:	4f52                	lw	t5,20(sp)
80006902:	4d415247          	0x4d415247
80006906:	202c                	fld	fa1,64(s0)
80006908:	2732                	fld	fa4,264(sp)
8000690a:	444e                	lw	s0,208(sp)
8000690c:	5320                	lw	s0,96(a4)
8000690e:	5254                	lw	a3,36(a2)
80006910:	4e49                	li	t3,18
80006912:	00000a47          	fmsub.s	fs4,ft0,ft0,ft0,rne
80006916:	0000                	unimp
80006918:	654d                	lui	a0,0x13
8000691a:	7361                	lui	t1,0xffff8
8000691c:	7275                	lui	tp,0xffffd
8000691e:	6465                	lui	s0,0x19
80006920:	7420                	flw	fs0,104(s0)
80006922:	6d69                	lui	s10,0x1a
80006924:	2065                	jal	800069cc <__clzsi2+0x698>
80006926:	6f74                	flw	fa3,92(a4)
80006928:	6d73206f          	j	800397fe <__stack_top+0x2ed2e>
8000692c:	6c61                	lui	s8,0x18
8000692e:	206c                	fld	fa1,192(s0)
80006930:	6f74                	flw	fa3,92(a4)
80006932:	6f20                	flw	fs0,88(a4)
80006934:	7462                	flw	fs0,56(sp)
80006936:	6961                	lui	s2,0x18
80006938:	206e                	fld	ft0,216(sp)
8000693a:	656d                	lui	a0,0x1b
8000693c:	6e61                	lui	t3,0x18
8000693e:	6e69                	lui	t3,0x1a
80006940:	6c756667          	0x6c756667
80006944:	7220                	flw	fs0,96(a2)
80006946:	7365                	lui	t1,0xffff9
80006948:	6c75                	lui	s8,0x1d
8000694a:	7374                	flw	fa3,100(a4)
8000694c:	000a                	c.slli	zero,0x2
8000694e:	0000                	unimp
80006950:	6c50                	flw	fa2,28(s0)
80006952:	6165                	addi	sp,sp,112
80006954:	69206573          	csrrsi	a0,0x692,0
80006958:	636e                	flw	ft6,216(sp)
8000695a:	6572                	flw	fa0,28(sp)
8000695c:	7361                	lui	t1,0xffff8
8000695e:	2065                	jal	80006a06 <__clzsi2+0x6d2>
80006960:	756e                	flw	fa0,248(sp)
80006962:	626d                	lui	tp,0x1b
80006964:	7265                	lui	tp,0xffff9
80006966:	6f20                	flw	fs0,88(a4)
80006968:	2066                	fld	ft0,88(sp)
8000696a:	7572                	flw	fa0,60(sp)
8000696c:	736e                	flw	ft6,248(sp)
8000696e:	000a                	c.slli	zero,0x2
80006970:	694d                	lui	s2,0x13
80006972:	736f7263          	bleu	s6,t5,80007096 <impure_data+0x226>
80006976:	6365                	lui	t1,0x19
80006978:	73646e6f          	jal	t3,8004d0ae <__stack_top+0x425de>
8000697c:	6620                	flw	fs0,72(a2)
8000697e:	6f20726f          	jal	tp,8000e070 <__stack_top+0x35a0>
80006982:	656e                	flw	fa0,216(sp)
80006984:	7220                	flw	fs0,96(a2)
80006986:	6e75                	lui	t3,0x1d
80006988:	7420                	flw	fs0,104(s0)
8000698a:	7268                	flw	fa0,100(a2)
8000698c:	6867756f          	jal	a0,8007e012 <__stack_top+0x73542>
80006990:	4420                	lw	s0,72(s0)
80006992:	7268                	flw	fa0,100(a2)
80006994:	7379                	lui	t1,0xffffe
80006996:	6f74                	flw	fa3,92(a4)
80006998:	656e                	flw	fa0,216(sp)
8000699a:	203a                	fld	ft0,392(sp)
8000699c:	0000                	unimp
8000699e:	0000                	unimp
800069a0:	3625                	jal	800064c8 <__clzsi2+0x194>
800069a2:	312e                	fld	ft2,232(sp)
800069a4:	2066                	fld	ft0,88(sp)
800069a6:	000a                	c.slli	zero,0x2
800069a8:	6844                	flw	fs1,20(s0)
800069aa:	7972                	flw	fs2,60(sp)
800069ac:	6e6f7473          	csrrci	s0,0x6e6,30
800069b0:	7365                	lui	t1,0xffff9
800069b2:	7020                	flw	fs0,96(s0)
800069b4:	7265                	lui	tp,0xffff9
800069b6:	5320                	lw	s0,96(a4)
800069b8:	6365                	lui	t1,0x19
800069ba:	3a646e6f          	jal	t3,8004cd60 <__stack_top+0x42290>
800069be:	2020                	fld	fs0,64(s0)
800069c0:	2020                	fld	fs0,64(s0)
800069c2:	2020                	fld	fs0,64(s0)
800069c4:	2020                	fld	fs0,64(s0)
800069c6:	2020                	fld	fs0,64(s0)
800069c8:	2020                	fld	fs0,64(s0)
800069ca:	2020                	fld	fs0,64(s0)
800069cc:	2020                	fld	fs0,64(s0)
800069ce:	2020                	fld	fs0,64(s0)
800069d0:	2020                	fld	fs0,64(s0)
800069d2:	2020                	fld	fs0,64(s0)
	...
800069dc:	8480                	0x8480
800069de:	412e                	lw	sp,200(sp)
800069e0:	0f64                	addi	s1,sp,924
800069e2:	8000                	0x8000
800069e4:	0f70                	addi	a2,sp,924
800069e6:	8000                	0x8000
800069e8:	0f98                	addi	a4,sp,976
800069ea:	8000                	0x8000
800069ec:	0fb8                	addi	a4,sp,984
800069ee:	8000                	0x8000
800069f0:	0fa8                	addi	a0,sp,984
800069f2:	8000                	0x8000
800069f4:	0000                	unimp
800069f6:	0000                	unimp
800069f8:	6e28                	flw	fa0,88(a2)
800069fa:	6c75                	lui	s8,0x1d
800069fc:	296c                	fld	fa1,208(a0)
800069fe:	0000                	unimp
80006a00:	1aec                	addi	a1,sp,380
80006a02:	8000                	0x8000
80006a04:	1d90                	addi	a2,sp,752
80006a06:	8000                	0x8000
80006a08:	1d7c                	addi	a5,sp,700
80006a0a:	8000                	0x8000
80006a0c:	1d90                	addi	a2,sp,752
80006a0e:	8000                	0x8000
80006a10:	1d90                	addi	a2,sp,752
80006a12:	8000                	0x8000
80006a14:	1d90                	addi	a2,sp,752
80006a16:	8000                	0x8000
80006a18:	1d90                	addi	a2,sp,752
80006a1a:	8000                	0x8000
80006a1c:	1ac4                	addi	s1,sp,372
80006a1e:	8000                	0x8000
80006a20:	1d90                	addi	a2,sp,752
80006a22:	8000                	0x8000
80006a24:	1d90                	addi	a2,sp,752
80006a26:	8000                	0x8000
80006a28:	1a5c                	addi	a5,sp,308
80006a2a:	8000                	0x8000
80006a2c:	1adc                	addi	a5,sp,372
80006a2e:	8000                	0x8000
80006a30:	1d90                	addi	a2,sp,752
80006a32:	8000                	0x8000
80006a34:	1a68                	addi	a0,sp,316
80006a36:	8000                	0x8000
80006a38:	1a74                	addi	a3,sp,316
80006a3a:	8000                	0x8000
80006a3c:	1a74                	addi	a3,sp,316
80006a3e:	8000                	0x8000
80006a40:	1a74                	addi	a3,sp,316
80006a42:	8000                	0x8000
80006a44:	1a74                	addi	a3,sp,316
80006a46:	8000                	0x8000
80006a48:	1a74                	addi	a3,sp,316
80006a4a:	8000                	0x8000
80006a4c:	1a74                	addi	a3,sp,316
80006a4e:	8000                	0x8000
80006a50:	1a74                	addi	a3,sp,316
80006a52:	8000                	0x8000
80006a54:	1a74                	addi	a3,sp,316
80006a56:	8000                	0x8000
80006a58:	1a74                	addi	a3,sp,316
80006a5a:	8000                	0x8000
80006a5c:	1d90                	addi	a2,sp,752
80006a5e:	8000                	0x8000
80006a60:	1d90                	addi	a2,sp,752
80006a62:	8000                	0x8000
80006a64:	1d90                	addi	a2,sp,752
80006a66:	8000                	0x8000
80006a68:	1d90                	addi	a2,sp,752
80006a6a:	8000                	0x8000
80006a6c:	1d90                	addi	a2,sp,752
80006a6e:	8000                	0x8000
80006a70:	1d90                	addi	a2,sp,752
80006a72:	8000                	0x8000
80006a74:	1d90                	addi	a2,sp,752
80006a76:	8000                	0x8000
80006a78:	1d90                	addi	a2,sp,752
80006a7a:	8000                	0x8000
80006a7c:	1d90                	addi	a2,sp,752
80006a7e:	8000                	0x8000
80006a80:	1d90                	addi	a2,sp,752
80006a82:	8000                	0x8000
80006a84:	1d90                	addi	a2,sp,752
80006a86:	8000                	0x8000
80006a88:	1d90                	addi	a2,sp,752
80006a8a:	8000                	0x8000
80006a8c:	1d90                	addi	a2,sp,752
80006a8e:	8000                	0x8000
80006a90:	1d90                	addi	a2,sp,752
80006a92:	8000                	0x8000
80006a94:	1d90                	addi	a2,sp,752
80006a96:	8000                	0x8000
80006a98:	1d90                	addi	a2,sp,752
80006a9a:	8000                	0x8000
80006a9c:	1d90                	addi	a2,sp,752
80006a9e:	8000                	0x8000
80006aa0:	1d90                	addi	a2,sp,752
80006aa2:	8000                	0x8000
80006aa4:	1d90                	addi	a2,sp,752
80006aa6:	8000                	0x8000
80006aa8:	1d90                	addi	a2,sp,752
80006aaa:	8000                	0x8000
80006aac:	1d90                	addi	a2,sp,752
80006aae:	8000                	0x8000
80006ab0:	1d90                	addi	a2,sp,752
80006ab2:	8000                	0x8000
80006ab4:	1d90                	addi	a2,sp,752
80006ab6:	8000                	0x8000
80006ab8:	1d90                	addi	a2,sp,752
80006aba:	8000                	0x8000
80006abc:	1d90                	addi	a2,sp,752
80006abe:	8000                	0x8000
80006ac0:	1d90                	addi	a2,sp,752
80006ac2:	8000                	0x8000
80006ac4:	1d90                	addi	a2,sp,752
80006ac6:	8000                	0x8000
80006ac8:	1d90                	addi	a2,sp,752
80006aca:	8000                	0x8000
80006acc:	1d90                	addi	a2,sp,752
80006ace:	8000                	0x8000
80006ad0:	1d90                	addi	a2,sp,752
80006ad2:	8000                	0x8000
80006ad4:	1d90                	addi	a2,sp,752
80006ad6:	8000                	0x8000
80006ad8:	1d90                	addi	a2,sp,752
80006ada:	8000                	0x8000
80006adc:	1d90                	addi	a2,sp,752
80006ade:	8000                	0x8000
80006ae0:	1d90                	addi	a2,sp,752
80006ae2:	8000                	0x8000
80006ae4:	1d90                	addi	a2,sp,752
80006ae6:	8000                	0x8000
80006ae8:	1d90                	addi	a2,sp,752
80006aea:	8000                	0x8000
80006aec:	1d90                	addi	a2,sp,752
80006aee:	8000                	0x8000
80006af0:	1d90                	addi	a2,sp,752
80006af2:	8000                	0x8000
80006af4:	1d90                	addi	a2,sp,752
80006af6:	8000                	0x8000
80006af8:	1d90                	addi	a2,sp,752
80006afa:	8000                	0x8000
80006afc:	1d90                	addi	a2,sp,752
80006afe:	8000                	0x8000
80006b00:	1b28                	addi	a0,sp,440
80006b02:	8000                	0x8000
80006b04:	1c70                	addi	a2,sp,572
80006b06:	8000                	0x8000
80006b08:	1d90                	addi	a2,sp,752
80006b0a:	8000                	0x8000
80006b0c:	1b4c                	addi	a1,sp,436
80006b0e:	8000                	0x8000
80006b10:	1d90                	addi	a2,sp,752
80006b12:	8000                	0x8000
80006b14:	1d90                	addi	a2,sp,752
80006b16:	8000                	0x8000
80006b18:	1d90                	addi	a2,sp,752
80006b1a:	8000                	0x8000
80006b1c:	1d90                	addi	a2,sp,752
80006b1e:	8000                	0x8000
80006b20:	1d90                	addi	a2,sp,752
80006b22:	8000                	0x8000
80006b24:	1b18                	addi	a4,sp,432
80006b26:	8000                	0x8000
80006b28:	1d90                	addi	a2,sp,752
80006b2a:	8000                	0x8000
80006b2c:	1d90                	addi	a2,sp,752
80006b2e:	8000                	0x8000
80006b30:	1d00                	addi	s0,sp,688
80006b32:	8000                	0x8000
80006b34:	1d0c                	addi	a1,sp,688
80006b36:	8000                	0x8000
80006b38:	1d90                	addi	a2,sp,752
80006b3a:	8000                	0x8000
80006b3c:	1d90                	addi	a2,sp,752
80006b3e:	8000                	0x8000
80006b40:	1b80                	addi	s0,sp,496
80006b42:	8000                	0x8000
80006b44:	1d90                	addi	a2,sp,752
80006b46:	8000                	0x8000
80006b48:	1cf4                	addi	a3,sp,636
80006b4a:	8000                	0x8000
80006b4c:	1d90                	addi	a2,sp,752
80006b4e:	8000                	0x8000
80006b50:	1d90                	addi	a2,sp,752
80006b52:	8000                	0x8000
80006b54:	1d34                	addi	a3,sp,696
80006b56:	8000                	0x8000
80006b58:	0000                	unimp
80006b5a:	0000                	unimp
80006b5c:	0000                	unimp
80006b5e:	4024                	lw	s1,64(s0)
80006b60:	500a                	0x500a
80006b62:	6f72                	flw	ft10,28(sp)
80006b64:	206d6167          	0x206d6167
80006b68:	6168                	flw	fa0,68(a0)
80006b6a:	78652073          	csrs	0x786,a0
80006b6e:	7469                	lui	s0,0xffffa
80006b70:	6465                	lui	s0,0x19
80006b72:	7720                	flw	fs0,104(a4)
80006b74:	7469                	lui	s0,0xffffa
80006b76:	2068                	fld	fa0,192(s0)
80006b78:	65646f63          	bltu	s0,s6,800071d6 <impure_data+0x366>
80006b7c:	003a                	c.slli	zero,0xe
80006b7e:	0000                	unimp
80006b80:	000d                	c.nop	3
80006b82:	0000                	unimp
80006b84:	7830                	flw	fa2,112(s0)
80006b86:	0000                	unimp
80006b88:	e220                	fsw	fs0,64(a2)
80006b8a:	ffff                	0xffff
80006b8c:	e060                	fsw	fs0,68(s0)
80006b8e:	ffff                	0xffff
80006b90:	e1a4                	fsw	fs1,64(a1)
80006b92:	ffff                	0xffff
80006b94:	e1b4                	fsw	fa3,64(a1)
80006b96:	ffff                	0xffff
80006b98:	e1a4                	fsw	fs1,64(a1)
80006b9a:	ffff                	0xffff
80006b9c:	e0c8                	fsw	fa0,4(s1)
80006b9e:	ffff                	0xffff
80006ba0:	e1a4                	fsw	fs1,64(a1)
80006ba2:	ffff                	0xffff
80006ba4:	e1b4                	fsw	fa3,64(a1)
80006ba6:	ffff                	0xffff
80006ba8:	e060                	fsw	fs0,68(s0)
80006baa:	ffff                	0xffff
80006bac:	e060                	fsw	fs0,68(s0)
80006bae:	ffff                	0xffff
80006bb0:	e0c8                	fsw	fa0,4(s1)
80006bb2:	ffff                	0xffff
80006bb4:	e1b4                	fsw	fa3,64(a1)
80006bb6:	ffff                	0xffff
80006bb8:	e440                	fsw	fs0,12(s0)
80006bba:	ffff                	0xffff
80006bbc:	e440                	fsw	fs0,12(s0)
80006bbe:	ffff                	0xffff
80006bc0:	e440                	fsw	fs0,12(s0)
80006bc2:	ffff                	0xffff
80006bc4:	e0c8                	fsw	fa0,4(s1)
80006bc6:	ffff                	0xffff
80006bc8:	ea78                	fsw	fa4,84(a2)
80006bca:	ffff                	0xffff
80006bcc:	e9a4                	fsw	fs1,80(a1)
80006bce:	ffff                	0xffff
80006bd0:	e9a4                	fsw	fs1,80(a1)
80006bd2:	ffff                	0xffff
80006bd4:	e9a0                	fsw	fs0,80(a1)
80006bd6:	ffff                	0xffff
80006bd8:	e9c4                	fsw	fs1,20(a1)
80006bda:	ffff                	0xffff
80006bdc:	e9c4                	fsw	fs1,20(a1)
80006bde:	ffff                	0xffff
80006be0:	e934                	fsw	fa3,80(a0)
80006be2:	ffff                	0xffff
80006be4:	e9a0                	fsw	fs0,80(a1)
80006be6:	ffff                	0xffff
80006be8:	e9c4                	fsw	fs1,20(a1)
80006bea:	ffff                	0xffff
80006bec:	e934                	fsw	fa3,80(a0)
80006bee:	ffff                	0xffff
80006bf0:	e9c4                	fsw	fs1,20(a1)
80006bf2:	ffff                	0xffff
80006bf4:	e9a0                	fsw	fs0,80(a1)
80006bf6:	ffff                	0xffff
80006bf8:	e9c0                	fsw	fs0,20(a1)
80006bfa:	ffff                	0xffff
80006bfc:	e9c0                	fsw	fs0,20(a1)
80006bfe:	ffff                	0xffff
80006c00:	e9c0                	fsw	fs0,20(a1)
80006c02:	ffff                	0xffff
80006c04:	e934                	fsw	fa3,80(a0)
80006c06:	ffff                	0xffff
80006c08:	f17c                	fsw	fa5,100(a0)
80006c0a:	ffff                	0xffff
80006c0c:	f000                	fsw	fs0,32(s0)
80006c0e:	ffff                	0xffff
80006c10:	f170                	fsw	fa2,100(a0)
80006c12:	ffff                	0xffff
80006c14:	f070                	fsw	fa2,100(s0)
80006c16:	ffff                	0xffff
80006c18:	f170                	fsw	fa2,100(a0)
80006c1a:	ffff                	0xffff
80006c1c:	f05c                	fsw	fa5,36(s0)
80006c1e:	ffff                	0xffff
80006c20:	f170                	fsw	fa2,100(a0)
80006c22:	ffff                	0xffff
80006c24:	f070                	fsw	fa2,100(s0)
80006c26:	ffff                	0xffff
80006c28:	f000                	fsw	fs0,32(s0)
80006c2a:	ffff                	0xffff
80006c2c:	f000                	fsw	fs0,32(s0)
80006c2e:	ffff                	0xffff
80006c30:	f05c                	fsw	fa5,36(s0)
80006c32:	ffff                	0xffff
80006c34:	f070                	fsw	fa2,100(s0)
80006c36:	ffff                	0xffff
80006c38:	f218                	fsw	fa4,32(a2)
80006c3a:	ffff                	0xffff
80006c3c:	f218                	fsw	fa4,32(a2)
80006c3e:	ffff                	0xffff
80006c40:	f218                	fsw	fa4,32(a2)
80006c42:	ffff                	0xffff
80006c44:	f05c                	fsw	fa5,36(s0)
80006c46:	ffff                	0xffff
80006c48:	efc0                	fsw	fs0,28(a5)
80006c4a:	ffff                	0xffff
80006c4c:	efc0                	fsw	fs0,28(a5)
80006c4e:	ffff                	0xffff
80006c50:	f130                	fsw	fa2,96(a0)
80006c52:	ffff                	0xffff
80006c54:	f02c                	fsw	fa1,96(s0)
80006c56:	ffff                	0xffff
80006c58:	f130                	fsw	fa2,96(a0)
80006c5a:	ffff                	0xffff
80006c5c:	f01c                	fsw	fa5,32(s0)
80006c5e:	ffff                	0xffff
80006c60:	f130                	fsw	fa2,96(a0)
80006c62:	ffff                	0xffff
80006c64:	f02c                	fsw	fa1,96(s0)
80006c66:	ffff                	0xffff
80006c68:	efc0                	fsw	fs0,28(a5)
80006c6a:	ffff                	0xffff
80006c6c:	efc0                	fsw	fs0,28(a5)
80006c6e:	ffff                	0xffff
80006c70:	f01c                	fsw	fa5,32(s0)
80006c72:	ffff                	0xffff
80006c74:	f02c                	fsw	fa1,96(s0)
80006c76:	ffff                	0xffff
80006c78:	f1d8                	fsw	fa4,36(a1)
80006c7a:	ffff                	0xffff
80006c7c:	f1d8                	fsw	fa4,36(a1)
80006c7e:	ffff                	0xffff
80006c80:	f1d8                	fsw	fa4,36(a1)
80006c82:	ffff                	0xffff
80006c84:	f01c                	fsw	fa5,32(s0)
80006c86:	ffff                	0xffff

80006c88 <__clz_tab>:
80006c88:	0100 0202 0303 0303 0404 0404 0404 0404     ................
80006c98:	0505 0505 0505 0505 0505 0505 0505 0505     ................
80006ca8:	0606 0606 0606 0606 0606 0606 0606 0606     ................
80006cb8:	0606 0606 0606 0606 0606 0606 0606 0606     ................
80006cc8:	0707 0707 0707 0707 0707 0707 0707 0707     ................
80006cd8:	0707 0707 0707 0707 0707 0707 0707 0707     ................
80006ce8:	0707 0707 0707 0707 0707 0707 0707 0707     ................
80006cf8:	0707 0707 0707 0707 0707 0707 0707 0707     ................
80006d08:	0808 0808 0808 0808 0808 0808 0808 0808     ................
80006d18:	0808 0808 0808 0808 0808 0808 0808 0808     ................
80006d28:	0808 0808 0808 0808 0808 0808 0808 0808     ................
80006d38:	0808 0808 0808 0808 0808 0808 0808 0808     ................
80006d48:	0808 0808 0808 0808 0808 0808 0808 0808     ................
80006d58:	0808 0808 0808 0808 0808 0808 0808 0808     ................
80006d68:	0808 0808 0808 0808 0808 0808 0808 0808     ................
80006d78:	0808 0808 0808 0808 0808 0808 0808 0808     ................
80006d88:	0010 0000 0000 0000 7a01 0052 7c01 0101     .........zR..|..
80006d98:	0d1b 0002 0010 0000 0018 0000 d3c4 ffff     ................
80006da8:	04a8 0000 0000 0000 0010 0000 0000 0000     ................
80006db8:	7a01 0052 7c01 0101 0d1b 0002 0010 0000     .zR..|..........
80006dc8:	0018 0000 d844 ffff 0460 0000 0000 0000     ....D...`.......
	...
